

Microchip MPLAB XC8 Assembler V2.36 build 20220127204148 
                                                                                               Wed Jun 22 16:12:08 2022

Microchip MPLAB XC8 C Compiler v2.36 (Free license) build 20220127204148 Og1 
     1                           	processor	16F1829
     2                           	pagewidth 120
     3                           	opt	flic
     4                           	psect	idataBANK0,global,class=CODE,delta=2,noexec
     5                           	psect	nvCOMMON,global,class=COMMON,space=1,delta=1,noexec
     6                           	psect	nvBANK0,global,class=BANK0,space=1,delta=1,noexec
     7                           	psect	cinit,global,class=CODE,merge=1,delta=2
     8                           	psect	bssCOMMON,global,class=COMMON,space=1,delta=1,noexec
     9                           	psect	bssBANK0,global,class=BANK0,space=1,delta=1,noexec
    10                           	psect	dataBANK0,global,class=BANK0,space=1,delta=1,noexec
    11                           	psect	cstackCOMMON,global,class=COMMON,space=1,delta=1,noexec
    12                           	psect	cstackBANK0,global,class=BANK0,space=1,delta=1,noexec
    13                           	psect	maintext,global,class=CODE,merge=1,split=1,delta=2
    14                           	psect	text1,local,class=CODE,merge=1,delta=2
    15                           	psect	text2,local,class=CODE,merge=1,delta=2
    16                           	psect	text3,local,class=CODE,merge=1,delta=2
    17                           	psect	text4,local,class=CODE,merge=1,delta=2
    18                           	psect	text5,local,class=CODE,merge=1,delta=2
    19                           	psect	text6,local,class=CODE,merge=1,delta=2
    20                           	psect	text7,local,class=CODE,merge=1,delta=2
    21                           	psect	text8,local,class=CODE,merge=1,delta=2
    22                           	psect	text9,local,class=CODE,merge=1,delta=2,group=1
    23                           	psect	text10,local,class=CODE,merge=1,delta=2,group=1
    24                           	psect	text11,local,class=CODE,merge=1,delta=2
    25                           	psect	text12,local,class=CODE,merge=1,delta=2
    26                           	psect	text13,local,class=CODE,merge=1,delta=2
    27                           	psect	text14,local,class=CODE,merge=1,delta=2
    28                           	psect	text15,local,class=CODE,merge=1,delta=2
    29                           	psect	text16,local,class=CODE,merge=1,delta=2
    30                           	psect	text17,local,class=CODE,merge=1,delta=2
    31                           	psect	text18,local,class=CODE,merge=1,delta=2
    32                           	psect	text19,local,class=CODE,merge=1,delta=2
    33                           	psect	text20,local,class=CODE,merge=1,delta=2
    34                           	psect	text21,local,class=CODE,merge=1,delta=2
    35                           	psect	text22,local,class=CODE,merge=1,delta=2
    36                           	psect	text23,local,class=CODE,merge=1,delta=2
    37                           	psect	text24,local,class=CODE,merge=1,delta=2
    38                           	psect	text25,local,class=CODE,merge=1,delta=2
    39                           	psect	text26,local,class=CODE,merge=1,delta=2
    40                           	psect	text27,local,class=CODE,merge=1,delta=2
    41                           	psect	text28,local,class=CODE,merge=1,delta=2
    42                           	psect	text29,local,class=CODE,merge=1,delta=2
    43                           	psect	text30,local,class=CODE,merge=1,delta=2
    44                           	psect	text31,local,class=CODE,merge=1,delta=2
    45                           	psect	text32,local,class=CODE,merge=1,delta=2
    46                           	psect	text33,local,class=CODE,merge=1,delta=2
    47                           	psect	text34,local,class=CODE,merge=1,delta=2
    48                           	psect	text35,local,class=CODE,merge=1,delta=2
    49                           	psect	idloc,global,abs,ovrld,class=IDLOC,space=5,delta=2,noexec
    50                           	psect	config,global,abs,ovrld,class=CONFIG,space=4,delta=2,noexec
    51                           	dabs	1,0x7E,2
    52  0000                     
    53                           ; Version 2.40
    54                           ; Generated 17/11/2021 GMT
    55                           ; 
    56                           ; Copyright © 2021, Microchip Technology Inc. and its subsidiaries ("Microchip")
    57                           ; All rights reserved.
    58                           ; 
    59                           ; This software is developed by Microchip Technology Inc. and its subsidiaries ("Microch
      +                          ip").
    60                           ; 
    61                           ; Redistribution and use in source and binary forms, with or without modification, are
    62                           ; permitted provided that the following conditions are met:
    63                           ; 
    64                           ;     1. Redistributions of source code must retain the above copyright notice, this lis
      +                          t of
    65                           ;        conditions and the following disclaimer.
    66                           ; 
    67                           ;     2. Redistributions in binary form must reproduce the above copyright notice, this 
      +                          list
    68                           ;        of conditions and the following disclaimer in the documentation and/or other
    69                           ;        materials provided with the distribution. Publication is not required when
    70                           ;        this file is used in an embedded application.
    71                           ; 
    72                           ;     3. Microchip's name may not be used to endorse or promote products derived from th
      +                          is
    73                           ;        software without specific prior written permission.
    74                           ; 
    75                           ; THIS SOFTWARE IS PROVIDED BY MICROCHIP "AS IS" AND ANY EXPRESS OR IMPLIED WARRANTIES,
    76                           ; INCLUDING, BUT NOT LIMITED TO, THE IMPLIED WARRANTIES OF MERCHANTABILITY AND FITNESS F
      +                          OR
    77                           ; PURPOSE ARE DISCLAIMED.  IN NO EVENT SHALL MICROCHIP BE LIABLE FOR ANY DIRECT, INDIREC
      +                          T,
    78                           ; INCIDENTAL, SPECIAL, EXEMPLARY, OR CONSEQUENTIAL DAMAGES (INCLUDING BUT NOT LIMITED TO
    79                           ; PROCUREMENT OF SUBSTITUTE GOODS OR SERVICES; LOSS OF USE, DATA OR PROFITS; OR BUSINESS
    80                           ; INTERRUPTION) HOWSOEVER CAUSED AND ON ANY THEORY OF LIABILITY, WHETHER IN CONTRACT, ST
      +                          RICT
    81                           ; LIABILITY, OR TORT (INCLUDING NEGLIGENCE OR OTHERWISE) ARISING IN ANY WAY OUT OF THE U
      +                          SE OF
    82                           ; THIS SOFTWARE, EVEN IF ADVISED OF THE POSSIBILITY OF SUCH DAMAGE.
    83                           ; 
    84                           ; 
    85                           ; Code-generator required, PIC16F1829 Definitions
    86                           ; 
    87                           ; SFR Addresses
    88  0000                     	;# 
    89  0001                     	;# 
    90  0002                     	;# 
    91  0003                     	;# 
    92  0004                     	;# 
    93  0005                     	;# 
    94  0006                     	;# 
    95  0007                     	;# 
    96  0008                     	;# 
    97  0009                     	;# 
    98  000A                     	;# 
    99  000B                     	;# 
   100  000C                     	;# 
   101  000D                     	;# 
   102  000E                     	;# 
   103  0011                     	;# 
   104  0012                     	;# 
   105  0013                     	;# 
   106  0014                     	;# 
   107  0015                     	;# 
   108  0016                     	;# 
   109  0016                     	;# 
   110  0017                     	;# 
   111  0018                     	;# 
   112  0019                     	;# 
   113  001A                     	;# 
   114  001B                     	;# 
   115  001C                     	;# 
   116  001E                     	;# 
   117  001F                     	;# 
   118  008C                     	;# 
   119  008D                     	;# 
   120  008E                     	;# 
   121  0091                     	;# 
   122  0092                     	;# 
   123  0093                     	;# 
   124  0094                     	;# 
   125  0095                     	;# 
   126  0096                     	;# 
   127  0097                     	;# 
   128  0098                     	;# 
   129  0099                     	;# 
   130  009A                     	;# 
   131  009B                     	;# 
   132  009B                     	;# 
   133  009C                     	;# 
   134  009D                     	;# 
   135  009E                     	;# 
   136  010C                     	;# 
   137  010D                     	;# 
   138  010E                     	;# 
   139  0111                     	;# 
   140  0112                     	;# 
   141  0113                     	;# 
   142  0114                     	;# 
   143  0115                     	;# 
   144  0116                     	;# 
   145  0117                     	;# 
   146  0118                     	;# 
   147  0119                     	;# 
   148  011A                     	;# 
   149  011B                     	;# 
   150  011D                     	;# 
   151  011E                     	;# 
   152  018C                     	;# 
   153  018D                     	;# 
   154  018E                     	;# 
   155  0191                     	;# 
   156  0191                     	;# 
   157  0192                     	;# 
   158  0193                     	;# 
   159  0193                     	;# 
   160  0193                     	;# 
   161  0194                     	;# 
   162  0195                     	;# 
   163  0196                     	;# 
   164  0199                     	;# 
   165  019A                     	;# 
   166  019B                     	;# 
   167  019B                     	;# 
   168  019C                     	;# 
   169  019D                     	;# 
   170  019E                     	;# 
   171  019F                     	;# 
   172  020C                     	;# 
   173  020D                     	;# 
   174  020E                     	;# 
   175  0211                     	;# 
   176  0211                     	;# 
   177  0212                     	;# 
   178  0212                     	;# 
   179  0213                     	;# 
   180  0213                     	;# 
   181  0214                     	;# 
   182  0214                     	;# 
   183  0215                     	;# 
   184  0215                     	;# 
   185  0215                     	;# 
   186  0216                     	;# 
   187  0216                     	;# 
   188  0217                     	;# 
   189  0217                     	;# 
   190  0219                     	;# 
   191  021A                     	;# 
   192  021B                     	;# 
   193  021C                     	;# 
   194  021D                     	;# 
   195  021E                     	;# 
   196  021F                     	;# 
   197  0291                     	;# 
   198  0291                     	;# 
   199  0292                     	;# 
   200  0293                     	;# 
   201  0294                     	;# 
   202  0295                     	;# 
   203  0295                     	;# 
   204  0296                     	;# 
   205  0298                     	;# 
   206  0298                     	;# 
   207  0299                     	;# 
   208  029A                     	;# 
   209  029B                     	;# 
   210  029C                     	;# 
   211  029D                     	;# 
   212  029E                     	;# 
   213  0311                     	;# 
   214  0311                     	;# 
   215  0312                     	;# 
   216  0313                     	;# 
   217  0318                     	;# 
   218  0318                     	;# 
   219  0319                     	;# 
   220  031A                     	;# 
   221  038C                     	;# 
   222  038D                     	;# 
   223  038E                     	;# 
   224  0391                     	;# 
   225  0392                     	;# 
   226  0393                     	;# 
   227  0394                     	;# 
   228  0395                     	;# 
   229  0396                     	;# 
   230  039A                     	;# 
   231  039C                     	;# 
   232  039D                     	;# 
   233  039E                     	;# 
   234  039F                     	;# 
   235  0415                     	;# 
   236  0416                     	;# 
   237  0417                     	;# 
   238  041C                     	;# 
   239  041D                     	;# 
   240  041E                     	;# 
   241  0FE4                     	;# 
   242  0FE5                     	;# 
   243  0FE6                     	;# 
   244  0FE7                     	;# 
   245  0FE8                     	;# 
   246  0FE9                     	;# 
   247  0FEA                     	;# 
   248  0FEB                     	;# 
   249  0FED                     	;# 
   250  0FEE                     	;# 
   251  0FEF                     	;# 
   252  0000                     	;# 
   253  0001                     	;# 
   254  0002                     	;# 
   255  0003                     	;# 
   256  0004                     	;# 
   257  0005                     	;# 
   258  0006                     	;# 
   259  0007                     	;# 
   260  0008                     	;# 
   261  0009                     	;# 
   262  000A                     	;# 
   263  000B                     	;# 
   264  000C                     	;# 
   265  000D                     	;# 
   266  000E                     	;# 
   267  0011                     	;# 
   268  0012                     	;# 
   269  0013                     	;# 
   270  0014                     	;# 
   271  0015                     	;# 
   272  0016                     	;# 
   273  0016                     	;# 
   274  0017                     	;# 
   275  0018                     	;# 
   276  0019                     	;# 
   277  001A                     	;# 
   278  001B                     	;# 
   279  001C                     	;# 
   280  001E                     	;# 
   281  001F                     	;# 
   282  008C                     	;# 
   283  008D                     	;# 
   284  008E                     	;# 
   285  0091                     	;# 
   286  0092                     	;# 
   287  0093                     	;# 
   288  0094                     	;# 
   289  0095                     	;# 
   290  0096                     	;# 
   291  0097                     	;# 
   292  0098                     	;# 
   293  0099                     	;# 
   294  009A                     	;# 
   295  009B                     	;# 
   296  009B                     	;# 
   297  009C                     	;# 
   298  009D                     	;# 
   299  009E                     	;# 
   300  010C                     	;# 
   301  010D                     	;# 
   302  010E                     	;# 
   303  0111                     	;# 
   304  0112                     	;# 
   305  0113                     	;# 
   306  0114                     	;# 
   307  0115                     	;# 
   308  0116                     	;# 
   309  0117                     	;# 
   310  0118                     	;# 
   311  0119                     	;# 
   312  011A                     	;# 
   313  011B                     	;# 
   314  011D                     	;# 
   315  011E                     	;# 
   316  018C                     	;# 
   317  018D                     	;# 
   318  018E                     	;# 
   319  0191                     	;# 
   320  0191                     	;# 
   321  0192                     	;# 
   322  0193                     	;# 
   323  0193                     	;# 
   324  0193                     	;# 
   325  0194                     	;# 
   326  0195                     	;# 
   327  0196                     	;# 
   328  0199                     	;# 
   329  019A                     	;# 
   330  019B                     	;# 
   331  019B                     	;# 
   332  019C                     	;# 
   333  019D                     	;# 
   334  019E                     	;# 
   335  019F                     	;# 
   336  020C                     	;# 
   337  020D                     	;# 
   338  020E                     	;# 
   339  0211                     	;# 
   340  0211                     	;# 
   341  0212                     	;# 
   342  0212                     	;# 
   343  0213                     	;# 
   344  0213                     	;# 
   345  0214                     	;# 
   346  0214                     	;# 
   347  0215                     	;# 
   348  0215                     	;# 
   349  0215                     	;# 
   350  0216                     	;# 
   351  0216                     	;# 
   352  0217                     	;# 
   353  0217                     	;# 
   354  0219                     	;# 
   355  021A                     	;# 
   356  021B                     	;# 
   357  021C                     	;# 
   358  021D                     	;# 
   359  021E                     	;# 
   360  021F                     	;# 
   361  0291                     	;# 
   362  0291                     	;# 
   363  0292                     	;# 
   364  0293                     	;# 
   365  0294                     	;# 
   366  0295                     	;# 
   367  0295                     	;# 
   368  0296                     	;# 
   369  0298                     	;# 
   370  0298                     	;# 
   371  0299                     	;# 
   372  029A                     	;# 
   373  029B                     	;# 
   374  029C                     	;# 
   375  029D                     	;# 
   376  029E                     	;# 
   377  0311                     	;# 
   378  0311                     	;# 
   379  0312                     	;# 
   380  0313                     	;# 
   381  0318                     	;# 
   382  0318                     	;# 
   383  0319                     	;# 
   384  031A                     	;# 
   385  038C                     	;# 
   386  038D                     	;# 
   387  038E                     	;# 
   388  0391                     	;# 
   389  0392                     	;# 
   390  0393                     	;# 
   391  0394                     	;# 
   392  0395                     	;# 
   393  0396                     	;# 
   394  039A                     	;# 
   395  039C                     	;# 
   396  039D                     	;# 
   397  039E                     	;# 
   398  039F                     	;# 
   399  0415                     	;# 
   400  0416                     	;# 
   401  0417                     	;# 
   402  041C                     	;# 
   403  041D                     	;# 
   404  041E                     	;# 
   405  0FE4                     	;# 
   406  0FE5                     	;# 
   407  0FE6                     	;# 
   408  0FE7                     	;# 
   409  0FE8                     	;# 
   410  0FE9                     	;# 
   411  0FEA                     	;# 
   412  0FEB                     	;# 
   413  0FED                     	;# 
   414  0FEE                     	;# 
   415  0FEF                     	;# 
   416  0000                     	;# 
   417  0001                     	;# 
   418  0002                     	;# 
   419  0003                     	;# 
   420  0004                     	;# 
   421  0005                     	;# 
   422  0006                     	;# 
   423  0007                     	;# 
   424  0008                     	;# 
   425  0009                     	;# 
   426  000A                     	;# 
   427  000B                     	;# 
   428  000C                     	;# 
   429  000D                     	;# 
   430  000E                     	;# 
   431  0011                     	;# 
   432  0012                     	;# 
   433  0013                     	;# 
   434  0014                     	;# 
   435  0015                     	;# 
   436  0016                     	;# 
   437  0016                     	;# 
   438  0017                     	;# 
   439  0018                     	;# 
   440  0019                     	;# 
   441  001A                     	;# 
   442  001B                     	;# 
   443  001C                     	;# 
   444  001E                     	;# 
   445  001F                     	;# 
   446  008C                     	;# 
   447  008D                     	;# 
   448  008E                     	;# 
   449  0091                     	;# 
   450  0092                     	;# 
   451  0093                     	;# 
   452  0094                     	;# 
   453  0095                     	;# 
   454  0096                     	;# 
   455  0097                     	;# 
   456  0098                     	;# 
   457  0099                     	;# 
   458  009A                     	;# 
   459  009B                     	;# 
   460  009B                     	;# 
   461  009C                     	;# 
   462  009D                     	;# 
   463  009E                     	;# 
   464  010C                     	;# 
   465  010D                     	;# 
   466  010E                     	;# 
   467  0111                     	;# 
   468  0112                     	;# 
   469  0113                     	;# 
   470  0114                     	;# 
   471  0115                     	;# 
   472  0116                     	;# 
   473  0117                     	;# 
   474  0118                     	;# 
   475  0119                     	;# 
   476  011A                     	;# 
   477  011B                     	;# 
   478  011D                     	;# 
   479  011E                     	;# 
   480  018C                     	;# 
   481  018D                     	;# 
   482  018E                     	;# 
   483  0191                     	;# 
   484  0191                     	;# 
   485  0192                     	;# 
   486  0193                     	;# 
   487  0193                     	;# 
   488  0193                     	;# 
   489  0194                     	;# 
   490  0195                     	;# 
   491  0196                     	;# 
   492  0199                     	;# 
   493  019A                     	;# 
   494  019B                     	;# 
   495  019B                     	;# 
   496  019C                     	;# 
   497  019D                     	;# 
   498  019E                     	;# 
   499  019F                     	;# 
   500  020C                     	;# 
   501  020D                     	;# 
   502  020E                     	;# 
   503  0211                     	;# 
   504  0211                     	;# 
   505  0212                     	;# 
   506  0212                     	;# 
   507  0213                     	;# 
   508  0213                     	;# 
   509  0214                     	;# 
   510  0214                     	;# 
   511  0215                     	;# 
   512  0215                     	;# 
   513  0215                     	;# 
   514  0216                     	;# 
   515  0216                     	;# 
   516  0217                     	;# 
   517  0217                     	;# 
   518  0219                     	;# 
   519  021A                     	;# 
   520  021B                     	;# 
   521  021C                     	;# 
   522  021D                     	;# 
   523  021E                     	;# 
   524  021F                     	;# 
   525  0291                     	;# 
   526  0291                     	;# 
   527  0292                     	;# 
   528  0293                     	;# 
   529  0294                     	;# 
   530  0295                     	;# 
   531  0295                     	;# 
   532  0296                     	;# 
   533  0298                     	;# 
   534  0298                     	;# 
   535  0299                     	;# 
   536  029A                     	;# 
   537  029B                     	;# 
   538  029C                     	;# 
   539  029D                     	;# 
   540  029E                     	;# 
   541  0311                     	;# 
   542  0311                     	;# 
   543  0312                     	;# 
   544  0313                     	;# 
   545  0318                     	;# 
   546  0318                     	;# 
   547  0319                     	;# 
   548  031A                     	;# 
   549  038C                     	;# 
   550  038D                     	;# 
   551  038E                     	;# 
   552  0391                     	;# 
   553  0392                     	;# 
   554  0393                     	;# 
   555  0394                     	;# 
   556  0395                     	;# 
   557  0396                     	;# 
   558  039A                     	;# 
   559  039C                     	;# 
   560  039D                     	;# 
   561  039E                     	;# 
   562  039F                     	;# 
   563  0415                     	;# 
   564  0416                     	;# 
   565  0417                     	;# 
   566  041C                     	;# 
   567  041D                     	;# 
   568  041E                     	;# 
   569  0FE4                     	;# 
   570  0FE5                     	;# 
   571  0FE6                     	;# 
   572  0FE7                     	;# 
   573  0FE8                     	;# 
   574  0FE9                     	;# 
   575  0FEA                     	;# 
   576  0FEB                     	;# 
   577  0FED                     	;# 
   578  0FEE                     	;# 
   579  0FEF                     	;# 
   580  0000                     	;# 
   581  0001                     	;# 
   582  0002                     	;# 
   583  0003                     	;# 
   584  0004                     	;# 
   585  0005                     	;# 
   586  0006                     	;# 
   587  0007                     	;# 
   588  0008                     	;# 
   589  0009                     	;# 
   590  000A                     	;# 
   591  000B                     	;# 
   592  000C                     	;# 
   593  000D                     	;# 
   594  000E                     	;# 
   595  0011                     	;# 
   596  0012                     	;# 
   597  0013                     	;# 
   598  0014                     	;# 
   599  0015                     	;# 
   600  0016                     	;# 
   601  0016                     	;# 
   602  0017                     	;# 
   603  0018                     	;# 
   604  0019                     	;# 
   605  001A                     	;# 
   606  001B                     	;# 
   607  001C                     	;# 
   608  001E                     	;# 
   609  001F                     	;# 
   610  008C                     	;# 
   611  008D                     	;# 
   612  008E                     	;# 
   613  0091                     	;# 
   614  0092                     	;# 
   615  0093                     	;# 
   616  0094                     	;# 
   617  0095                     	;# 
   618  0096                     	;# 
   619  0097                     	;# 
   620  0098                     	;# 
   621  0099                     	;# 
   622  009A                     	;# 
   623  009B                     	;# 
   624  009B                     	;# 
   625  009C                     	;# 
   626  009D                     	;# 
   627  009E                     	;# 
   628  010C                     	;# 
   629  010D                     	;# 
   630  010E                     	;# 
   631  0111                     	;# 
   632  0112                     	;# 
   633  0113                     	;# 
   634  0114                     	;# 
   635  0115                     	;# 
   636  0116                     	;# 
   637  0117                     	;# 
   638  0118                     	;# 
   639  0119                     	;# 
   640  011A                     	;# 
   641  011B                     	;# 
   642  011D                     	;# 
   643  011E                     	;# 
   644  018C                     	;# 
   645  018D                     	;# 
   646  018E                     	;# 
   647  0191                     	;# 
   648  0191                     	;# 
   649  0192                     	;# 
   650  0193                     	;# 
   651  0193                     	;# 
   652  0193                     	;# 
   653  0194                     	;# 
   654  0195                     	;# 
   655  0196                     	;# 
   656  0199                     	;# 
   657  019A                     	;# 
   658  019B                     	;# 
   659  019B                     	;# 
   660  019C                     	;# 
   661  019D                     	;# 
   662  019E                     	;# 
   663  019F                     	;# 
   664  020C                     	;# 
   665  020D                     	;# 
   666  020E                     	;# 
   667  0211                     	;# 
   668  0211                     	;# 
   669  0212                     	;# 
   670  0212                     	;# 
   671  0213                     	;# 
   672  0213                     	;# 
   673  0214                     	;# 
   674  0214                     	;# 
   675  0215                     	;# 
   676  0215                     	;# 
   677  0215                     	;# 
   678  0216                     	;# 
   679  0216                     	;# 
   680  0217                     	;# 
   681  0217                     	;# 
   682  0219                     	;# 
   683  021A                     	;# 
   684  021B                     	;# 
   685  021C                     	;# 
   686  021D                     	;# 
   687  021E                     	;# 
   688  021F                     	;# 
   689  0291                     	;# 
   690  0291                     	;# 
   691  0292                     	;# 
   692  0293                     	;# 
   693  0294                     	;# 
   694  0295                     	;# 
   695  0295                     	;# 
   696  0296                     	;# 
   697  0298                     	;# 
   698  0298                     	;# 
   699  0299                     	;# 
   700  029A                     	;# 
   701  029B                     	;# 
   702  029C                     	;# 
   703  029D                     	;# 
   704  029E                     	;# 
   705  0311                     	;# 
   706  0311                     	;# 
   707  0312                     	;# 
   708  0313                     	;# 
   709  0318                     	;# 
   710  0318                     	;# 
   711  0319                     	;# 
   712  031A                     	;# 
   713  038C                     	;# 
   714  038D                     	;# 
   715  038E                     	;# 
   716  0391                     	;# 
   717  0392                     	;# 
   718  0393                     	;# 
   719  0394                     	;# 
   720  0395                     	;# 
   721  0396                     	;# 
   722  039A                     	;# 
   723  039C                     	;# 
   724  039D                     	;# 
   725  039E                     	;# 
   726  039F                     	;# 
   727  0415                     	;# 
   728  0416                     	;# 
   729  0417                     	;# 
   730  041C                     	;# 
   731  041D                     	;# 
   732  041E                     	;# 
   733  0FE4                     	;# 
   734  0FE5                     	;# 
   735  0FE6                     	;# 
   736  0FE7                     	;# 
   737  0FE8                     	;# 
   738  0FE9                     	;# 
   739  0FEA                     	;# 
   740  0FEB                     	;# 
   741  0FED                     	;# 
   742  0FEE                     	;# 
   743  0FEF                     	;# 
   744  0000                     	;# 
   745  0001                     	;# 
   746  0002                     	;# 
   747  0003                     	;# 
   748  0004                     	;# 
   749  0005                     	;# 
   750  0006                     	;# 
   751  0007                     	;# 
   752  0008                     	;# 
   753  0009                     	;# 
   754  000A                     	;# 
   755  000B                     	;# 
   756  000C                     	;# 
   757  000D                     	;# 
   758  000E                     	;# 
   759  0011                     	;# 
   760  0012                     	;# 
   761  0013                     	;# 
   762  0014                     	;# 
   763  0015                     	;# 
   764  0016                     	;# 
   765  0016                     	;# 
   766  0017                     	;# 
   767  0018                     	;# 
   768  0019                     	;# 
   769  001A                     	;# 
   770  001B                     	;# 
   771  001C                     	;# 
   772  001E                     	;# 
   773  001F                     	;# 
   774  008C                     	;# 
   775  008D                     	;# 
   776  008E                     	;# 
   777  0091                     	;# 
   778  0092                     	;# 
   779  0093                     	;# 
   780  0094                     	;# 
   781  0095                     	;# 
   782  0096                     	;# 
   783  0097                     	;# 
   784  0098                     	;# 
   785  0099                     	;# 
   786  009A                     	;# 
   787  009B                     	;# 
   788  009B                     	;# 
   789  009C                     	;# 
   790  009D                     	;# 
   791  009E                     	;# 
   792  010C                     	;# 
   793  010D                     	;# 
   794  010E                     	;# 
   795  0111                     	;# 
   796  0112                     	;# 
   797  0113                     	;# 
   798  0114                     	;# 
   799  0115                     	;# 
   800  0116                     	;# 
   801  0117                     	;# 
   802  0118                     	;# 
   803  0119                     	;# 
   804  011A                     	;# 
   805  011B                     	;# 
   806  011D                     	;# 
   807  011E                     	;# 
   808  018C                     	;# 
   809  018D                     	;# 
   810  018E                     	;# 
   811  0191                     	;# 
   812  0191                     	;# 
   813  0192                     	;# 
   814  0193                     	;# 
   815  0193                     	;# 
   816  0193                     	;# 
   817  0194                     	;# 
   818  0195                     	;# 
   819  0196                     	;# 
   820  0199                     	;# 
   821  019A                     	;# 
   822  019B                     	;# 
   823  019B                     	;# 
   824  019C                     	;# 
   825  019D                     	;# 
   826  019E                     	;# 
   827  019F                     	;# 
   828  020C                     	;# 
   829  020D                     	;# 
   830  020E                     	;# 
   831  0211                     	;# 
   832  0211                     	;# 
   833  0212                     	;# 
   834  0212                     	;# 
   835  0213                     	;# 
   836  0213                     	;# 
   837  0214                     	;# 
   838  0214                     	;# 
   839  0215                     	;# 
   840  0215                     	;# 
   841  0215                     	;# 
   842  0216                     	;# 
   843  0216                     	;# 
   844  0217                     	;# 
   845  0217                     	;# 
   846  0219                     	;# 
   847  021A                     	;# 
   848  021B                     	;# 
   849  021C                     	;# 
   850  021D                     	;# 
   851  021E                     	;# 
   852  021F                     	;# 
   853  0291                     	;# 
   854  0291                     	;# 
   855  0292                     	;# 
   856  0293                     	;# 
   857  0294                     	;# 
   858  0295                     	;# 
   859  0295                     	;# 
   860  0296                     	;# 
   861  0298                     	;# 
   862  0298                     	;# 
   863  0299                     	;# 
   864  029A                     	;# 
   865  029B                     	;# 
   866  029C                     	;# 
   867  029D                     	;# 
   868  029E                     	;# 
   869  0311                     	;# 
   870  0311                     	;# 
   871  0312                     	;# 
   872  0313                     	;# 
   873  0318                     	;# 
   874  0318                     	;# 
   875  0319                     	;# 
   876  031A                     	;# 
   877  038C                     	;# 
   878  038D                     	;# 
   879  038E                     	;# 
   880  0391                     	;# 
   881  0392                     	;# 
   882  0393                     	;# 
   883  0394                     	;# 
   884  0395                     	;# 
   885  0396                     	;# 
   886  039A                     	;# 
   887  039C                     	;# 
   888  039D                     	;# 
   889  039E                     	;# 
   890  039F                     	;# 
   891  0415                     	;# 
   892  0416                     	;# 
   893  0417                     	;# 
   894  041C                     	;# 
   895  041D                     	;# 
   896  041E                     	;# 
   897  0FE4                     	;# 
   898  0FE5                     	;# 
   899  0FE6                     	;# 
   900  0FE7                     	;# 
   901  0FE8                     	;# 
   902  0FE9                     	;# 
   903  0FEA                     	;# 
   904  0FEB                     	;# 
   905  0FED                     	;# 
   906  0FEE                     	;# 
   907  0FEF                     	;# 
   908  0000                     	;# 
   909  0001                     	;# 
   910  0002                     	;# 
   911  0003                     	;# 
   912  0004                     	;# 
   913  0005                     	;# 
   914  0006                     	;# 
   915  0007                     	;# 
   916  0008                     	;# 
   917  0009                     	;# 
   918  000A                     	;# 
   919  000B                     	;# 
   920  000C                     	;# 
   921  000D                     	;# 
   922  000E                     	;# 
   923  0011                     	;# 
   924  0012                     	;# 
   925  0013                     	;# 
   926  0014                     	;# 
   927  0015                     	;# 
   928  0016                     	;# 
   929  0016                     	;# 
   930  0017                     	;# 
   931  0018                     	;# 
   932  0019                     	;# 
   933  001A                     	;# 
   934  001B                     	;# 
   935  001C                     	;# 
   936  001E                     	;# 
   937  001F                     	;# 
   938  008C                     	;# 
   939  008D                     	;# 
   940  008E                     	;# 
   941  0091                     	;# 
   942  0092                     	;# 
   943  0093                     	;# 
   944  0094                     	;# 
   945  0095                     	;# 
   946  0096                     	;# 
   947  0097                     	;# 
   948  0098                     	;# 
   949  0099                     	;# 
   950  009A                     	;# 
   951  009B                     	;# 
   952  009B                     	;# 
   953  009C                     	;# 
   954  009D                     	;# 
   955  009E                     	;# 
   956  010C                     	;# 
   957  010D                     	;# 
   958  010E                     	;# 
   959  0111                     	;# 
   960  0112                     	;# 
   961  0113                     	;# 
   962  0114                     	;# 
   963  0115                     	;# 
   964  0116                     	;# 
   965  0117                     	;# 
   966  0118                     	;# 
   967  0119                     	;# 
   968  011A                     	;# 
   969  011B                     	;# 
   970  011D                     	;# 
   971  011E                     	;# 
   972  018C                     	;# 
   973  018D                     	;# 
   974  018E                     	;# 
   975  0191                     	;# 
   976  0191                     	;# 
   977  0192                     	;# 
   978  0193                     	;# 
   979  0193                     	;# 
   980  0193                     	;# 
   981  0194                     	;# 
   982  0195                     	;# 
   983  0196                     	;# 
   984  0199                     	;# 
   985  019A                     	;# 
   986  019B                     	;# 
   987  019B                     	;# 
   988  019C                     	;# 
   989  019D                     	;# 
   990  019E                     	;# 
   991  019F                     	;# 
   992  020C                     	;# 
   993  020D                     	;# 
   994  020E                     	;# 
   995  0211                     	;# 
   996  0211                     	;# 
   997  0212                     	;# 
   998  0212                     	;# 
   999  0213                     	;# 
  1000  0213                     	;# 
  1001  0214                     	;# 
  1002  0214                     	;# 
  1003  0215                     	;# 
  1004  0215                     	;# 
  1005  0215                     	;# 
  1006  0216                     	;# 
  1007  0216                     	;# 
  1008  0217                     	;# 
  1009  0217                     	;# 
  1010  0219                     	;# 
  1011  021A                     	;# 
  1012  021B                     	;# 
  1013  021C                     	;# 
  1014  021D                     	;# 
  1015  021E                     	;# 
  1016  021F                     	;# 
  1017  0291                     	;# 
  1018  0291                     	;# 
  1019  0292                     	;# 
  1020  0293                     	;# 
  1021  0294                     	;# 
  1022  0295                     	;# 
  1023  0295                     	;# 
  1024  0296                     	;# 
  1025  0298                     	;# 
  1026  0298                     	;# 
  1027  0299                     	;# 
  1028  029A                     	;# 
  1029  029B                     	;# 
  1030  029C                     	;# 
  1031  029D                     	;# 
  1032  029E                     	;# 
  1033  0311                     	;# 
  1034  0311                     	;# 
  1035  0312                     	;# 
  1036  0313                     	;# 
  1037  0318                     	;# 
  1038  0318                     	;# 
  1039  0319                     	;# 
  1040  031A                     	;# 
  1041  038C                     	;# 
  1042  038D                     	;# 
  1043  038E                     	;# 
  1044  0391                     	;# 
  1045  0392                     	;# 
  1046  0393                     	;# 
  1047  0394                     	;# 
  1048  0395                     	;# 
  1049  0396                     	;# 
  1050  039A                     	;# 
  1051  039C                     	;# 
  1052  039D                     	;# 
  1053  039E                     	;# 
  1054  039F                     	;# 
  1055  0415                     	;# 
  1056  0416                     	;# 
  1057  0417                     	;# 
  1058  041C                     	;# 
  1059  041D                     	;# 
  1060  041E                     	;# 
  1061  0FE4                     	;# 
  1062  0FE5                     	;# 
  1063  0FE6                     	;# 
  1064  0FE7                     	;# 
  1065  0FE8                     	;# 
  1066  0FE9                     	;# 
  1067  0FEA                     	;# 
  1068  0FEB                     	;# 
  1069  0FED                     	;# 
  1070  0FEE                     	;# 
  1071  0FEF                     	;# 
  1072  0000                     	;# 
  1073  0001                     	;# 
  1074  0002                     	;# 
  1075  0003                     	;# 
  1076  0004                     	;# 
  1077  0005                     	;# 
  1078  0006                     	;# 
  1079  0007                     	;# 
  1080  0008                     	;# 
  1081  0009                     	;# 
  1082  000A                     	;# 
  1083  000B                     	;# 
  1084  000C                     	;# 
  1085  000D                     	;# 
  1086  000E                     	;# 
  1087  0011                     	;# 
  1088  0012                     	;# 
  1089  0013                     	;# 
  1090  0014                     	;# 
  1091  0015                     	;# 
  1092  0016                     	;# 
  1093  0016                     	;# 
  1094  0017                     	;# 
  1095  0018                     	;# 
  1096  0019                     	;# 
  1097  001A                     	;# 
  1098  001B                     	;# 
  1099  001C                     	;# 
  1100  001E                     	;# 
  1101  001F                     	;# 
  1102  008C                     	;# 
  1103  008D                     	;# 
  1104  008E                     	;# 
  1105  0091                     	;# 
  1106  0092                     	;# 
  1107  0093                     	;# 
  1108  0094                     	;# 
  1109  0095                     	;# 
  1110  0096                     	;# 
  1111  0097                     	;# 
  1112  0098                     	;# 
  1113  0099                     	;# 
  1114  009A                     	;# 
  1115  009B                     	;# 
  1116  009B                     	;# 
  1117  009C                     	;# 
  1118  009D                     	;# 
  1119  009E                     	;# 
  1120  010C                     	;# 
  1121  010D                     	;# 
  1122  010E                     	;# 
  1123  0111                     	;# 
  1124  0112                     	;# 
  1125  0113                     	;# 
  1126  0114                     	;# 
  1127  0115                     	;# 
  1128  0116                     	;# 
  1129  0117                     	;# 
  1130  0118                     	;# 
  1131  0119                     	;# 
  1132  011A                     	;# 
  1133  011B                     	;# 
  1134  011D                     	;# 
  1135  011E                     	;# 
  1136  018C                     	;# 
  1137  018D                     	;# 
  1138  018E                     	;# 
  1139  0191                     	;# 
  1140  0191                     	;# 
  1141  0192                     	;# 
  1142  0193                     	;# 
  1143  0193                     	;# 
  1144  0193                     	;# 
  1145  0194                     	;# 
  1146  0195                     	;# 
  1147  0196                     	;# 
  1148  0199                     	;# 
  1149  019A                     	;# 
  1150  019B                     	;# 
  1151  019B                     	;# 
  1152  019C                     	;# 
  1153  019D                     	;# 
  1154  019E                     	;# 
  1155  019F                     	;# 
  1156  020C                     	;# 
  1157  020D                     	;# 
  1158  020E                     	;# 
  1159  0211                     	;# 
  1160  0211                     	;# 
  1161  0212                     	;# 
  1162  0212                     	;# 
  1163  0213                     	;# 
  1164  0213                     	;# 
  1165  0214                     	;# 
  1166  0214                     	;# 
  1167  0215                     	;# 
  1168  0215                     	;# 
  1169  0215                     	;# 
  1170  0216                     	;# 
  1171  0216                     	;# 
  1172  0217                     	;# 
  1173  0217                     	;# 
  1174  0219                     	;# 
  1175  021A                     	;# 
  1176  021B                     	;# 
  1177  021C                     	;# 
  1178  021D                     	;# 
  1179  021E                     	;# 
  1180  021F                     	;# 
  1181  0291                     	;# 
  1182  0291                     	;# 
  1183  0292                     	;# 
  1184  0293                     	;# 
  1185  0294                     	;# 
  1186  0295                     	;# 
  1187  0295                     	;# 
  1188  0296                     	;# 
  1189  0298                     	;# 
  1190  0298                     	;# 
  1191  0299                     	;# 
  1192  029A                     	;# 
  1193  029B                     	;# 
  1194  029C                     	;# 
  1195  029D                     	;# 
  1196  029E                     	;# 
  1197  0311                     	;# 
  1198  0311                     	;# 
  1199  0312                     	;# 
  1200  0313                     	;# 
  1201  0318                     	;# 
  1202  0318                     	;# 
  1203  0319                     	;# 
  1204  031A                     	;# 
  1205  038C                     	;# 
  1206  038D                     	;# 
  1207  038E                     	;# 
  1208  0391                     	;# 
  1209  0392                     	;# 
  1210  0393                     	;# 
  1211  0394                     	;# 
  1212  0395                     	;# 
  1213  0396                     	;# 
  1214  039A                     	;# 
  1215  039C                     	;# 
  1216  039D                     	;# 
  1217  039E                     	;# 
  1218  039F                     	;# 
  1219  0415                     	;# 
  1220  0416                     	;# 
  1221  0417                     	;# 
  1222  041C                     	;# 
  1223  041D                     	;# 
  1224  041E                     	;# 
  1225  0FE4                     	;# 
  1226  0FE5                     	;# 
  1227  0FE6                     	;# 
  1228  0FE7                     	;# 
  1229  0FE8                     	;# 
  1230  0FE9                     	;# 
  1231  0FEA                     	;# 
  1232  0FEB                     	;# 
  1233  0FED                     	;# 
  1234  0FEE                     	;# 
  1235  0FEF                     	;# 
  1236  0000                     	;# 
  1237  0001                     	;# 
  1238  0002                     	;# 
  1239  0003                     	;# 
  1240  0004                     	;# 
  1241  0005                     	;# 
  1242  0006                     	;# 
  1243  0007                     	;# 
  1244  0008                     	;# 
  1245  0009                     	;# 
  1246  000A                     	;# 
  1247  000B                     	;# 
  1248  000C                     	;# 
  1249  000D                     	;# 
  1250  000E                     	;# 
  1251  0011                     	;# 
  1252  0012                     	;# 
  1253  0013                     	;# 
  1254  0014                     	;# 
  1255  0015                     	;# 
  1256  0016                     	;# 
  1257  0016                     	;# 
  1258  0017                     	;# 
  1259  0018                     	;# 
  1260  0019                     	;# 
  1261  001A                     	;# 
  1262  001B                     	;# 
  1263  001C                     	;# 
  1264  001E                     	;# 
  1265  001F                     	;# 
  1266  008C                     	;# 
  1267  008D                     	;# 
  1268  008E                     	;# 
  1269  0091                     	;# 
  1270  0092                     	;# 
  1271  0093                     	;# 
  1272  0094                     	;# 
  1273  0095                     	;# 
  1274  0096                     	;# 
  1275  0097                     	;# 
  1276  0098                     	;# 
  1277  0099                     	;# 
  1278  009A                     	;# 
  1279  009B                     	;# 
  1280  009B                     	;# 
  1281  009C                     	;# 
  1282  009D                     	;# 
  1283  009E                     	;# 
  1284  010C                     	;# 
  1285  010D                     	;# 
  1286  010E                     	;# 
  1287  0111                     	;# 
  1288  0112                     	;# 
  1289  0113                     	;# 
  1290  0114                     	;# 
  1291  0115                     	;# 
  1292  0116                     	;# 
  1293  0117                     	;# 
  1294  0118                     	;# 
  1295  0119                     	;# 
  1296  011A                     	;# 
  1297  011B                     	;# 
  1298  011D                     	;# 
  1299  011E                     	;# 
  1300  018C                     	;# 
  1301  018D                     	;# 
  1302  018E                     	;# 
  1303  0191                     	;# 
  1304  0191                     	;# 
  1305  0192                     	;# 
  1306  0193                     	;# 
  1307  0193                     	;# 
  1308  0193                     	;# 
  1309  0194                     	;# 
  1310  0195                     	;# 
  1311  0196                     	;# 
  1312  0199                     	;# 
  1313  019A                     	;# 
  1314  019B                     	;# 
  1315  019B                     	;# 
  1316  019C                     	;# 
  1317  019D                     	;# 
  1318  019E                     	;# 
  1319  019F                     	;# 
  1320  020C                     	;# 
  1321  020D                     	;# 
  1322  020E                     	;# 
  1323  0211                     	;# 
  1324  0211                     	;# 
  1325  0212                     	;# 
  1326  0212                     	;# 
  1327  0213                     	;# 
  1328  0213                     	;# 
  1329  0214                     	;# 
  1330  0214                     	;# 
  1331  0215                     	;# 
  1332  0215                     	;# 
  1333  0215                     	;# 
  1334  0216                     	;# 
  1335  0216                     	;# 
  1336  0217                     	;# 
  1337  0217                     	;# 
  1338  0219                     	;# 
  1339  021A                     	;# 
  1340  021B                     	;# 
  1341  021C                     	;# 
  1342  021D                     	;# 
  1343  021E                     	;# 
  1344  021F                     	;# 
  1345  0291                     	;# 
  1346  0291                     	;# 
  1347  0292                     	;# 
  1348  0293                     	;# 
  1349  0294                     	;# 
  1350  0295                     	;# 
  1351  0295                     	;# 
  1352  0296                     	;# 
  1353  0298                     	;# 
  1354  0298                     	;# 
  1355  0299                     	;# 
  1356  029A                     	;# 
  1357  029B                     	;# 
  1358  029C                     	;# 
  1359  029D                     	;# 
  1360  029E                     	;# 
  1361  0311                     	;# 
  1362  0311                     	;# 
  1363  0312                     	;# 
  1364  0313                     	;# 
  1365  0318                     	;# 
  1366  0318                     	;# 
  1367  0319                     	;# 
  1368  031A                     	;# 
  1369  038C                     	;# 
  1370  038D                     	;# 
  1371  038E                     	;# 
  1372  0391                     	;# 
  1373  0392                     	;# 
  1374  0393                     	;# 
  1375  0394                     	;# 
  1376  0395                     	;# 
  1377  0396                     	;# 
  1378  039A                     	;# 
  1379  039C                     	;# 
  1380  039D                     	;# 
  1381  039E                     	;# 
  1382  039F                     	;# 
  1383  0415                     	;# 
  1384  0416                     	;# 
  1385  0417                     	;# 
  1386  041C                     	;# 
  1387  041D                     	;# 
  1388  041E                     	;# 
  1389  0FE4                     	;# 
  1390  0FE5                     	;# 
  1391  0FE6                     	;# 
  1392  0FE7                     	;# 
  1393  0FE8                     	;# 
  1394  0FE9                     	;# 
  1395  0FEA                     	;# 
  1396  0FEB                     	;# 
  1397  0FED                     	;# 
  1398  0FEE                     	;# 
  1399  0FEF                     	;# 
  1400  0000                     	;# 
  1401  0001                     	;# 
  1402  0002                     	;# 
  1403  0003                     	;# 
  1404  0004                     	;# 
  1405  0005                     	;# 
  1406  0006                     	;# 
  1407  0007                     	;# 
  1408  0008                     	;# 
  1409  0009                     	;# 
  1410  000A                     	;# 
  1411  000B                     	;# 
  1412  000C                     	;# 
  1413  000D                     	;# 
  1414  000E                     	;# 
  1415  0011                     	;# 
  1416  0012                     	;# 
  1417  0013                     	;# 
  1418  0014                     	;# 
  1419  0015                     	;# 
  1420  0016                     	;# 
  1421  0016                     	;# 
  1422  0017                     	;# 
  1423  0018                     	;# 
  1424  0019                     	;# 
  1425  001A                     	;# 
  1426  001B                     	;# 
  1427  001C                     	;# 
  1428  001E                     	;# 
  1429  001F                     	;# 
  1430  008C                     	;# 
  1431  008D                     	;# 
  1432  008E                     	;# 
  1433  0091                     	;# 
  1434  0092                     	;# 
  1435  0093                     	;# 
  1436  0094                     	;# 
  1437  0095                     	;# 
  1438  0096                     	;# 
  1439  0097                     	;# 
  1440  0098                     	;# 
  1441  0099                     	;# 
  1442  009A                     	;# 
  1443  009B                     	;# 
  1444  009B                     	;# 
  1445  009C                     	;# 
  1446  009D                     	;# 
  1447  009E                     	;# 
  1448  010C                     	;# 
  1449  010D                     	;# 
  1450  010E                     	;# 
  1451  0111                     	;# 
  1452  0112                     	;# 
  1453  0113                     	;# 
  1454  0114                     	;# 
  1455  0115                     	;# 
  1456  0116                     	;# 
  1457  0117                     	;# 
  1458  0118                     	;# 
  1459  0119                     	;# 
  1460  011A                     	;# 
  1461  011B                     	;# 
  1462  011D                     	;# 
  1463  011E                     	;# 
  1464  018C                     	;# 
  1465  018D                     	;# 
  1466  018E                     	;# 
  1467  0191                     	;# 
  1468  0191                     	;# 
  1469  0192                     	;# 
  1470  0193                     	;# 
  1471  0193                     	;# 
  1472  0193                     	;# 
  1473  0194                     	;# 
  1474  0195                     	;# 
  1475  0196                     	;# 
  1476  0199                     	;# 
  1477  019A                     	;# 
  1478  019B                     	;# 
  1479  019B                     	;# 
  1480  019C                     	;# 
  1481  019D                     	;# 
  1482  019E                     	;# 
  1483  019F                     	;# 
  1484  020C                     	;# 
  1485  020D                     	;# 
  1486  020E                     	;# 
  1487  0211                     	;# 
  1488  0211                     	;# 
  1489  0212                     	;# 
  1490  0212                     	;# 
  1491  0213                     	;# 
  1492  0213                     	;# 
  1493  0214                     	;# 
  1494  0214                     	;# 
  1495  0215                     	;# 
  1496  0215                     	;# 
  1497  0215                     	;# 
  1498  0216                     	;# 
  1499  0216                     	;# 
  1500  0217                     	;# 
  1501  0217                     	;# 
  1502  0219                     	;# 
  1503  021A                     	;# 
  1504  021B                     	;# 
  1505  021C                     	;# 
  1506  021D                     	;# 
  1507  021E                     	;# 
  1508  021F                     	;# 
  1509  0291                     	;# 
  1510  0291                     	;# 
  1511  0292                     	;# 
  1512  0293                     	;# 
  1513  0294                     	;# 
  1514  0295                     	;# 
  1515  0295                     	;# 
  1516  0296                     	;# 
  1517  0298                     	;# 
  1518  0298                     	;# 
  1519  0299                     	;# 
  1520  029A                     	;# 
  1521  029B                     	;# 
  1522  029C                     	;# 
  1523  029D                     	;# 
  1524  029E                     	;# 
  1525  0311                     	;# 
  1526  0311                     	;# 
  1527  0312                     	;# 
  1528  0313                     	;# 
  1529  0318                     	;# 
  1530  0318                     	;# 
  1531  0319                     	;# 
  1532  031A                     	;# 
  1533  038C                     	;# 
  1534  038D                     	;# 
  1535  038E                     	;# 
  1536  0391                     	;# 
  1537  0392                     	;# 
  1538  0393                     	;# 
  1539  0394                     	;# 
  1540  0395                     	;# 
  1541  0396                     	;# 
  1542  039A                     	;# 
  1543  039C                     	;# 
  1544  039D                     	;# 
  1545  039E                     	;# 
  1546  039F                     	;# 
  1547  0415                     	;# 
  1548  0416                     	;# 
  1549  0417                     	;# 
  1550  041C                     	;# 
  1551  041D                     	;# 
  1552  041E                     	;# 
  1553  0FE4                     	;# 
  1554  0FE5                     	;# 
  1555  0FE6                     	;# 
  1556  0FE7                     	;# 
  1557  0FE8                     	;# 
  1558  0FE9                     	;# 
  1559  0FEA                     	;# 
  1560  0FEB                     	;# 
  1561  0FED                     	;# 
  1562  0FEE                     	;# 
  1563  0FEF                     	;# 
  1564  0000                     	;# 
  1565  0001                     	;# 
  1566  0002                     	;# 
  1567  0003                     	;# 
  1568  0004                     	;# 
  1569  0005                     	;# 
  1570  0006                     	;# 
  1571  0007                     	;# 
  1572  0008                     	;# 
  1573  0009                     	;# 
  1574  000A                     	;# 
  1575  000B                     	;# 
  1576  000C                     	;# 
  1577  000D                     	;# 
  1578  000E                     	;# 
  1579  0011                     	;# 
  1580  0012                     	;# 
  1581  0013                     	;# 
  1582  0014                     	;# 
  1583  0015                     	;# 
  1584  0016                     	;# 
  1585  0016                     	;# 
  1586  0017                     	;# 
  1587  0018                     	;# 
  1588  0019                     	;# 
  1589  001A                     	;# 
  1590  001B                     	;# 
  1591  001C                     	;# 
  1592  001E                     	;# 
  1593  001F                     	;# 
  1594  008C                     	;# 
  1595  008D                     	;# 
  1596  008E                     	;# 
  1597  0091                     	;# 
  1598  0092                     	;# 
  1599  0093                     	;# 
  1600  0094                     	;# 
  1601  0095                     	;# 
  1602  0096                     	;# 
  1603  0097                     	;# 
  1604  0098                     	;# 
  1605  0099                     	;# 
  1606  009A                     	;# 
  1607  009B                     	;# 
  1608  009B                     	;# 
  1609  009C                     	;# 
  1610  009D                     	;# 
  1611  009E                     	;# 
  1612  010C                     	;# 
  1613  010D                     	;# 
  1614  010E                     	;# 
  1615  0111                     	;# 
  1616  0112                     	;# 
  1617  0113                     	;# 
  1618  0114                     	;# 
  1619  0115                     	;# 
  1620  0116                     	;# 
  1621  0117                     	;# 
  1622  0118                     	;# 
  1623  0119                     	;# 
  1624  011A                     	;# 
  1625  011B                     	;# 
  1626  011D                     	;# 
  1627  011E                     	;# 
  1628  018C                     	;# 
  1629  018D                     	;# 
  1630  018E                     	;# 
  1631  0191                     	;# 
  1632  0191                     	;# 
  1633  0192                     	;# 
  1634  0193                     	;# 
  1635  0193                     	;# 
  1636  0193                     	;# 
  1637  0194                     	;# 
  1638  0195                     	;# 
  1639  0196                     	;# 
  1640  0199                     	;# 
  1641  019A                     	;# 
  1642  019B                     	;# 
  1643  019B                     	;# 
  1644  019C                     	;# 
  1645  019D                     	;# 
  1646  019E                     	;# 
  1647  019F                     	;# 
  1648  020C                     	;# 
  1649  020D                     	;# 
  1650  020E                     	;# 
  1651  0211                     	;# 
  1652  0211                     	;# 
  1653  0212                     	;# 
  1654  0212                     	;# 
  1655  0213                     	;# 
  1656  0213                     	;# 
  1657  0214                     	;# 
  1658  0214                     	;# 
  1659  0215                     	;# 
  1660  0215                     	;# 
  1661  0215                     	;# 
  1662  0216                     	;# 
  1663  0216                     	;# 
  1664  0217                     	;# 
  1665  0217                     	;# 
  1666  0219                     	;# 
  1667  021A                     	;# 
  1668  021B                     	;# 
  1669  021C                     	;# 
  1670  021D                     	;# 
  1671  021E                     	;# 
  1672  021F                     	;# 
  1673  0291                     	;# 
  1674  0291                     	;# 
  1675  0292                     	;# 
  1676  0293                     	;# 
  1677  0294                     	;# 
  1678  0295                     	;# 
  1679  0295                     	;# 
  1680  0296                     	;# 
  1681  0298                     	;# 
  1682  0298                     	;# 
  1683  0299                     	;# 
  1684  029A                     	;# 
  1685  029B                     	;# 
  1686  029C                     	;# 
  1687  029D                     	;# 
  1688  029E                     	;# 
  1689  0311                     	;# 
  1690  0311                     	;# 
  1691  0312                     	;# 
  1692  0313                     	;# 
  1693  0318                     	;# 
  1694  0318                     	;# 
  1695  0319                     	;# 
  1696  031A                     	;# 
  1697  038C                     	;# 
  1698  038D                     	;# 
  1699  038E                     	;# 
  1700  0391                     	;# 
  1701  0392                     	;# 
  1702  0393                     	;# 
  1703  0394                     	;# 
  1704  0395                     	;# 
  1705  0396                     	;# 
  1706  039A                     	;# 
  1707  039C                     	;# 
  1708  039D                     	;# 
  1709  039E                     	;# 
  1710  039F                     	;# 
  1711  0415                     	;# 
  1712  0416                     	;# 
  1713  0417                     	;# 
  1714  041C                     	;# 
  1715  041D                     	;# 
  1716  041E                     	;# 
  1717  0FE4                     	;# 
  1718  0FE5                     	;# 
  1719  0FE6                     	;# 
  1720  0FE7                     	;# 
  1721  0FE8                     	;# 
  1722  0FE9                     	;# 
  1723  0FEA                     	;# 
  1724  0FEB                     	;# 
  1725  0FED                     	;# 
  1726  0FEE                     	;# 
  1727  0FEF                     	;# 
  1728  0000                     	;# 
  1729  0001                     	;# 
  1730  0002                     	;# 
  1731  0003                     	;# 
  1732  0004                     	;# 
  1733  0005                     	;# 
  1734  0006                     	;# 
  1735  0007                     	;# 
  1736  0008                     	;# 
  1737  0009                     	;# 
  1738  000A                     	;# 
  1739  000B                     	;# 
  1740  000C                     	;# 
  1741  000D                     	;# 
  1742  000E                     	;# 
  1743  0011                     	;# 
  1744  0012                     	;# 
  1745  0013                     	;# 
  1746  0014                     	;# 
  1747  0015                     	;# 
  1748  0016                     	;# 
  1749  0016                     	;# 
  1750  0017                     	;# 
  1751  0018                     	;# 
  1752  0019                     	;# 
  1753  001A                     	;# 
  1754  001B                     	;# 
  1755  001C                     	;# 
  1756  001E                     	;# 
  1757  001F                     	;# 
  1758  008C                     	;# 
  1759  008D                     	;# 
  1760  008E                     	;# 
  1761  0091                     	;# 
  1762  0092                     	;# 
  1763  0093                     	;# 
  1764  0094                     	;# 
  1765  0095                     	;# 
  1766  0096                     	;# 
  1767  0097                     	;# 
  1768  0098                     	;# 
  1769  0099                     	;# 
  1770  009A                     	;# 
  1771  009B                     	;# 
  1772  009B                     	;# 
  1773  009C                     	;# 
  1774  009D                     	;# 
  1775  009E                     	;# 
  1776  010C                     	;# 
  1777  010D                     	;# 
  1778  010E                     	;# 
  1779  0111                     	;# 
  1780  0112                     	;# 
  1781  0113                     	;# 
  1782  0114                     	;# 
  1783  0115                     	;# 
  1784  0116                     	;# 
  1785  0117                     	;# 
  1786  0118                     	;# 
  1787  0119                     	;# 
  1788  011A                     	;# 
  1789  011B                     	;# 
  1790  011D                     	;# 
  1791  011E                     	;# 
  1792  018C                     	;# 
  1793  018D                     	;# 
  1794  018E                     	;# 
  1795  0191                     	;# 
  1796  0191                     	;# 
  1797  0192                     	;# 
  1798  0193                     	;# 
  1799  0193                     	;# 
  1800  0193                     	;# 
  1801  0194                     	;# 
  1802  0195                     	;# 
  1803  0196                     	;# 
  1804  0199                     	;# 
  1805  019A                     	;# 
  1806  019B                     	;# 
  1807  019B                     	;# 
  1808  019C                     	;# 
  1809  019D                     	;# 
  1810  019E                     	;# 
  1811  019F                     	;# 
  1812  020C                     	;# 
  1813  020D                     	;# 
  1814  020E                     	;# 
  1815  0211                     	;# 
  1816  0211                     	;# 
  1817  0212                     	;# 
  1818  0212                     	;# 
  1819  0213                     	;# 
  1820  0213                     	;# 
  1821  0214                     	;# 
  1822  0214                     	;# 
  1823  0215                     	;# 
  1824  0215                     	;# 
  1825  0215                     	;# 
  1826  0216                     	;# 
  1827  0216                     	;# 
  1828  0217                     	;# 
  1829  0217                     	;# 
  1830  0219                     	;# 
  1831  021A                     	;# 
  1832  021B                     	;# 
  1833  021C                     	;# 
  1834  021D                     	;# 
  1835  021E                     	;# 
  1836  021F                     	;# 
  1837  0291                     	;# 
  1838  0291                     	;# 
  1839  0292                     	;# 
  1840  0293                     	;# 
  1841  0294                     	;# 
  1842  0295                     	;# 
  1843  0295                     	;# 
  1844  0296                     	;# 
  1845  0298                     	;# 
  1846  0298                     	;# 
  1847  0299                     	;# 
  1848  029A                     	;# 
  1849  029B                     	;# 
  1850  029C                     	;# 
  1851  029D                     	;# 
  1852  029E                     	;# 
  1853  0311                     	;# 
  1854  0311                     	;# 
  1855  0312                     	;# 
  1856  0313                     	;# 
  1857  0318                     	;# 
  1858  0318                     	;# 
  1859  0319                     	;# 
  1860  031A                     	;# 
  1861  038C                     	;# 
  1862  038D                     	;# 
  1863  038E                     	;# 
  1864  0391                     	;# 
  1865  0392                     	;# 
  1866  0393                     	;# 
  1867  0394                     	;# 
  1868  0395                     	;# 
  1869  0396                     	;# 
  1870  039A                     	;# 
  1871  039C                     	;# 
  1872  039D                     	;# 
  1873  039E                     	;# 
  1874  039F                     	;# 
  1875  0415                     	;# 
  1876  0416                     	;# 
  1877  0417                     	;# 
  1878  041C                     	;# 
  1879  041D                     	;# 
  1880  041E                     	;# 
  1881  0FE4                     	;# 
  1882  0FE5                     	;# 
  1883  0FE6                     	;# 
  1884  0FE7                     	;# 
  1885  0FE8                     	;# 
  1886  0FE9                     	;# 
  1887  0FEA                     	;# 
  1888  0FEB                     	;# 
  1889  0FED                     	;# 
  1890  0FEE                     	;# 
  1891  0FEF                     	;# 
  1892  0000                     	;# 
  1893  0001                     	;# 
  1894  0002                     	;# 
  1895  0003                     	;# 
  1896  0004                     	;# 
  1897  0005                     	;# 
  1898  0006                     	;# 
  1899  0007                     	;# 
  1900  0008                     	;# 
  1901  0009                     	;# 
  1902  000A                     	;# 
  1903  000B                     	;# 
  1904  000C                     	;# 
  1905  000D                     	;# 
  1906  000E                     	;# 
  1907  0011                     	;# 
  1908  0012                     	;# 
  1909  0013                     	;# 
  1910  0014                     	;# 
  1911  0015                     	;# 
  1912  0016                     	;# 
  1913  0016                     	;# 
  1914  0017                     	;# 
  1915  0018                     	;# 
  1916  0019                     	;# 
  1917  001A                     	;# 
  1918  001B                     	;# 
  1919  001C                     	;# 
  1920  001E                     	;# 
  1921  001F                     	;# 
  1922  008C                     	;# 
  1923  008D                     	;# 
  1924  008E                     	;# 
  1925  0091                     	;# 
  1926  0092                     	;# 
  1927  0093                     	;# 
  1928  0094                     	;# 
  1929  0095                     	;# 
  1930  0096                     	;# 
  1931  0097                     	;# 
  1932  0098                     	;# 
  1933  0099                     	;# 
  1934  009A                     	;# 
  1935  009B                     	;# 
  1936  009B                     	;# 
  1937  009C                     	;# 
  1938  009D                     	;# 
  1939  009E                     	;# 
  1940  010C                     	;# 
  1941  010D                     	;# 
  1942  010E                     	;# 
  1943  0111                     	;# 
  1944  0112                     	;# 
  1945  0113                     	;# 
  1946  0114                     	;# 
  1947  0115                     	;# 
  1948  0116                     	;# 
  1949  0117                     	;# 
  1950  0118                     	;# 
  1951  0119                     	;# 
  1952  011A                     	;# 
  1953  011B                     	;# 
  1954  011D                     	;# 
  1955  011E                     	;# 
  1956  018C                     	;# 
  1957  018D                     	;# 
  1958  018E                     	;# 
  1959  0191                     	;# 
  1960  0191                     	;# 
  1961  0192                     	;# 
  1962  0193                     	;# 
  1963  0193                     	;# 
  1964  0193                     	;# 
  1965  0194                     	;# 
  1966  0195                     	;# 
  1967  0196                     	;# 
  1968  0199                     	;# 
  1969  019A                     	;# 
  1970  019B                     	;# 
  1971  019B                     	;# 
  1972  019C                     	;# 
  1973  019D                     	;# 
  1974  019E                     	;# 
  1975  019F                     	;# 
  1976  020C                     	;# 
  1977  020D                     	;# 
  1978  020E                     	;# 
  1979  0211                     	;# 
  1980  0211                     	;# 
  1981  0212                     	;# 
  1982  0212                     	;# 
  1983  0213                     	;# 
  1984  0213                     	;# 
  1985  0214                     	;# 
  1986  0214                     	;# 
  1987  0215                     	;# 
  1988  0215                     	;# 
  1989  0215                     	;# 
  1990  0216                     	;# 
  1991  0216                     	;# 
  1992  0217                     	;# 
  1993  0217                     	;# 
  1994  0219                     	;# 
  1995  021A                     	;# 
  1996  021B                     	;# 
  1997  021C                     	;# 
  1998  021D                     	;# 
  1999  021E                     	;# 
  2000  021F                     	;# 
  2001  0291                     	;# 
  2002  0291                     	;# 
  2003  0292                     	;# 
  2004  0293                     	;# 
  2005  0294                     	;# 
  2006  0295                     	;# 
  2007  0295                     	;# 
  2008  0296                     	;# 
  2009  0298                     	;# 
  2010  0298                     	;# 
  2011  0299                     	;# 
  2012  029A                     	;# 
  2013  029B                     	;# 
  2014  029C                     	;# 
  2015  029D                     	;# 
  2016  029E                     	;# 
  2017  0311                     	;# 
  2018  0311                     	;# 
  2019  0312                     	;# 
  2020  0313                     	;# 
  2021  0318                     	;# 
  2022  0318                     	;# 
  2023  0319                     	;# 
  2024  031A                     	;# 
  2025  038C                     	;# 
  2026  038D                     	;# 
  2027  038E                     	;# 
  2028  0391                     	;# 
  2029  0392                     	;# 
  2030  0393                     	;# 
  2031  0394                     	;# 
  2032  0395                     	;# 
  2033  0396                     	;# 
  2034  039A                     	;# 
  2035  039C                     	;# 
  2036  039D                     	;# 
  2037  039E                     	;# 
  2038  039F                     	;# 
  2039  0415                     	;# 
  2040  0416                     	;# 
  2041  0417                     	;# 
  2042  041C                     	;# 
  2043  041D                     	;# 
  2044  041E                     	;# 
  2045  0FE4                     	;# 
  2046  0FE5                     	;# 
  2047  0FE6                     	;# 
  2048  0FE7                     	;# 
  2049  0FE8                     	;# 
  2050  0FE9                     	;# 
  2051  0FEA                     	;# 
  2052  0FEB                     	;# 
  2053  0FED                     	;# 
  2054  0FEE                     	;# 
  2055  0FEF                     	;# 
  2056                           
  2057 ;; Function _EUSART_DefaultFramingErrorHandler is unused but had its address taken
  2058  0000                     
  2059 ;; Function _EUSART_DefaultOverrunErrorHandler is unused but had its address taken
  2060  0000                     
  2061 ;; Function _EUSART_DefaultErrorHandler is unused but had its address taken
  2062  0000                     
  2063                           	psect	idataBANK0
  2064  03CD                     __pidataBANK0:
  2065                           
  2066                           ;initializer for _Dis_cm
  2067  03CD  3414               	retlw	20
  2068  03CE  3400               	retlw	0
  2069                           
  2070                           	psect	nvCOMMON
  2071  007C                     __pnvCOMMON:
  2072  007C                     _timer0ReloadVal:
  2073  007C                     	ds	1
  2074                           
  2075                           	psect	nvBANK0
  2076  003B                     __pnvBANK0:
  2077  003B                     _EUSART_ErrorHandler:
  2078  003B                     	ds	2
  2079  003D                     _EUSART_OverrunErrorHandler:
  2080  003D                     	ds	2
  2081  003F                     _EUSART_FramingErrorHandler:
  2082  003F                     	ds	2
  2083  000E                     _PORTCbits	set	14
  2084  000D                     _PORTBbits	set	13
  2085  0013                     _PIR3bits	set	19
  2086  000B                     _INTCONbits	set	11
  2087  0015                     _TMR0	set	21
  2088  001C                     _T2CONbits	set	28
  2089  001C                     _T2CON	set	28
  2090  0011                     _PIR1bits	set	17
  2091  001A                     _TMR2	set	26
  2092  001B                     _PR2	set	27
  2093  0095                     _OPTION_REG	set	149
  2094  009D                     _ADCON0bits	set	157
  2095  009D                     _ADCON0	set	157
  2096  009C                     _ADRESH	set	156
  2097  009B                     _ADRESL	set	155
  2098  009E                     _ADCON1	set	158
  2099  0095                     _OPTION_REGbits	set	149
  2100  008E                     _TRISC	set	142
  2101  008D                     _TRISB	set	141
  2102  008C                     _TRISA	set	140
  2103  0097                     _WDTCON	set	151
  2104  0098                     _OSCTUNE	set	152
  2105  0099                     _OSCCON	set	153
  2106  010E                     _LATCbits	set	270
  2107  011E                     _APFCON1	set	286
  2108  011D                     _APFCON0	set	285
  2109  010E                     _LATC	set	270
  2110  010D                     _LATB	set	269
  2111  010C                     _LATA	set	268
  2112  0116                     _BORCON	set	278
  2113  019A                     _TXREG	set	410
  2114  0199                     _RCREG	set	409
  2115  019D                     _RCSTAbits	set	413
  2116  019E                     _TXSTAbits	set	414
  2117  019C                     _SPBRGH	set	412
  2118  019B                     _SPBRGL	set	411
  2119  019E                     _TXSTA	set	414
  2120  019D                     _RCSTA	set	413
  2121  019F                     _BAUDCON	set	415
  2122  018C                     _ANSELA	set	396
  2123  018D                     _ANSELB	set	397
  2124  018E                     _ANSELC	set	398
  2125  020E                     _WPUC	set	526
  2126  020C                     _WPUA	set	524
  2127  020D                     _WPUB	set	525
  2128  0291                     _CCPR1L	set	657
  2129  0292                     _CCPR1H	set	658
  2130  0296                     _PSTR1CON	set	662
  2131  0294                     _PWM1CON	set	660
  2132  0295                     _ECCP1AS	set	661
  2133  0293                     _CCP1CON	set	659
  2134  029E                     _CCPTMRSbits	set	670
  2135  0319                     _CCPR4H	set	793
  2136  0318                     _CCPR4L	set	792
  2137  031A                     _CCP4CON	set	794
  2138  0312                     _CCPR3H	set	786
  2139  0311                     _CCPR3L	set	785
  2140  0313                     _CCP3CON	set	787
  2141  0417                     _T4CONbits	set	1047
  2142  0417                     _T4CON	set	1047
  2143  0415                     _TMR4	set	1045
  2144  0416                     _PR4	set	1046
  2145                           
  2146                           	psect	cinit
  2147  07EB                     start_initialization:	
  2148                           ; #config settings
  2149                           
  2150  07EB                     __initialization:
  2151                           
  2152                           ; Initialize objects allocated to BANK0
  2153  07EB  3183  23CD  3187   	fcall	__pidataBANK0	;fetch initializer
  2154  07EE  00C1               	movwf	__pdataBANK0& (0+127)
  2155  07EF  3183  23CE  3187   	fcall	__pidataBANK0+1	;fetch initializer
  2156  07F2  00C2               	movwf	(__pdataBANK0+1)& (0+127)
  2157                           
  2158                           ; Clear objects allocated to COMMON
  2159  07F3  01FD               	clrf	__pbssCOMMON& (0+127)
  2160                           
  2161                           ; Clear objects allocated to BANK0
  2162  07F4  01B2               	clrf	__pbssBANK0& (0+127)
  2163  07F5  01B3               	clrf	(__pbssBANK0+1)& (0+127)
  2164  07F6  01B4               	clrf	(__pbssBANK0+2)& (0+127)
  2165  07F7  01B5               	clrf	(__pbssBANK0+3)& (0+127)
  2166  07F8  01B6               	clrf	(__pbssBANK0+4)& (0+127)
  2167  07F9  01B7               	clrf	(__pbssBANK0+5)& (0+127)
  2168  07FA  01B8               	clrf	(__pbssBANK0+6)& (0+127)
  2169  07FB  01B9               	clrf	(__pbssBANK0+7)& (0+127)
  2170  07FC  01BA               	clrf	(__pbssBANK0+8)& (0+127)
  2171  07FD                     end_of_initialization:	
  2172                           ;End of C runtime variable initialization code
  2173                           
  2174  07FD                     __end_of__initialization:
  2175  07FD  0020               	movlb	0
  2176  07FE  3186  2E7D         	ljmp	_main	;jump to C main() function
  2177                           
  2178                           	psect	bssCOMMON
  2179  007D                     __pbssCOMMON:
  2180  007D                     _eusartRxLastError:
  2181  007D                     	ds	1
  2182                           
  2183                           	psect	bssBANK0
  2184  0032                     __pbssBANK0:
  2185  0032                     _state:
  2186  0032                     	ds	2
  2187  0034                     _b:
  2188  0034                     	ds	2
  2189  0036                     _a:
  2190  0036                     	ds	2
  2191  0038                     _ADC_InterruptHandler:
  2192  0038                     	ds	2
  2193  003A                     _value:
  2194  003A                     	ds	1
  2195                           
  2196                           	psect	dataBANK0
  2197  0041                     __pdataBANK0:
  2198  0041                     _Dis_cm:
  2199  0041                     	ds	2
  2200                           
  2201                           	psect	cstackCOMMON
  2202  0070                     __pcstackCOMMON:
  2203  0070                     ?_PIN_MANAGER_Initialize:
  2204  0070                     ??_PIN_MANAGER_Initialize:	
  2205                           ; 1 bytes @ 0x0
  2206                           
  2207  0070                     ?_OSCILLATOR_Initialize:	
  2208                           ; 1 bytes @ 0x0
  2209                           
  2210  0070                     ??_OSCILLATOR_Initialize:	
  2211                           ; 1 bytes @ 0x0
  2212                           
  2213  0070                     ?_WDT_Initialize:	
  2214                           ; 1 bytes @ 0x0
  2215                           
  2216  0070                     ??_WDT_Initialize:	
  2217                           ; 1 bytes @ 0x0
  2218                           
  2219  0070                     ?_ADC_Initialize:	
  2220                           ; 1 bytes @ 0x0
  2221                           
  2222  0070                     ??_ADC_Initialize:	
  2223                           ; 1 bytes @ 0x0
  2224                           
  2225  0070                     ?_EPWM1_Initialize:	
  2226                           ; 1 bytes @ 0x0
  2227                           
  2228  0070                     ??_EPWM1_Initialize:	
  2229                           ; 1 bytes @ 0x0
  2230                           
  2231  0070                     ?_TMR4_Initialize:	
  2232                           ; 1 bytes @ 0x0
  2233                           
  2234  0070                     ??_TMR4_Initialize:	
  2235                           ; 1 bytes @ 0x0
  2236                           
  2237  0070                     ?_PWM4_Initialize:	
  2238                           ; 1 bytes @ 0x0
  2239                           
  2240  0070                     ??_PWM4_Initialize:	
  2241                           ; 1 bytes @ 0x0
  2242                           
  2243  0070                     ?_PWM3_Initialize:	
  2244                           ; 1 bytes @ 0x0
  2245                           
  2246  0070                     ??_PWM3_Initialize:	
  2247                           ; 1 bytes @ 0x0
  2248                           
  2249  0070                     ?_TMR2_Initialize:	
  2250                           ; 1 bytes @ 0x0
  2251                           
  2252  0070                     ??_TMR2_Initialize:	
  2253                           ; 1 bytes @ 0x0
  2254                           
  2255  0070                     ?_TMR0_Initialize:	
  2256                           ; 1 bytes @ 0x0
  2257                           
  2258  0070                     ??_TMR0_Initialize:	
  2259                           ; 1 bytes @ 0x0
  2260                           
  2261  0070                     ?_EUSART_Initialize:	
  2262                           ; 1 bytes @ 0x0
  2263                           
  2264  0070                     ?_EUSART_SetFramingErrorHandler:	
  2265                           ; 1 bytes @ 0x0
  2266                           
  2267  0070                     ?_EUSART_SetOverrunErrorHandler:	
  2268                           ; 1 bytes @ 0x0
  2269                           
  2270  0070                     ?_EUSART_SetErrorHandler:	
  2271                           ; 1 bytes @ 0x0
  2272                           
  2273  0070                     ?_SYSTEM_Initialize:	
  2274                           ; 1 bytes @ 0x0
  2275                           
  2276  0070                     ?_PWM3_LoadDutyValue:	
  2277                           ; 1 bytes @ 0x0
  2278                           
  2279  0070                     ?_PWM4_LoadDutyValue:	
  2280                           ; 1 bytes @ 0x0
  2281                           
  2282  0070                     ?_EUSART_is_rx_ready:	
  2283                           ; 1 bytes @ 0x0
  2284                           
  2285  0070                     ??_EUSART_is_rx_ready:	
  2286                           ; 1 bytes @ 0x0
  2287                           
  2288  0070                     ?_EUSART_Read:	
  2289                           ; 1 bytes @ 0x0
  2290                           
  2291  0070                     ??_EUSART_Read:	
  2292                           ; 1 bytes @ 0x0
  2293                           
  2294  0070                     ?_EPWM1_LoadDutyValue:	
  2295                           ; 1 bytes @ 0x0
  2296                           
  2297  0070                     ?_di_thang:	
  2298                           ; 1 bytes @ 0x0
  2299                           
  2300  0070                     ?_di_thang_nhanh:	
  2301                           ; 1 bytes @ 0x0
  2302                           
  2303  0070                     ?_dung_lai:	
  2304                           ; 1 bytes @ 0x0
  2305                           
  2306  0070                     ?_rephai:	
  2307                           ; 1 bytes @ 0x0
  2308                           
  2309  0070                     ?_retrai:	
  2310                           ; 1 bytes @ 0x0
  2311                           
  2312  0070                     ?_retrai2:	
  2313                           ; 1 bytes @ 0x0
  2314                           
  2315  0070                     ?_rephai2:	
  2316                           ; 1 bytes @ 0x0
  2317                           
  2318  0070                     ?_retrai3:	
  2319                           ; 1 bytes @ 0x0
  2320                           
  2321  0070                     ?_retrainhanh:	
  2322                           ; 1 bytes @ 0x0
  2323                           
  2324  0070                     ?_rephainhanh:	
  2325                           ; 1 bytes @ 0x0
  2326                           
  2327  0070                     ?_lui:	
  2328                           ; 1 bytes @ 0x0
  2329                           
  2330  0070                     ?_lui_nhanh:	
  2331                           ; 1 bytes @ 0x0
  2332                           
  2333  0070                     ?_main:	
  2334                           ; 1 bytes @ 0x0
  2335                           
  2336  0070                     ?___wmul:	
  2337                           ; 1 bytes @ 0x0
  2338                           
  2339  0070                     PWM3_LoadDutyValue@dutyValue:	
  2340                           ; 2 bytes @ 0x0
  2341                           
  2342  0070                     PWM4_LoadDutyValue@dutyValue:	
  2343                           ; 2 bytes @ 0x0
  2344                           
  2345  0070                     EUSART_SetFramingErrorHandler@interruptHandler:	
  2346                           ; 2 bytes @ 0x0
  2347                           
  2348  0070                     EUSART_SetOverrunErrorHandler@interruptHandler:	
  2349                           ; 2 bytes @ 0x0
  2350                           
  2351  0070                     EUSART_SetErrorHandler@interruptHandler:	
  2352                           ; 2 bytes @ 0x0
  2353                           
  2354  0070                     EPWM1_LoadDutyValue@dutyValue:	
  2355                           ; 2 bytes @ 0x0
  2356                           
  2357  0070                     ___wmul@multiplier:	
  2358                           ; 2 bytes @ 0x0
  2359                           
  2360                           
  2361                           ; 2 bytes @ 0x0
  2362  0070                     	ds	2
  2363  0072                     ??_EUSART_Initialize:
  2364  0072                     ??_EUSART_SetFramingErrorHandler:	
  2365                           ; 1 bytes @ 0x2
  2366                           
  2367  0072                     ??_EUSART_SetOverrunErrorHandler:	
  2368                           ; 1 bytes @ 0x2
  2369                           
  2370  0072                     ??_EUSART_SetErrorHandler:	
  2371                           ; 1 bytes @ 0x2
  2372                           
  2373  0072                     ??_SYSTEM_Initialize:	
  2374                           ; 1 bytes @ 0x2
  2375                           
  2376  0072                     ??_PWM3_LoadDutyValue:	
  2377                           ; 1 bytes @ 0x2
  2378                           
  2379  0072                     ??_PWM4_LoadDutyValue:	
  2380                           ; 1 bytes @ 0x2
  2381                           
  2382  0072                     ??_EPWM1_LoadDutyValue:	
  2383                           ; 1 bytes @ 0x2
  2384                           
  2385  0072                     ___wmul@multiplicand:	
  2386                           ; 1 bytes @ 0x2
  2387                           
  2388                           
  2389                           ; 2 bytes @ 0x2
  2390  0072                     	ds	2
  2391  0074                     ??_di_thang:
  2392  0074                     ??_di_thang_nhanh:	
  2393                           ; 1 bytes @ 0x4
  2394                           
  2395  0074                     ??_dung_lai:	
  2396                           ; 1 bytes @ 0x4
  2397                           
  2398  0074                     ??_rephai:	
  2399                           ; 1 bytes @ 0x4
  2400                           
  2401  0074                     ??_retrai:	
  2402                           ; 1 bytes @ 0x4
  2403                           
  2404  0074                     ??_retrai2:	
  2405                           ; 1 bytes @ 0x4
  2406                           
  2407  0074                     ??_rephai2:	
  2408                           ; 1 bytes @ 0x4
  2409                           
  2410  0074                     ??_retrai3:	
  2411                           ; 1 bytes @ 0x4
  2412                           
  2413  0074                     ??_retrainhanh:	
  2414                           ; 1 bytes @ 0x4
  2415                           
  2416  0074                     ??_rephainhanh:	
  2417                           ; 1 bytes @ 0x4
  2418                           
  2419  0074                     ??_lui:	
  2420                           ; 1 bytes @ 0x4
  2421                           
  2422  0074                     ??_lui_nhanh:	
  2423                           ; 1 bytes @ 0x4
  2424                           
  2425  0074                     ??___wmul:	
  2426                           ; 1 bytes @ 0x4
  2427                           
  2428  0074                     ___wmul@product:	
  2429                           ; 1 bytes @ 0x4
  2430                           
  2431                           
  2432                           ; 2 bytes @ 0x4
  2433  0074                     	ds	2
  2434  0076                     ?___awdiv:
  2435  0076                     ___awdiv@divisor:	
  2436                           ; 2 bytes @ 0x6
  2437                           
  2438                           
  2439                           ; 2 bytes @ 0x6
  2440  0076                     	ds	2
  2441  0078                     ___awdiv@dividend:
  2442                           
  2443                           ; 2 bytes @ 0x8
  2444  0078                     	ds	2
  2445  007A                     ??___awdiv:
  2446                           
  2447                           ; 1 bytes @ 0xA
  2448  007A                     	ds	1
  2449  007B                     ??_map:
  2450  007B                     ??_main:	
  2451                           ; 1 bytes @ 0xB
  2452                           
  2453                           
  2454                           ; 1 bytes @ 0xB
  2455  007B                     	ds	1
  2456                           
  2457                           	psect	cstackBANK0
  2458  0020                     __pcstackBANK0:
  2459  0020                     ___awdiv@counter:
  2460                           
  2461                           ; 1 bytes @ 0x0
  2462  0020                     	ds	1
  2463  0021                     ___awdiv@sign:
  2464                           
  2465                           ; 1 bytes @ 0x1
  2466  0021                     	ds	1
  2467  0022                     ___awdiv@quotient:
  2468                           
  2469                           ; 2 bytes @ 0x2
  2470  0022                     	ds	2
  2471  0024                     ?_map:
  2472  0024                     map@value:	
  2473                           ; 2 bytes @ 0x4
  2474                           
  2475                           
  2476                           ; 2 bytes @ 0x4
  2477  0024                     	ds	2
  2478  0026                     map@inputMin:
  2479                           
  2480                           ; 2 bytes @ 0x6
  2481  0026                     	ds	2
  2482  0028                     map@inMax:
  2483                           
  2484                           ; 2 bytes @ 0x8
  2485  0028                     	ds	2
  2486  002A                     map@outMin:
  2487                           
  2488                           ; 2 bytes @ 0xA
  2489  002A                     	ds	2
  2490  002C                     map@outMax:
  2491                           
  2492                           ; 2 bytes @ 0xC
  2493  002C                     	ds	2
  2494  002E                     main@mappedValue:
  2495                           
  2496                           ; 2 bytes @ 0xE
  2497  002E                     	ds	2
  2498  0030                     main@mappedValue2:
  2499                           
  2500                           ; 2 bytes @ 0x10
  2501  0030                     	ds	2
  2502                           
  2503                           	psect	maintext
  2504  067D                     __pmaintext:	
  2505 ;;
  2506 ;;Main: autosize = 0, tempsize = 1, incstack = 0, save=0
  2507 ;;
  2508 ;; *************** function _main *****************
  2509 ;; Defined at:
  2510 ;;		line 165 in file "main.c"
  2511 ;; Parameters:    Size  Location     Type
  2512 ;;		None
  2513 ;; Auto vars:     Size  Location     Type
  2514 ;;  mappedValue2    2   16[BANK0 ] unsigned short 
  2515 ;;  mappedValue     2   14[BANK0 ] unsigned short 
  2516 ;; Return value:  Size  Location     Type
  2517 ;;                  1    wreg      void 
  2518 ;; Registers used:
  2519 ;;		wreg, status,2, status,0, pclath, cstack
  2520 ;; Tracked objects:
  2521 ;;		On entry : B1F/0
  2522 ;;		On exit  : 0/0
  2523 ;;		Unchanged: 0/0
  2524 ;; Data sizes:     COMMON   BANK0   BANK1   BANK2   BANK3   BANK4   BANK5   BANK6   BANK7   BANK8   BANK9  BANK10  BANK1
      +1  BANK12
  2525 ;;      Params:         0       0       0       0       0       0       0       0       0       0       0       0       
      +0       0
  2526 ;;      Locals:         0       4       0       0       0       0       0       0       0       0       0       0       
      +0       0
  2527 ;;      Temps:          1       0       0       0       0       0       0       0       0       0       0       0       
      +0       0
  2528 ;;      Totals:         1       4       0       0       0       0       0       0       0       0       0       0       
      +0       0
  2529 ;;Total ram usage:        5 bytes
  2530 ;; Hardware stack levels required when called: 3
  2531 ;; This function calls:
  2532 ;;		_EPWM1_LoadDutyValue
  2533 ;;		_EUSART_Read
  2534 ;;		_EUSART_is_rx_ready
  2535 ;;		_SYSTEM_Initialize
  2536 ;;		_di_thang
  2537 ;;		_di_thang_nhanh
  2538 ;;		_dung_lai
  2539 ;;		_lui
  2540 ;;		_lui_nhanh
  2541 ;;		_map
  2542 ;;		_rephai
  2543 ;;		_rephai2
  2544 ;;		_rephainhanh
  2545 ;;		_retrai
  2546 ;;		_retrai2
  2547 ;;		_retrai3
  2548 ;;		_retrainhanh
  2549 ;; This function is called by:
  2550 ;;		Startup code after reset
  2551 ;; This function uses a non-reentrant model
  2552 ;;
  2553                           
  2554  067D                     _main:	
  2555                           ;psect for function _main
  2556                           
  2557  067D                     l1756:	
  2558                           ;incstack = 0
  2559                           ; Regs used in _main: [wreg+status,2+status,0+pclath+cstack]
  2560                           
  2561                           
  2562                           ;main.c: 168:     SYSTEM_Initialize();
  2563  067D  3185  25D6  3186   	fcall	_SYSTEM_Initialize
  2564                           
  2565                           ;main.c: 184:     uint16_t mappedValue = map(9515,0,1023,61,30) ;
  2566  0680  302B               	movlw	43
  2567  0681  0020               	movlb	0	; select bank0
  2568  0682  00A4               	movwf	map@value
  2569  0683  3025               	movlw	37
  2570  0684  00A5               	movwf	map@value+1
  2571  0685  3000               	movlw	0
  2572  0686  00A6               	movwf	map@inputMin
  2573  0687  00A7               	movwf	map@inputMin+1
  2574  0688  30FF               	movlw	255
  2575  0689  00A8               	movwf	map@inMax
  2576  068A  3003               	movlw	3
  2577  068B  00A9               	movwf	map@inMax+1
  2578  068C  303D               	movlw	61
  2579  068D  00AA               	movwf	map@outMin
  2580  068E  3000               	movlw	0
  2581  068F  00AB               	movwf	map@outMin+1
  2582  0690  301E               	movlw	30
  2583  0691  00AC               	movwf	map@outMax
  2584  0692  3000               	movlw	0
  2585  0693  00AD               	movwf	map@outMax+1
  2586  0694  3185  25F8  3186   	fcall	_map
  2587  0697  0020               	movlb	0	; select bank0
  2588  0698  0825               	movf	?_map+1,w
  2589  0699  00AF               	movwf	main@mappedValue+1
  2590  069A  0824               	movf	?_map,w
  2591  069B  00AE               	movwf	main@mappedValue
  2592                           
  2593                           ;main.c: 185:     uint16_t mappedValue2 = map(20000,0,1023,61,30) ;
  2594  069C  3020               	movlw	32
  2595  069D  00A4               	movwf	map@value
  2596  069E  304E               	movlw	78
  2597  069F  00A5               	movwf	map@value+1
  2598  06A0  3000               	movlw	0
  2599  06A1  00A6               	movwf	map@inputMin
  2600  06A2  00A7               	movwf	map@inputMin+1
  2601  06A3  30FF               	movlw	255
  2602  06A4  00A8               	movwf	map@inMax
  2603  06A5  3003               	movlw	3
  2604  06A6  00A9               	movwf	map@inMax+1
  2605  06A7  303D               	movlw	61
  2606  06A8  00AA               	movwf	map@outMin
  2607  06A9  3000               	movlw	0
  2608  06AA  00AB               	movwf	map@outMin+1
  2609  06AB  301E               	movlw	30
  2610  06AC  00AC               	movwf	map@outMax
  2611  06AD  3000               	movlw	0
  2612  06AE  00AD               	movwf	map@outMax+1
  2613  06AF  3185  25F8  3186   	fcall	_map
  2614  06B2  0020               	movlb	0	; select bank0
  2615  06B3  0825               	movf	?_map+1,w
  2616  06B4  00B1               	movwf	main@mappedValue2+1
  2617  06B5  0824               	movf	?_map,w
  2618  06B6  00B0               	movwf	main@mappedValue2
  2619  06B7                     l419:	
  2620                           ;main.c: 186:     while (1)
  2621                           
  2622                           
  2623                           ;main.c: 187:     {;main.c: 188:         if ((EUSART_is_rx_ready()!=0)){
  2624  06B7  3183  23D3  3186   	fcall	_EUSART_is_rx_ready
  2625  06BA  3A00               	xorlw	0
  2626  06BB  1903               	skipnz
  2627  06BC  2EBE               	goto	u801
  2628  06BD  2EBF               	goto	u800
  2629  06BE                     u801:
  2630  06BE  2FE1               	goto	l1858
  2631  06BF                     u800:
  2632  06BF                     l1758:
  2633                           
  2634                           ;main.c: 189:         if (EUSART_Read() == 'W') {b=1;}}
  2635  06BF  3184  242D  3186   	fcall	_EUSART_Read
  2636  06C2  3A57               	xorlw	87
  2637  06C3  1D03               	skipz
  2638  06C4  2EC6               	goto	u811
  2639  06C5  2EC7               	goto	u810
  2640  06C6                     u811:
  2641  06C6  2FE1               	goto	l1858
  2642  06C7                     u810:
  2643  06C7                     l1760:
  2644  06C7  3001               	movlw	1
  2645  06C8  0020               	movlb	0	; select bank0
  2646  06C9  00B4               	movwf	_b
  2647  06CA  3000               	movlw	0
  2648  06CB  00B5               	movwf	_b+1
  2649  06CC  2FE1               	goto	l1858
  2650  06CD                     l1762:
  2651                           
  2652                           ;main.c: 191:             di_thang_nhanh() ;
  2653  06CD  3184  24BE  3186   	fcall	_di_thang_nhanh
  2654  06D0                     l1764:
  2655                           
  2656                           ;main.c: 192:             _delay((unsigned long)((300)*(1000000/4000.0)));
  2657  06D0  3062               	movlw	98
  2658  06D1  00FB               	movwf	??_main
  2659  06D2  3066               	movlw	102
  2660  06D3                     u1147:
  2661  06D3  0B89               	decfsz	9,f
  2662  06D4  2ED3               	goto	u1147
  2663  06D5  0BFB               	decfsz	??_main,f
  2664  06D6  2ED3               	goto	u1147
  2665  06D7                     l1766:
  2666                           
  2667                           ;main.c: 194:                 if ((PORTBbits.RB4==1)&&(a!=3)) {
  2668  06D7  0020               	movlb	0	; select bank0
  2669  06D8  1E0D               	btfss	13,4	;volatile
  2670  06D9  2EDB               	goto	u821
  2671  06DA  2EDC               	goto	u820
  2672  06DB                     u821:
  2673  06DB  2F37               	goto	l425
  2674  06DC                     u820:
  2675  06DC                     l1768:
  2676  06DC  3003               	movlw	3
  2677  06DD  0636               	xorwf	_a,w
  2678  06DE  0437               	iorwf	_a+1,w
  2679  06DF  1903               	btfsc	3,2
  2680  06E0  2EE2               	goto	u831
  2681  06E1  2EE3               	goto	u830
  2682  06E2                     u831:
  2683  06E2  2F37               	goto	l425
  2684  06E3                     u830:
  2685  06E3                     l1770:
  2686                           
  2687                           ;main.c: 195:                     EPWM1_LoadDutyValue(mappedValue);
  2688  06E3  082F               	movf	main@mappedValue+1,w
  2689  06E4  00F1               	movwf	EPWM1_LoadDutyValue@dutyValue+1
  2690  06E5  082E               	movf	main@mappedValue,w
  2691  06E6  00F0               	movwf	EPWM1_LoadDutyValue@dutyValue
  2692  06E7  3185  2536  3186   	fcall	_EPWM1_LoadDutyValue
  2693  06EA                     l1772:
  2694                           
  2695                           ;main.c: 196:                     if((PORTCbits.RC7==0) && (PORTBbits.RB6==0)&&(PORTCbit
      +                          s.RC4 == 1)){
  2696  06EA  0020               	movlb	0	; select bank0
  2697  06EB  1B8E               	btfsc	14,7	;volatile
  2698  06EC  2EEE               	goto	u841
  2699  06ED  2EEF               	goto	u840
  2700  06EE                     u841:
  2701  06EE  2EFB               	goto	l426
  2702  06EF                     u840:
  2703  06EF                     l1774:
  2704  06EF  1B0D               	btfsc	13,6	;volatile
  2705  06F0  2EF2               	goto	u851
  2706  06F1  2EF3               	goto	u850
  2707  06F2                     u851:
  2708  06F2  2EFB               	goto	l426
  2709  06F3                     u850:
  2710  06F3                     l1776:
  2711  06F3  1E0E               	btfss	14,4	;volatile
  2712  06F4  2EF6               	goto	u861
  2713  06F5  2EF7               	goto	u860
  2714  06F6                     u861:
  2715  06F6  2EFB               	goto	l426
  2716  06F7                     u860:
  2717  06F7                     l1778:
  2718                           
  2719                           ;main.c: 197:                         di_thang();
  2720  06F7  3184  24AA  3186   	fcall	_di_thang
  2721                           
  2722                           ;main.c: 198:                     }
  2723  06FA  2FC2               	goto	l1850
  2724  06FB                     l426:	
  2725                           ;main.c: 199:                     else if(PORTCbits.RC7!=0 && PORTBbits.RB6==0 ){
  2726                           
  2727  06FB  1F8E               	btfss	14,7	;volatile
  2728  06FC  2EFE               	goto	u871
  2729  06FD  2EFF               	goto	u870
  2730  06FE                     u871:
  2731  06FE  2F07               	goto	l428
  2732  06FF                     u870:
  2733  06FF                     l1780:
  2734  06FF  1B0D               	btfsc	13,6	;volatile
  2735  0700  2F02               	goto	u881
  2736  0701  2F03               	goto	u880
  2737  0702                     u881:
  2738  0702  2F07               	goto	l428
  2739  0703                     u880:
  2740  0703                     l1782:
  2741                           
  2742                           ;main.c: 200:                         retrai();
  2743  0703  3184  2484  3186   	fcall	_retrai
  2744                           
  2745                           ;main.c: 201:                     }
  2746  0706  2FC2               	goto	l1850
  2747  0707                     l428:	
  2748                           ;main.c: 202:                     else if(PORTCbits.RC7==0 && PORTBbits.RB6!=0 ){
  2749                           
  2750  0707  1B8E               	btfsc	14,7	;volatile
  2751  0708  2F0A               	goto	u891
  2752  0709  2F0B               	goto	u890
  2753  070A                     u891:
  2754  070A  2F13               	goto	l430
  2755  070B                     u890:
  2756  070B                     l1784:
  2757  070B  1F0D               	btfss	13,6	;volatile
  2758  070C  2F0E               	goto	u901
  2759  070D  2F0F               	goto	u900
  2760  070E                     u901:
  2761  070E  2F13               	goto	l430
  2762  070F                     u900:
  2763  070F                     l1786:
  2764                           
  2765                           ;main.c: 203:                         rephai();
  2766  070F  3184  245E  3186   	fcall	_rephai
  2767                           
  2768                           ;main.c: 204:                     }
  2769  0712  2FC2               	goto	l1850
  2770  0713                     l430:	
  2771                           ;main.c: 205:                     else if(PORTCbits.RC7==0 && PORTBbits.RB6==0 &&(PORTCb
      +                          its.RC4 == 0)){
  2772                           
  2773  0713  1B8E               	btfsc	14,7	;volatile
  2774  0714  2F16               	goto	u911
  2775  0715  2F17               	goto	u910
  2776  0716                     u911:
  2777  0716  2F23               	goto	l432
  2778  0717                     u910:
  2779  0717                     l1788:
  2780  0717  1B0D               	btfsc	13,6	;volatile
  2781  0718  2F1A               	goto	u921
  2782  0719  2F1B               	goto	u920
  2783  071A                     u921:
  2784  071A  2F23               	goto	l432
  2785  071B                     u920:
  2786  071B                     l1790:
  2787  071B  1A0E               	btfsc	14,4	;volatile
  2788  071C  2F1E               	goto	u931
  2789  071D  2F1F               	goto	u930
  2790  071E                     u931:
  2791  071E  2F23               	goto	l432
  2792  071F                     u930:
  2793  071F                     l1792:
  2794                           
  2795                           ;main.c: 206:                         lui();
  2796  071F  3184  24D2  3186   	fcall	_lui
  2797                           
  2798                           ;main.c: 207:                     }
  2799  0722  2FC2               	goto	l1850
  2800  0723                     l432:	
  2801                           ;main.c: 208:                     else if(PORTCbits.RC7==1 && PORTBbits.RB6==1 &&(PORTCb
      +                          its.RC4 == 1)){
  2802                           
  2803  0723  1F8E               	btfss	14,7	;volatile
  2804  0724  2F26               	goto	u941
  2805  0725  2F27               	goto	u940
  2806  0726                     u941:
  2807  0726  2F33               	goto	l1800
  2808  0727                     u940:
  2809  0727                     l1794:
  2810  0727  1F0D               	btfss	13,6	;volatile
  2811  0728  2F2A               	goto	u951
  2812  0729  2F2B               	goto	u950
  2813  072A                     u951:
  2814  072A  2F33               	goto	l1800
  2815  072B                     u950:
  2816  072B                     l1796:
  2817  072B  1E0E               	btfss	14,4	;volatile
  2818  072C  2F2E               	goto	u961
  2819  072D  2F2F               	goto	u960
  2820  072E                     u961:
  2821  072E  2F33               	goto	l1800
  2822  072F                     u960:
  2823  072F                     l1798:
  2824                           
  2825                           ;main.c: 209:                         retrai3();
  2826  072F  3185  250E  3186   	fcall	_retrai3
  2827                           
  2828                           ;main.c: 210:                     }
  2829  0732  2FC2               	goto	l1850
  2830  0733                     l1800:
  2831  0733  3184  244C  3186   	fcall	_dung_lai
  2832  0736  2FC2               	goto	l1850
  2833  0737                     l425:	
  2834                           ;main.c: 214:                 else if((PORTBbits.RB4==0)||(a==3)) {
  2835                           
  2836  0737  1E0D               	btfss	13,4	;volatile
  2837  0738  2F3A               	goto	u971
  2838  0739  2F3B               	goto	u970
  2839  073A                     u971:
  2840  073A  2F42               	goto	l1804
  2841  073B                     u970:
  2842  073B                     l1802:
  2843  073B  3003               	movlw	3
  2844  073C  0636               	xorwf	_a,w
  2845  073D  0437               	iorwf	_a+1,w
  2846  073E  1D03               	btfss	3,2
  2847  073F  2F41               	goto	u981
  2848  0740  2F42               	goto	u980
  2849  0741                     u981:
  2850  0741  2FC2               	goto	l1850
  2851  0742                     u980:
  2852  0742                     l1804:
  2853                           
  2854                           ;main.c: 215:                     if (state != 4) {EPWM1_LoadDutyValue( mappedValue2);}
  2855  0742  3004               	movlw	4
  2856  0743  0632               	xorwf	_state,w
  2857  0744  0433               	iorwf	_state+1,w
  2858  0745  1903               	btfsc	3,2
  2859  0746  2F48               	goto	u991
  2860  0747  2F49               	goto	u990
  2861  0748                     u991:
  2862  0748  2F50               	goto	l440
  2863  0749                     u990:
  2864  0749                     l1806:
  2865  0749  0831               	movf	main@mappedValue2+1,w
  2866  074A  00F1               	movwf	EPWM1_LoadDutyValue@dutyValue+1
  2867  074B  0830               	movf	main@mappedValue2,w
  2868  074C  00F0               	movwf	EPWM1_LoadDutyValue@dutyValue
  2869  074D  3185  2536  3186   	fcall	_EPWM1_LoadDutyValue
  2870  0750                     l440:
  2871                           
  2872                           ;main.c: 216:                     if ((EUSART_is_rx_ready()!=0)){
  2873  0750  3183  23D3  3186   	fcall	_EUSART_is_rx_ready
  2874  0753  3A00               	xorlw	0
  2875  0754  1903               	skipnz
  2876  0755  2F57               	goto	u1001
  2877  0756  2F58               	goto	u1000
  2878  0757                     u1001:
  2879  0757  2FC2               	goto	l1850
  2880  0758                     u1000:
  2881  0758                     l1808:
  2882                           
  2883                           ;main.c: 217:                         value = EUSART_Read();
  2884  0758  3184  242D  3186   	fcall	_EUSART_Read
  2885  075B  00FB               	movwf	??_main
  2886  075C  087B               	movf	??_main,w
  2887  075D  0020               	movlb	0	; select bank0
  2888  075E  00BA               	movwf	_value
  2889  075F                     l1810:
  2890                           
  2891                           ;main.c: 218:                         if (value == 'F') {di_thang_nhanh();}
  2892  075F  3046               	movlw	70
  2893  0760  063A               	xorwf	_value,w
  2894  0761  1D03               	btfss	3,2
  2895  0762  2F64               	goto	u1011
  2896  0763  2F65               	goto	u1010
  2897  0764                     u1011:
  2898  0764  2F68               	goto	l1814
  2899  0765                     u1010:
  2900  0765                     l1812:
  2901  0765  3184  24BE  3186   	fcall	_di_thang_nhanh
  2902  0768                     l1814:
  2903                           
  2904                           ;main.c: 219:                         if (value == 'B') {lui_nhanh();}
  2905  0768  3042               	movlw	66
  2906  0769  0020               	movlb	0	; select bank0
  2907  076A  063A               	xorwf	_value,w
  2908  076B  1D03               	btfss	3,2
  2909  076C  2F6E               	goto	u1021
  2910  076D  2F6F               	goto	u1020
  2911  076E                     u1021:
  2912  076E  2F72               	goto	l1818
  2913  076F                     u1020:
  2914  076F                     l1816:
  2915  076F  3184  24E6  3186   	fcall	_lui_nhanh
  2916  0772                     l1818:
  2917                           
  2918                           ;main.c: 220:                         if (value == 'L') {rephai2();}
  2919  0772  304C               	movlw	76
  2920  0773  0020               	movlb	0	; select bank0
  2921  0774  063A               	xorwf	_value,w
  2922  0775  1D03               	btfss	3,2
  2923  0776  2F78               	goto	u1031
  2924  0777  2F79               	goto	u1030
  2925  0778                     u1031:
  2926  0778  2F7C               	goto	l1822
  2927  0779                     u1030:
  2928  0779                     l1820:
  2929  0779  3184  2471  3186   	fcall	_rephai2
  2930  077C                     l1822:
  2931                           
  2932                           ;main.c: 221:                         if (value == 'R') {retrai2();}
  2933  077C  3052               	movlw	82
  2934  077D  0020               	movlb	0	; select bank0
  2935  077E  063A               	xorwf	_value,w
  2936  077F  1D03               	btfss	3,2
  2937  0780  2F82               	goto	u1041
  2938  0781  2F83               	goto	u1040
  2939  0782                     u1041:
  2940  0782  2F86               	goto	l1826
  2941  0783                     u1040:
  2942  0783                     l1824:
  2943  0783  3184  2497  3186   	fcall	_retrai2
  2944  0786                     l1826:
  2945                           
  2946                           ;main.c: 222:                         if (value == 'X') {a=3 ;}
  2947  0786  3058               	movlw	88
  2948  0787  0020               	movlb	0	; select bank0
  2949  0788  063A               	xorwf	_value,w
  2950  0789  1D03               	btfss	3,2
  2951  078A  2F8C               	goto	u1051
  2952  078B  2F8D               	goto	u1050
  2953  078C                     u1051:
  2954  078C  2F91               	goto	l1830
  2955  078D                     u1050:
  2956  078D                     l1828:
  2957  078D  3003               	movlw	3
  2958  078E  00B6               	movwf	_a
  2959  078F  3000               	movlw	0
  2960  0790  00B7               	movwf	_a+1
  2961  0791                     l1830:
  2962                           
  2963                           ;main.c: 223:                         if (value == 'S') {dung_lai();}
  2964  0791  3053               	movlw	83
  2965  0792  063A               	xorwf	_value,w
  2966  0793  1D03               	btfss	3,2
  2967  0794  2F96               	goto	u1061
  2968  0795  2F97               	goto	u1060
  2969  0796                     u1061:
  2970  0796  2F9A               	goto	l1834
  2971  0797                     u1060:
  2972  0797                     l1832:
  2973  0797  3184  244C  3186   	fcall	_dung_lai
  2974  079A                     l1834:
  2975                           
  2976                           ;main.c: 224:                         if (value == 'V') {state = 4;}
  2977  079A  3056               	movlw	86
  2978  079B  0020               	movlb	0	; select bank0
  2979  079C  063A               	xorwf	_value,w
  2980  079D  1D03               	btfss	3,2
  2981  079E  2FA0               	goto	u1071
  2982  079F  2FA1               	goto	u1070
  2983  07A0                     u1071:
  2984  07A0  2FA5               	goto	l1838
  2985  07A1                     u1070:
  2986  07A1                     l1836:
  2987  07A1  3004               	movlw	4
  2988  07A2  00B2               	movwf	_state
  2989  07A3  3000               	movlw	0
  2990  07A4  00B3               	movwf	_state+1
  2991  07A5                     l1838:
  2992                           
  2993                           ;main.c: 225:                         if (value == 'v') {state = 5;}
  2994  07A5  3076               	movlw	118
  2995  07A6  063A               	xorwf	_value,w
  2996  07A7  1D03               	btfss	3,2
  2997  07A8  2FAA               	goto	u1081
  2998  07A9  2FAB               	goto	u1080
  2999  07AA                     u1081:
  3000  07AA  2FAF               	goto	l1842
  3001  07AB                     u1080:
  3002  07AB                     l1840:
  3003  07AB  3005               	movlw	5
  3004  07AC  00B2               	movwf	_state
  3005  07AD  3000               	movlw	0
  3006  07AE  00B3               	movwf	_state+1
  3007  07AF                     l1842:
  3008                           
  3009                           ;main.c: 226:                         if (value == 'G') {rephainhanh();}
  3010  07AF  3047               	movlw	71
  3011  07B0  063A               	xorwf	_value,w
  3012  07B1  1D03               	btfss	3,2
  3013  07B2  2FB4               	goto	u1091
  3014  07B3  2FB5               	goto	u1090
  3015  07B4                     u1091:
  3016  07B4  2FB8               	goto	l1846
  3017  07B5                     u1090:
  3018  07B5                     l1844:
  3019  07B5  3184  24FA  3186   	fcall	_rephainhanh
  3020  07B8                     l1846:
  3021                           
  3022                           ;main.c: 227:                         if (value == 'I') {retrainhanh();}
  3023  07B8  3049               	movlw	73
  3024  07B9  0020               	movlb	0	; select bank0
  3025  07BA  063A               	xorwf	_value,w
  3026  07BB  1D03               	btfss	3,2
  3027  07BC  2FBE               	goto	u1101
  3028  07BD  2FBF               	goto	u1100
  3029  07BE                     u1101:
  3030  07BE  2FC2               	goto	l1850
  3031  07BF                     u1100:
  3032  07BF                     l1848:
  3033  07BF  3185  2522  3186   	fcall	_retrainhanh
  3034  07C2                     l1850:
  3035                           
  3036                           ;main.c: 230:                 if (state == 4){EPWM1_LoadDutyValue(mappedValue);}
  3037  07C2  3004               	movlw	4
  3038  07C3  0020               	movlb	0	; select bank0
  3039  07C4  0632               	xorwf	_state,w
  3040  07C5  0433               	iorwf	_state+1,w
  3041  07C6  1D03               	btfss	3,2
  3042  07C7  2FC9               	goto	u1111
  3043  07C8  2FCA               	goto	u1110
  3044  07C9                     u1111:
  3045  07C9  2FD1               	goto	l1854
  3046  07CA                     u1110:
  3047  07CA                     l1852:
  3048  07CA  082F               	movf	main@mappedValue+1,w
  3049  07CB  00F1               	movwf	EPWM1_LoadDutyValue@dutyValue+1
  3050  07CC  082E               	movf	main@mappedValue,w
  3051  07CD  00F0               	movwf	EPWM1_LoadDutyValue@dutyValue
  3052  07CE  3185  2536  3186   	fcall	_EPWM1_LoadDutyValue
  3053  07D1                     l1854:
  3054                           
  3055                           ;main.c: 231:                 if (state == 5){EPWM1_LoadDutyValue(mappedValue2);}
  3056  07D1  3005               	movlw	5
  3057  07D2  0020               	movlb	0	; select bank0
  3058  07D3  0632               	xorwf	_state,w
  3059  07D4  0433               	iorwf	_state+1,w
  3060  07D5  1D03               	btfss	3,2
  3061  07D6  2FD8               	goto	u1121
  3062  07D7  2FD9               	goto	u1120
  3063  07D8                     u1121:
  3064  07D8  2ED7               	goto	l1766
  3065  07D9                     u1120:
  3066  07D9                     l1856:
  3067  07D9  0831               	movf	main@mappedValue2+1,w
  3068  07DA  00F1               	movwf	EPWM1_LoadDutyValue@dutyValue+1
  3069  07DB  0830               	movf	main@mappedValue2,w
  3070  07DC  00F0               	movwf	EPWM1_LoadDutyValue@dutyValue
  3071  07DD  3185  2536  3186   	fcall	_EPWM1_LoadDutyValue
  3072  07E0  2ED7               	goto	l1766
  3073  07E1                     l1858:
  3074                           
  3075                           ;main.c: 190:         while (b == 1){
  3076  07E1  0020               	movlb	0	; select bank0
  3077  07E2  0334               	decf	_b,w
  3078  07E3  0435               	iorwf	_b+1,w
  3079  07E4  1903               	btfsc	3,2
  3080  07E5  2FE7               	goto	u1131
  3081  07E6  2FE8               	goto	u1130
  3082  07E7                     u1131:
  3083  07E7  2ECD               	goto	l1762
  3084  07E8                     u1130:
  3085  07E8  2EB7               	goto	l419
  3086  07E9  3180  2802         	ljmp	start
  3087  07EB                     __end_of_main:
  3088                           
  3089                           	psect	text1
  3090  0522                     __ptext1:	
  3091 ;; *************** function _retrainhanh *****************
  3092 ;; Defined at:
  3093 ;;		line 132 in file "main.c"
  3094 ;; Parameters:    Size  Location     Type
  3095 ;;		None
  3096 ;; Auto vars:     Size  Location     Type
  3097 ;;		None
  3098 ;; Return value:  Size  Location     Type
  3099 ;;                  1    wreg      void 
  3100 ;; Registers used:
  3101 ;;		wreg, status,2, status,0, pclath, cstack
  3102 ;; Tracked objects:
  3103 ;;		On entry : 0/0
  3104 ;;		On exit  : 0/0
  3105 ;;		Unchanged: 0/0
  3106 ;; Data sizes:     COMMON   BANK0   BANK1   BANK2   BANK3   BANK4   BANK5   BANK6   BANK7   BANK8   BANK9  BANK10  BANK1
      +1  BANK12
  3107 ;;      Params:         0       0       0       0       0       0       0       0       0       0       0       0       
      +0       0
  3108 ;;      Locals:         0       0       0       0       0       0       0       0       0       0       0       0       
      +0       0
  3109 ;;      Temps:          0       0       0       0       0       0       0       0       0       0       0       0       
      +0       0
  3110 ;;      Totals:         0       0       0       0       0       0       0       0       0       0       0       0       
      +0       0
  3111 ;;Total ram usage:        0 bytes
  3112 ;; Hardware stack levels used: 1
  3113 ;; Hardware stack levels required when called: 1
  3114 ;; This function calls:
  3115 ;;		_PWM3_LoadDutyValue
  3116 ;;		_PWM4_LoadDutyValue
  3117 ;; This function is called by:
  3118 ;;		_main
  3119 ;; This function uses a non-reentrant model
  3120 ;;
  3121                           
  3122  0522                     _retrainhanh:	
  3123                           ;psect for function _retrainhanh
  3124                           
  3125  0522                     l1736:	
  3126                           ;incstack = 0
  3127                           ; Regs used in _retrainhanh: [wreg+status,2+status,0+pclath+cstack]
  3128                           
  3129                           
  3130                           ;main.c: 133:     LATCbits.LATC1 =0;
  3131  0522  0022               	movlb	2	; select bank2
  3132  0523  108E               	bcf	14,1	;volatile
  3133                           
  3134                           ;main.c: 134:     LATCbits.LATC2 = 0 ;
  3135  0524  110E               	bcf	14,2	;volatile
  3136                           
  3137                           ;main.c: 135:     LATCbits.LATC0 = 1 ;
  3138  0525  140E               	bsf	14,0	;volatile
  3139                           
  3140                           ;main.c: 136:     LATCbits.LATC3 =0;
  3141  0526  118E               	bcf	14,3	;volatile
  3142  0527                     l1738:
  3143                           
  3144                           ;main.c: 137:     PWM3_LoadDutyValue(900);
  3145  0527  3084               	movlw	132
  3146  0528  00F0               	movwf	PWM3_LoadDutyValue@dutyValue
  3147  0529  3003               	movlw	3
  3148  052A  00F1               	movwf	PWM3_LoadDutyValue@dutyValue+1
  3149  052B  3185  254D  3185   	fcall	_PWM3_LoadDutyValue
  3150                           
  3151                           ;main.c: 138:     PWM4_LoadDutyValue(600);
  3152  052E  3058               	movlw	88
  3153  052F  00F0               	movwf	PWM4_LoadDutyValue@dutyValue
  3154  0530  3002               	movlw	2
  3155  0531  00F1               	movwf	PWM4_LoadDutyValue@dutyValue+1
  3156  0532  3185  2564  3185   	fcall	_PWM4_LoadDutyValue
  3157  0535                     l405:
  3158  0535  0008               	return
  3159  0536                     __end_of_retrainhanh:
  3160                           
  3161                           	psect	text2
  3162  050E                     __ptext2:	
  3163 ;; *************** function _retrai3 *****************
  3164 ;; Defined at:
  3165 ;;		line 124 in file "main.c"
  3166 ;; Parameters:    Size  Location     Type
  3167 ;;		None
  3168 ;; Auto vars:     Size  Location     Type
  3169 ;;		None
  3170 ;; Return value:  Size  Location     Type
  3171 ;;                  1    wreg      void 
  3172 ;; Registers used:
  3173 ;;		wreg, status,2, status,0, pclath, cstack
  3174 ;; Tracked objects:
  3175 ;;		On entry : 0/0
  3176 ;;		On exit  : 0/0
  3177 ;;		Unchanged: 0/0
  3178 ;; Data sizes:     COMMON   BANK0   BANK1   BANK2   BANK3   BANK4   BANK5   BANK6   BANK7   BANK8   BANK9  BANK10  BANK1
      +1  BANK12
  3179 ;;      Params:         0       0       0       0       0       0       0       0       0       0       0       0       
      +0       0
  3180 ;;      Locals:         0       0       0       0       0       0       0       0       0       0       0       0       
      +0       0
  3181 ;;      Temps:          0       0       0       0       0       0       0       0       0       0       0       0       
      +0       0
  3182 ;;      Totals:         0       0       0       0       0       0       0       0       0       0       0       0       
      +0       0
  3183 ;;Total ram usage:        0 bytes
  3184 ;; Hardware stack levels used: 1
  3185 ;; Hardware stack levels required when called: 1
  3186 ;; This function calls:
  3187 ;;		_PWM3_LoadDutyValue
  3188 ;;		_PWM4_LoadDutyValue
  3189 ;; This function is called by:
  3190 ;;		_main
  3191 ;; This function uses a non-reentrant model
  3192 ;;
  3193                           
  3194  050E                     _retrai3:	
  3195                           ;psect for function _retrai3
  3196                           
  3197  050E                     l1732:	
  3198                           ;incstack = 0
  3199                           ; Regs used in _retrai3: [wreg+status,2+status,0+pclath+cstack]
  3200                           
  3201                           
  3202                           ;main.c: 125:     LATCbits.LATC1 =0;
  3203  050E  0022               	movlb	2	; select bank2
  3204  050F  108E               	bcf	14,1	;volatile
  3205                           
  3206                           ;main.c: 126:     LATCbits.LATC2 = 1 ;
  3207  0510  150E               	bsf	14,2	;volatile
  3208                           
  3209                           ;main.c: 127:     LATCbits.LATC0 = 1 ;
  3210  0511  140E               	bsf	14,0	;volatile
  3211                           
  3212                           ;main.c: 128:     LATCbits.LATC3 =0;
  3213  0512  118E               	bcf	14,3	;volatile
  3214  0513                     l1734:
  3215                           
  3216                           ;main.c: 129:     PWM3_LoadDutyValue(900);
  3217  0513  3084               	movlw	132
  3218  0514  00F0               	movwf	PWM3_LoadDutyValue@dutyValue
  3219  0515  3003               	movlw	3
  3220  0516  00F1               	movwf	PWM3_LoadDutyValue@dutyValue+1
  3221  0517  3185  254D  3185   	fcall	_PWM3_LoadDutyValue
  3222                           
  3223                           ;main.c: 130:     PWM4_LoadDutyValue(300);
  3224  051A  302C               	movlw	44
  3225  051B  00F0               	movwf	PWM4_LoadDutyValue@dutyValue
  3226  051C  3001               	movlw	1
  3227  051D  00F1               	movwf	PWM4_LoadDutyValue@dutyValue+1
  3228  051E  3185  2564  3185   	fcall	_PWM4_LoadDutyValue
  3229  0521                     l402:
  3230  0521  0008               	return
  3231  0522                     __end_of_retrai3:
  3232                           
  3233                           	psect	text3
  3234  0497                     __ptext3:	
  3235 ;; *************** function _retrai2 *****************
  3236 ;; Defined at:
  3237 ;;		line 108 in file "main.c"
  3238 ;; Parameters:    Size  Location     Type
  3239 ;;		None
  3240 ;; Auto vars:     Size  Location     Type
  3241 ;;		None
  3242 ;; Return value:  Size  Location     Type
  3243 ;;                  1    wreg      void 
  3244 ;; Registers used:
  3245 ;;		wreg, status,2, status,0, pclath, cstack
  3246 ;; Tracked objects:
  3247 ;;		On entry : 0/0
  3248 ;;		On exit  : 0/0
  3249 ;;		Unchanged: 0/0
  3250 ;; Data sizes:     COMMON   BANK0   BANK1   BANK2   BANK3   BANK4   BANK5   BANK6   BANK7   BANK8   BANK9  BANK10  BANK1
      +1  BANK12
  3251 ;;      Params:         0       0       0       0       0       0       0       0       0       0       0       0       
      +0       0
  3252 ;;      Locals:         0       0       0       0       0       0       0       0       0       0       0       0       
      +0       0
  3253 ;;      Temps:          0       0       0       0       0       0       0       0       0       0       0       0       
      +0       0
  3254 ;;      Totals:         0       0       0       0       0       0       0       0       0       0       0       0       
      +0       0
  3255 ;;Total ram usage:        0 bytes
  3256 ;; Hardware stack levels used: 1
  3257 ;; Hardware stack levels required when called: 1
  3258 ;; This function calls:
  3259 ;;		_PWM3_LoadDutyValue
  3260 ;;		_PWM4_LoadDutyValue
  3261 ;; This function is called by:
  3262 ;;		_main
  3263 ;; This function uses a non-reentrant model
  3264 ;;
  3265                           
  3266  0497                     _retrai2:	
  3267                           ;psect for function _retrai2
  3268                           
  3269  0497                     l1724:	
  3270                           ;incstack = 0
  3271                           ; Regs used in _retrai2: [wreg+status,2+status,0+pclath+cstack]
  3272                           
  3273                           
  3274                           ;main.c: 109:     LATCbits.LATC1 =0;
  3275  0497  0022               	movlb	2	; select bank2
  3276  0498  108E               	bcf	14,1	;volatile
  3277                           
  3278                           ;main.c: 110:     LATCbits.LATC2 = 0 ;
  3279  0499  110E               	bcf	14,2	;volatile
  3280                           
  3281                           ;main.c: 111:     LATCbits.LATC0 = 1 ;
  3282  049A  140E               	bsf	14,0	;volatile
  3283                           
  3284                           ;main.c: 112:     LATCbits.LATC3 =0;
  3285  049B  118E               	bcf	14,3	;volatile
  3286  049C                     l1726:
  3287                           
  3288                           ;main.c: 113:     PWM3_LoadDutyValue(900);
  3289  049C  3084               	movlw	132
  3290  049D  00F0               	movwf	PWM3_LoadDutyValue@dutyValue
  3291  049E  3003               	movlw	3
  3292  049F  00F1               	movwf	PWM3_LoadDutyValue@dutyValue+1
  3293  04A0  3185  254D  3184   	fcall	_PWM3_LoadDutyValue
  3294                           
  3295                           ;main.c: 114:     PWM4_LoadDutyValue(0);
  3296  04A3  3000               	movlw	0
  3297  04A4  00F0               	movwf	PWM4_LoadDutyValue@dutyValue
  3298  04A5  00F1               	movwf	PWM4_LoadDutyValue@dutyValue+1
  3299  04A6  3185  2564  3184   	fcall	_PWM4_LoadDutyValue
  3300  04A9                     l396:
  3301  04A9  0008               	return
  3302  04AA                     __end_of_retrai2:
  3303                           
  3304                           	psect	text4
  3305  0484                     __ptext4:	
  3306 ;; *************** function _retrai *****************
  3307 ;; Defined at:
  3308 ;;		line 100 in file "main.c"
  3309 ;; Parameters:    Size  Location     Type
  3310 ;;		None
  3311 ;; Auto vars:     Size  Location     Type
  3312 ;;		None
  3313 ;; Return value:  Size  Location     Type
  3314 ;;                  1    wreg      void 
  3315 ;; Registers used:
  3316 ;;		wreg, status,2, status,0, pclath, cstack
  3317 ;; Tracked objects:
  3318 ;;		On entry : 0/0
  3319 ;;		On exit  : 0/0
  3320 ;;		Unchanged: 0/0
  3321 ;; Data sizes:     COMMON   BANK0   BANK1   BANK2   BANK3   BANK4   BANK5   BANK6   BANK7   BANK8   BANK9  BANK10  BANK1
      +1  BANK12
  3322 ;;      Params:         0       0       0       0       0       0       0       0       0       0       0       0       
      +0       0
  3323 ;;      Locals:         0       0       0       0       0       0       0       0       0       0       0       0       
      +0       0
  3324 ;;      Temps:          0       0       0       0       0       0       0       0       0       0       0       0       
      +0       0
  3325 ;;      Totals:         0       0       0       0       0       0       0       0       0       0       0       0       
      +0       0
  3326 ;;Total ram usage:        0 bytes
  3327 ;; Hardware stack levels used: 1
  3328 ;; Hardware stack levels required when called: 1
  3329 ;; This function calls:
  3330 ;;		_PWM3_LoadDutyValue
  3331 ;;		_PWM4_LoadDutyValue
  3332 ;; This function is called by:
  3333 ;;		_main
  3334 ;; This function uses a non-reentrant model
  3335 ;;
  3336                           
  3337  0484                     _retrai:	
  3338                           ;psect for function _retrai
  3339                           
  3340  0484                     l1720:	
  3341                           ;incstack = 0
  3342                           ; Regs used in _retrai: [wreg+status,2+status,0+pclath+cstack]
  3343                           
  3344                           
  3345                           ;main.c: 101:     LATCbits.LATC1 =0;
  3346  0484  0022               	movlb	2	; select bank2
  3347  0485  108E               	bcf	14,1	;volatile
  3348                           
  3349                           ;main.c: 102:     LATCbits.LATC2 = 1 ;
  3350  0486  150E               	bsf	14,2	;volatile
  3351                           
  3352                           ;main.c: 103:     LATCbits.LATC0 = 1 ;
  3353  0487  140E               	bsf	14,0	;volatile
  3354                           
  3355                           ;main.c: 104:     LATCbits.LATC3 =0;
  3356  0488  118E               	bcf	14,3	;volatile
  3357  0489                     l1722:
  3358                           
  3359                           ;main.c: 105:     PWM3_LoadDutyValue(900);
  3360  0489  3084               	movlw	132
  3361  048A  00F0               	movwf	PWM3_LoadDutyValue@dutyValue
  3362  048B  3003               	movlw	3
  3363  048C  00F1               	movwf	PWM3_LoadDutyValue@dutyValue+1
  3364  048D  3185  254D  3184   	fcall	_PWM3_LoadDutyValue
  3365                           
  3366                           ;main.c: 106:     PWM4_LoadDutyValue(0);
  3367  0490  3000               	movlw	0
  3368  0491  00F0               	movwf	PWM4_LoadDutyValue@dutyValue
  3369  0492  00F1               	movwf	PWM4_LoadDutyValue@dutyValue+1
  3370  0493  3185  2564  3184   	fcall	_PWM4_LoadDutyValue
  3371  0496                     l393:
  3372  0496  0008               	return
  3373  0497                     __end_of_retrai:
  3374                           
  3375                           	psect	text5
  3376  04FA                     __ptext5:	
  3377 ;; *************** function _rephainhanh *****************
  3378 ;; Defined at:
  3379 ;;		line 140 in file "main.c"
  3380 ;; Parameters:    Size  Location     Type
  3381 ;;		None
  3382 ;; Auto vars:     Size  Location     Type
  3383 ;;		None
  3384 ;; Return value:  Size  Location     Type
  3385 ;;                  1    wreg      void 
  3386 ;; Registers used:
  3387 ;;		wreg, status,2, status,0, pclath, cstack
  3388 ;; Tracked objects:
  3389 ;;		On entry : 0/0
  3390 ;;		On exit  : 0/0
  3391 ;;		Unchanged: 0/0
  3392 ;; Data sizes:     COMMON   BANK0   BANK1   BANK2   BANK3   BANK4   BANK5   BANK6   BANK7   BANK8   BANK9  BANK10  BANK1
      +1  BANK12
  3393 ;;      Params:         0       0       0       0       0       0       0       0       0       0       0       0       
      +0       0
  3394 ;;      Locals:         0       0       0       0       0       0       0       0       0       0       0       0       
      +0       0
  3395 ;;      Temps:          0       0       0       0       0       0       0       0       0       0       0       0       
      +0       0
  3396 ;;      Totals:         0       0       0       0       0       0       0       0       0       0       0       0       
      +0       0
  3397 ;;Total ram usage:        0 bytes
  3398 ;; Hardware stack levels used: 1
  3399 ;; Hardware stack levels required when called: 1
  3400 ;; This function calls:
  3401 ;;		_PWM3_LoadDutyValue
  3402 ;;		_PWM4_LoadDutyValue
  3403 ;; This function is called by:
  3404 ;;		_main
  3405 ;; This function uses a non-reentrant model
  3406 ;;
  3407                           
  3408  04FA                     _rephainhanh:	
  3409                           ;psect for function _rephainhanh
  3410                           
  3411  04FA                     l1740:	
  3412                           ;incstack = 0
  3413                           ; Regs used in _rephainhanh: [wreg+status,2+status,0+pclath+cstack]
  3414                           
  3415                           
  3416                           ;main.c: 141:     LATCbits.LATC1 =0;
  3417  04FA  0022               	movlb	2	; select bank2
  3418  04FB  108E               	bcf	14,1	;volatile
  3419                           
  3420                           ;main.c: 142:     LATCbits.LATC2 = 0 ;
  3421  04FC  110E               	bcf	14,2	;volatile
  3422                           
  3423                           ;main.c: 143:     LATCbits.LATC0 = 0 ;
  3424  04FD  100E               	bcf	14,0	;volatile
  3425                           
  3426                           ;main.c: 144:     LATCbits.LATC3 =1;
  3427  04FE  158E               	bsf	14,3	;volatile
  3428  04FF                     l1742:
  3429                           
  3430                           ;main.c: 145:     PWM3_LoadDutyValue(600);
  3431  04FF  3058               	movlw	88
  3432  0500  00F0               	movwf	PWM3_LoadDutyValue@dutyValue
  3433  0501  3002               	movlw	2
  3434  0502  00F1               	movwf	PWM3_LoadDutyValue@dutyValue+1
  3435  0503  3185  254D  3184   	fcall	_PWM3_LoadDutyValue
  3436                           
  3437                           ;main.c: 146:     PWM4_LoadDutyValue(900);
  3438  0506  3084               	movlw	132
  3439  0507  00F0               	movwf	PWM4_LoadDutyValue@dutyValue
  3440  0508  3003               	movlw	3
  3441  0509  00F1               	movwf	PWM4_LoadDutyValue@dutyValue+1
  3442  050A  3185  2564  3184   	fcall	_PWM4_LoadDutyValue
  3443  050D                     l408:
  3444  050D  0008               	return
  3445  050E                     __end_of_rephainhanh:
  3446                           
  3447                           	psect	text6
  3448  0471                     __ptext6:	
  3449 ;; *************** function _rephai2 *****************
  3450 ;; Defined at:
  3451 ;;		line 116 in file "main.c"
  3452 ;; Parameters:    Size  Location     Type
  3453 ;;		None
  3454 ;; Auto vars:     Size  Location     Type
  3455 ;;		None
  3456 ;; Return value:  Size  Location     Type
  3457 ;;                  1    wreg      void 
  3458 ;; Registers used:
  3459 ;;		wreg, status,2, status,0, pclath, cstack
  3460 ;; Tracked objects:
  3461 ;;		On entry : 0/0
  3462 ;;		On exit  : 0/0
  3463 ;;		Unchanged: 0/0
  3464 ;; Data sizes:     COMMON   BANK0   BANK1   BANK2   BANK3   BANK4   BANK5   BANK6   BANK7   BANK8   BANK9  BANK10  BANK1
      +1  BANK12
  3465 ;;      Params:         0       0       0       0       0       0       0       0       0       0       0       0       
      +0       0
  3466 ;;      Locals:         0       0       0       0       0       0       0       0       0       0       0       0       
      +0       0
  3467 ;;      Temps:          0       0       0       0       0       0       0       0       0       0       0       0       
      +0       0
  3468 ;;      Totals:         0       0       0       0       0       0       0       0       0       0       0       0       
      +0       0
  3469 ;;Total ram usage:        0 bytes
  3470 ;; Hardware stack levels used: 1
  3471 ;; Hardware stack levels required when called: 1
  3472 ;; This function calls:
  3473 ;;		_PWM3_LoadDutyValue
  3474 ;;		_PWM4_LoadDutyValue
  3475 ;; This function is called by:
  3476 ;;		_main
  3477 ;; This function uses a non-reentrant model
  3478 ;;
  3479                           
  3480  0471                     _rephai2:	
  3481                           ;psect for function _rephai2
  3482                           
  3483  0471                     l1728:	
  3484                           ;incstack = 0
  3485                           ; Regs used in _rephai2: [wreg+status,2+status,0+pclath+cstack]
  3486                           
  3487                           
  3488                           ;main.c: 117:     LATCbits.LATC1 =0;
  3489  0471  0022               	movlb	2	; select bank2
  3490  0472  108E               	bcf	14,1	;volatile
  3491                           
  3492                           ;main.c: 118:     LATCbits.LATC2 = 0 ;
  3493  0473  110E               	bcf	14,2	;volatile
  3494                           
  3495                           ;main.c: 119:     LATCbits.LATC0 = 0 ;
  3496  0474  100E               	bcf	14,0	;volatile
  3497                           
  3498                           ;main.c: 120:     LATCbits.LATC3 =1;
  3499  0475  158E               	bsf	14,3	;volatile
  3500  0476                     l1730:
  3501                           
  3502                           ;main.c: 121:     PWM3_LoadDutyValue(0);
  3503  0476  3000               	movlw	0
  3504  0477  00F0               	movwf	PWM3_LoadDutyValue@dutyValue
  3505  0478  00F1               	movwf	PWM3_LoadDutyValue@dutyValue+1
  3506  0479  3185  254D  3184   	fcall	_PWM3_LoadDutyValue
  3507                           
  3508                           ;main.c: 122:     PWM4_LoadDutyValue(900);
  3509  047C  3084               	movlw	132
  3510  047D  00F0               	movwf	PWM4_LoadDutyValue@dutyValue
  3511  047E  3003               	movlw	3
  3512  047F  00F1               	movwf	PWM4_LoadDutyValue@dutyValue+1
  3513  0480  3185  2564  3184   	fcall	_PWM4_LoadDutyValue
  3514  0483                     l399:
  3515  0483  0008               	return
  3516  0484                     __end_of_rephai2:
  3517                           
  3518                           	psect	text7
  3519  045E                     __ptext7:	
  3520 ;; *************** function _rephai *****************
  3521 ;; Defined at:
  3522 ;;		line 92 in file "main.c"
  3523 ;; Parameters:    Size  Location     Type
  3524 ;;		None
  3525 ;; Auto vars:     Size  Location     Type
  3526 ;;		None
  3527 ;; Return value:  Size  Location     Type
  3528 ;;                  1    wreg      void 
  3529 ;; Registers used:
  3530 ;;		wreg, status,2, status,0, pclath, cstack
  3531 ;; Tracked objects:
  3532 ;;		On entry : 0/0
  3533 ;;		On exit  : 0/0
  3534 ;;		Unchanged: 0/0
  3535 ;; Data sizes:     COMMON   BANK0   BANK1   BANK2   BANK3   BANK4   BANK5   BANK6   BANK7   BANK8   BANK9  BANK10  BANK1
      +1  BANK12
  3536 ;;      Params:         0       0       0       0       0       0       0       0       0       0       0       0       
      +0       0
  3537 ;;      Locals:         0       0       0       0       0       0       0       0       0       0       0       0       
      +0       0
  3538 ;;      Temps:          0       0       0       0       0       0       0       0       0       0       0       0       
      +0       0
  3539 ;;      Totals:         0       0       0       0       0       0       0       0       0       0       0       0       
      +0       0
  3540 ;;Total ram usage:        0 bytes
  3541 ;; Hardware stack levels used: 1
  3542 ;; Hardware stack levels required when called: 1
  3543 ;; This function calls:
  3544 ;;		_PWM3_LoadDutyValue
  3545 ;;		_PWM4_LoadDutyValue
  3546 ;; This function is called by:
  3547 ;;		_main
  3548 ;; This function uses a non-reentrant model
  3549 ;;
  3550                           
  3551  045E                     _rephai:	
  3552                           ;psect for function _rephai
  3553                           
  3554  045E                     l1716:	
  3555                           ;incstack = 0
  3556                           ; Regs used in _rephai: [wreg+status,2+status,0+pclath+cstack]
  3557                           
  3558                           
  3559                           ;main.c: 93:     LATCbits.LATC1 =1;
  3560  045E  0022               	movlb	2	; select bank2
  3561  045F  148E               	bsf	14,1	;volatile
  3562                           
  3563                           ;main.c: 94:     LATCbits.LATC2 = 0 ;
  3564  0460  110E               	bcf	14,2	;volatile
  3565                           
  3566                           ;main.c: 95:     LATCbits.LATC0 = 0 ;
  3567  0461  100E               	bcf	14,0	;volatile
  3568                           
  3569                           ;main.c: 96:     LATCbits.LATC3 =1;
  3570  0462  158E               	bsf	14,3	;volatile
  3571  0463                     l1718:
  3572                           
  3573                           ;main.c: 97:     PWM3_LoadDutyValue(0);
  3574  0463  3000               	movlw	0
  3575  0464  00F0               	movwf	PWM3_LoadDutyValue@dutyValue
  3576  0465  00F1               	movwf	PWM3_LoadDutyValue@dutyValue+1
  3577  0466  3185  254D  3184   	fcall	_PWM3_LoadDutyValue
  3578                           
  3579                           ;main.c: 98:     PWM4_LoadDutyValue(900);
  3580  0469  3084               	movlw	132
  3581  046A  00F0               	movwf	PWM4_LoadDutyValue@dutyValue
  3582  046B  3003               	movlw	3
  3583  046C  00F1               	movwf	PWM4_LoadDutyValue@dutyValue+1
  3584  046D  3185  2564  3184   	fcall	_PWM4_LoadDutyValue
  3585  0470                     l390:
  3586  0470  0008               	return
  3587  0471                     __end_of_rephai:
  3588                           
  3589                           	psect	text8
  3590  05F8                     __ptext8:	
  3591 ;; *************** function _map *****************
  3592 ;; Defined at:
  3593 ;;		line 236 in file "main.c"
  3594 ;; Parameters:    Size  Location     Type
  3595 ;;  value           2    4[BANK0 ] int 
  3596 ;;  inputMin        2    6[BANK0 ] int 
  3597 ;;  inMax           2    8[BANK0 ] int 
  3598 ;;  outMin          2   10[BANK0 ] int 
  3599 ;;  outMax          2   12[BANK0 ] int 
  3600 ;; Auto vars:     Size  Location     Type
  3601 ;;		None
  3602 ;; Return value:  Size  Location     Type
  3603 ;;                  2    4[BANK0 ] unsigned short 
  3604 ;; Registers used:
  3605 ;;		wreg, status,2, status,0, pclath, cstack
  3606 ;; Tracked objects:
  3607 ;;		On entry : 0/0
  3608 ;;		On exit  : 0/0
  3609 ;;		Unchanged: 0/0
  3610 ;; Data sizes:     COMMON   BANK0   BANK1   BANK2   BANK3   BANK4   BANK5   BANK6   BANK7   BANK8   BANK9  BANK10  BANK1
      +1  BANK12
  3611 ;;      Params:         0      10       0       0       0       0       0       0       0       0       0       0       
      +0       0
  3612 ;;      Locals:         0       0       0       0       0       0       0       0       0       0       0       0       
      +0       0
  3613 ;;      Temps:          0       0       0       0       0       0       0       0       0       0       0       0       
      +0       0
  3614 ;;      Totals:         0      10       0       0       0       0       0       0       0       0       0       0       
      +0       0
  3615 ;;Total ram usage:       10 bytes
  3616 ;; Hardware stack levels used: 1
  3617 ;; Hardware stack levels required when called: 1
  3618 ;; This function calls:
  3619 ;;		___awdiv
  3620 ;;		___wmul
  3621 ;; This function is called by:
  3622 ;;		_main
  3623 ;; This function uses a non-reentrant model
  3624 ;;
  3625                           
  3626  05F8                     _map:	
  3627                           ;psect for function _map
  3628                           
  3629  05F8                     l1752:	
  3630                           ;incstack = 0
  3631                           ; Regs used in _map: [wreg+status,2+status,0+pclath+cstack]
  3632                           
  3633                           
  3634                           ;main.c: 237: return (value - inputMin)*(outMax - outMin)/(inMax- inputMin)+outMin;}
  3635  05F8  0020               	movlb	0	; select bank0
  3636  05F9  0826               	movf	map@inputMin,w
  3637  05FA  0228               	subwf	map@inMax,w
  3638  05FB  00F6               	movwf	___awdiv@divisor
  3639  05FC  0827               	movf	map@inputMin+1,w
  3640  05FD  3B29               	subwfb	map@inMax+1,w
  3641  05FE  00F7               	movwf	___awdiv@divisor+1
  3642  05FF  0826               	movf	map@inputMin,w
  3643  0600  0224               	subwf	map@value,w
  3644  0601  00F0               	movwf	___wmul@multiplier
  3645  0602  0827               	movf	map@inputMin+1,w
  3646  0603  3B25               	subwfb	map@value+1,w
  3647  0604  00F1               	movwf	___wmul@multiplier+1
  3648  0605  082A               	movf	map@outMin,w
  3649  0606  022C               	subwf	map@outMax,w
  3650  0607  00F2               	movwf	___wmul@multiplicand
  3651  0608  082B               	movf	map@outMin+1,w
  3652  0609  3B2D               	subwfb	map@outMax+1,w
  3653  060A  00F3               	movwf	___wmul@multiplicand+1
  3654  060B  3185  2596  3185   	fcall	___wmul
  3655  060E  0871               	movf	?___wmul+1,w
  3656  060F  00F9               	movwf	___awdiv@dividend+1
  3657  0610  0870               	movf	?___wmul,w
  3658  0611  00F8               	movwf	___awdiv@dividend
  3659  0612  3186  261D  3185   	fcall	___awdiv
  3660  0615  0020               	movlb	0	; select bank0
  3661  0616  082A               	movf	map@outMin,w
  3662  0617  0776               	addwf	?___awdiv,w
  3663  0618  00A4               	movwf	?_map
  3664  0619  082B               	movf	map@outMin+1,w
  3665  061A  3D77               	addwfc	?___awdiv+1,w
  3666  061B  00A5               	movwf	?_map+1
  3667  061C                     l462:
  3668  061C  0008               	return
  3669  061D                     __end_of_map:
  3670                           
  3671                           	psect	text9
  3672  0596                     __ptext9:	
  3673 ;; *************** function ___wmul *****************
  3674 ;; Defined at:
  3675 ;;		line 15 in file "C:\Program Files\Microchip\xc8\v2.36\pic\sources\c99\common\Umul16.c"
  3676 ;; Parameters:    Size  Location     Type
  3677 ;;  multiplier      2    0[COMMON] unsigned int 
  3678 ;;  multiplicand    2    2[COMMON] unsigned int 
  3679 ;; Auto vars:     Size  Location     Type
  3680 ;;  product         2    4[COMMON] unsigned int 
  3681 ;; Return value:  Size  Location     Type
  3682 ;;                  2    0[COMMON] unsigned int 
  3683 ;; Registers used:
  3684 ;;		wreg, status,2, status,0
  3685 ;; Tracked objects:
  3686 ;;		On entry : 0/0
  3687 ;;		On exit  : 0/0
  3688 ;;		Unchanged: 0/0
  3689 ;; Data sizes:     COMMON   BANK0   BANK1   BANK2   BANK3   BANK4   BANK5   BANK6   BANK7   BANK8   BANK9  BANK10  BANK1
      +1  BANK12
  3690 ;;      Params:         4       0       0       0       0       0       0       0       0       0       0       0       
      +0       0
  3691 ;;      Locals:         2       0       0       0       0       0       0       0       0       0       0       0       
      +0       0
  3692 ;;      Temps:          0       0       0       0       0       0       0       0       0       0       0       0       
      +0       0
  3693 ;;      Totals:         6       0       0       0       0       0       0       0       0       0       0       0       
      +0       0
  3694 ;;Total ram usage:        6 bytes
  3695 ;; Hardware stack levels used: 1
  3696 ;; This function calls:
  3697 ;;		Nothing
  3698 ;; This function is called by:
  3699 ;;		_map
  3700 ;; This function uses a non-reentrant model
  3701 ;;
  3702                           
  3703  0596                     ___wmul:	
  3704                           ;psect for function ___wmul
  3705                           
  3706  0596                     l1626:	
  3707                           ;incstack = 0
  3708                           ; Regs used in ___wmul: [wreg+status,2+status,0]
  3709                           
  3710  0596  01F4               	clrf	___wmul@product
  3711  0597  01F5               	clrf	___wmul@product+1
  3712  0598                     l1628:
  3713  0598  1C70               	btfss	___wmul@multiplier,0
  3714  0599  2D9B               	goto	u631
  3715  059A  2D9C               	goto	u630
  3716  059B                     u631:
  3717  059B  2DA0               	goto	l612
  3718  059C                     u630:
  3719  059C                     l1630:
  3720  059C  0872               	movf	___wmul@multiplicand,w
  3721  059D  07F4               	addwf	___wmul@product,f
  3722  059E  0873               	movf	___wmul@multiplicand+1,w
  3723  059F  3DF5               	addwfc	___wmul@product+1,f
  3724  05A0                     l612:
  3725  05A0  3001               	movlw	1
  3726  05A1                     u645:
  3727  05A1  35F2               	lslf	___wmul@multiplicand,f
  3728  05A2  0DF3               	rlf	___wmul@multiplicand+1,f
  3729  05A3  0B89               	decfsz	9,f
  3730  05A4  2DA1               	goto	u645
  3731  05A5                     l1632:
  3732  05A5  3001               	movlw	1
  3733  05A6                     u655:
  3734  05A6  36F1               	lsrf	___wmul@multiplier+1,f
  3735  05A7  0CF0               	rrf	___wmul@multiplier,f
  3736  05A8  0B89               	decfsz	9,f
  3737  05A9  2DA6               	goto	u655
  3738  05AA                     l1634:
  3739  05AA  0870               	movf	___wmul@multiplier,w
  3740  05AB  0471               	iorwf	___wmul@multiplier+1,w
  3741  05AC  1D03               	btfss	3,2
  3742  05AD  2DAF               	goto	u661
  3743  05AE  2DB0               	goto	u660
  3744  05AF                     u661:
  3745  05AF  2D98               	goto	l1628
  3746  05B0                     u660:
  3747  05B0                     l1636:
  3748  05B0  0875               	movf	___wmul@product+1,w
  3749  05B1  00F1               	movwf	?___wmul+1
  3750  05B2  0874               	movf	___wmul@product,w
  3751  05B3  00F0               	movwf	?___wmul
  3752  05B4                     l614:
  3753  05B4  0008               	return
  3754  05B5                     __end_of___wmul:
  3755                           
  3756                           	psect	text10
  3757  061D                     __ptext10:	
  3758 ;; *************** function ___awdiv *****************
  3759 ;; Defined at:
  3760 ;;		line 5 in file "C:\Program Files\Microchip\xc8\v2.36\pic\sources\c99\common\awdiv.c"
  3761 ;; Parameters:    Size  Location     Type
  3762 ;;  divisor         2    6[COMMON] int 
  3763 ;;  dividend        2    8[COMMON] int 
  3764 ;; Auto vars:     Size  Location     Type
  3765 ;;  quotient        2    2[BANK0 ] int 
  3766 ;;  sign            1    1[BANK0 ] unsigned char 
  3767 ;;  counter         1    0[BANK0 ] unsigned char 
  3768 ;; Return value:  Size  Location     Type
  3769 ;;                  2    6[COMMON] int 
  3770 ;; Registers used:
  3771 ;;		wreg, status,2, status,0
  3772 ;; Tracked objects:
  3773 ;;		On entry : 0/0
  3774 ;;		On exit  : 0/0
  3775 ;;		Unchanged: 0/0
  3776 ;; Data sizes:     COMMON   BANK0   BANK1   BANK2   BANK3   BANK4   BANK5   BANK6   BANK7   BANK8   BANK9  BANK10  BANK1
      +1  BANK12
  3777 ;;      Params:         4       0       0       0       0       0       0       0       0       0       0       0       
      +0       0
  3778 ;;      Locals:         0       4       0       0       0       0       0       0       0       0       0       0       
      +0       0
  3779 ;;      Temps:          1       0       0       0       0       0       0       0       0       0       0       0       
      +0       0
  3780 ;;      Totals:         5       4       0       0       0       0       0       0       0       0       0       0       
      +0       0
  3781 ;;Total ram usage:        9 bytes
  3782 ;; Hardware stack levels used: 1
  3783 ;; This function calls:
  3784 ;;		Nothing
  3785 ;; This function is called by:
  3786 ;;		_map
  3787 ;; This function uses a non-reentrant model
  3788 ;;
  3789                           
  3790  061D                     ___awdiv:	
  3791                           ;psect for function ___awdiv
  3792                           
  3793  061D                     l1640:	
  3794                           ;incstack = 0
  3795                           ; Regs used in ___awdiv: [wreg+status,2+status,0]
  3796                           
  3797  061D  0020               	movlb	0	; select bank0
  3798  061E  01A1               	clrf	___awdiv@sign
  3799  061F                     l1642:
  3800  061F  1FF7               	btfss	___awdiv@divisor+1,7
  3801  0620  2E22               	goto	u671
  3802  0621  2E23               	goto	u670
  3803  0622                     u671:
  3804  0622  2E2A               	goto	l1648
  3805  0623                     u670:
  3806  0623                     l1644:
  3807  0623  09F6               	comf	___awdiv@divisor,f
  3808  0624  09F7               	comf	___awdiv@divisor+1,f
  3809  0625  0AF6               	incf	___awdiv@divisor,f
  3810  0626  1903               	skipnz
  3811  0627  0AF7               	incf	___awdiv@divisor+1,f
  3812  0628                     l1646:
  3813  0628  01A1               	clrf	___awdiv@sign
  3814  0629  0AA1               	incf	___awdiv@sign,f
  3815  062A                     l1648:
  3816  062A  1FF9               	btfss	___awdiv@dividend+1,7
  3817  062B  2E2D               	goto	u681
  3818  062C  2E2E               	goto	u680
  3819  062D                     u681:
  3820  062D  2E37               	goto	l1654
  3821  062E                     u680:
  3822  062E                     l1650:
  3823  062E  09F8               	comf	___awdiv@dividend,f
  3824  062F  09F9               	comf	___awdiv@dividend+1,f
  3825  0630  0AF8               	incf	___awdiv@dividend,f
  3826  0631  1903               	skipnz
  3827  0632  0AF9               	incf	___awdiv@dividend+1,f
  3828  0633                     l1652:
  3829  0633  3001               	movlw	1
  3830  0634  00FA               	movwf	??___awdiv
  3831  0635  087A               	movf	??___awdiv,w
  3832  0636  06A1               	xorwf	___awdiv@sign,f
  3833  0637                     l1654:
  3834  0637  01A2               	clrf	___awdiv@quotient
  3835  0638  01A3               	clrf	___awdiv@quotient+1
  3836  0639                     l1656:
  3837  0639  0876               	movf	___awdiv@divisor,w
  3838  063A  0477               	iorwf	___awdiv@divisor+1,w
  3839  063B  1903               	btfsc	3,2
  3840  063C  2E3E               	goto	u691
  3841  063D  2E3F               	goto	u690
  3842  063E                     u691:
  3843  063E  2E6E               	goto	l1676
  3844  063F                     u690:
  3845  063F                     l1658:
  3846  063F  01A0               	clrf	___awdiv@counter
  3847  0640  0AA0               	incf	___awdiv@counter,f
  3848  0641  2E4B               	goto	l1664
  3849  0642                     l1660:
  3850  0642  3001               	movlw	1
  3851  0643                     u705:
  3852  0643  35F6               	lslf	___awdiv@divisor,f
  3853  0644  0DF7               	rlf	___awdiv@divisor+1,f
  3854  0645  0B89               	decfsz	9,f
  3855  0646  2E43               	goto	u705
  3856  0647                     l1662:
  3857  0647  3001               	movlw	1
  3858  0648  00FA               	movwf	??___awdiv
  3859  0649  087A               	movf	??___awdiv,w
  3860  064A  07A0               	addwf	___awdiv@counter,f
  3861  064B                     l1664:
  3862  064B  1FF7               	btfss	___awdiv@divisor+1,7
  3863  064C  2E4E               	goto	u711
  3864  064D  2E4F               	goto	u710
  3865  064E                     u711:
  3866  064E  2E42               	goto	l1660
  3867  064F                     u710:
  3868  064F                     l1666:
  3869  064F  3001               	movlw	1
  3870  0650                     u725:
  3871  0650  35A2               	lslf	___awdiv@quotient,f
  3872  0651  0DA3               	rlf	___awdiv@quotient+1,f
  3873  0652  0B89               	decfsz	9,f
  3874  0653  2E50               	goto	u725
  3875  0654  0877               	movf	___awdiv@divisor+1,w
  3876  0655  0279               	subwf	___awdiv@dividend+1,w
  3877  0656  1D03               	skipz
  3878  0657  2E5A               	goto	u735
  3879  0658  0876               	movf	___awdiv@divisor,w
  3880  0659  0278               	subwf	___awdiv@dividend,w
  3881  065A                     u735:
  3882  065A  1C03               	skipc
  3883  065B  2E5D               	goto	u731
  3884  065C  2E5E               	goto	u730
  3885  065D                     u731:
  3886  065D  2E63               	goto	l1672
  3887  065E                     u730:
  3888  065E                     l1668:
  3889  065E  0876               	movf	___awdiv@divisor,w
  3890  065F  02F8               	subwf	___awdiv@dividend,f
  3891  0660  0877               	movf	___awdiv@divisor+1,w
  3892  0661  3BF9               	subwfb	___awdiv@dividend+1,f
  3893  0662                     l1670:
  3894  0662  1422               	bsf	___awdiv@quotient,0
  3895  0663                     l1672:
  3896  0663  3001               	movlw	1
  3897  0664                     u745:
  3898  0664  36F7               	lsrf	___awdiv@divisor+1,f
  3899  0665  0CF6               	rrf	___awdiv@divisor,f
  3900  0666  0B89               	decfsz	9,f
  3901  0667  2E64               	goto	u745
  3902  0668                     l1674:
  3903  0668  3001               	movlw	1
  3904  0669  02A0               	subwf	___awdiv@counter,f
  3905  066A  1D03               	btfss	3,2
  3906  066B  2E6D               	goto	u751
  3907  066C  2E6E               	goto	u750
  3908  066D                     u751:
  3909  066D  2E4F               	goto	l1666
  3910  066E                     u750:
  3911  066E                     l1676:
  3912  066E  0821               	movf	___awdiv@sign,w
  3913  066F  1903               	btfsc	3,2
  3914  0670  2E72               	goto	u761
  3915  0671  2E73               	goto	u760
  3916  0672                     u761:
  3917  0672  2E78               	goto	l1680
  3918  0673                     u760:
  3919  0673                     l1678:
  3920  0673  09A2               	comf	___awdiv@quotient,f
  3921  0674  09A3               	comf	___awdiv@quotient+1,f
  3922  0675  0AA2               	incf	___awdiv@quotient,f
  3923  0676  1903               	skipnz
  3924  0677  0AA3               	incf	___awdiv@quotient+1,f
  3925  0678                     l1680:
  3926  0678  0823               	movf	___awdiv@quotient+1,w
  3927  0679  00F7               	movwf	?___awdiv+1
  3928  067A  0822               	movf	___awdiv@quotient,w
  3929  067B  00F6               	movwf	?___awdiv
  3930  067C                     l765:
  3931  067C  0008               	return
  3932  067D                     __end_of___awdiv:
  3933                           
  3934                           	psect	text11
  3935  04E6                     __ptext11:	
  3936 ;; *************** function _lui_nhanh *****************
  3937 ;; Defined at:
  3938 ;;		line 156 in file "main.c"
  3939 ;; Parameters:    Size  Location     Type
  3940 ;;		None
  3941 ;; Auto vars:     Size  Location     Type
  3942 ;;		None
  3943 ;; Return value:  Size  Location     Type
  3944 ;;                  1    wreg      void 
  3945 ;; Registers used:
  3946 ;;		wreg, status,2, status,0, pclath, cstack
  3947 ;; Tracked objects:
  3948 ;;		On entry : 0/0
  3949 ;;		On exit  : 0/0
  3950 ;;		Unchanged: 0/0
  3951 ;; Data sizes:     COMMON   BANK0   BANK1   BANK2   BANK3   BANK4   BANK5   BANK6   BANK7   BANK8   BANK9  BANK10  BANK1
      +1  BANK12
  3952 ;;      Params:         0       0       0       0       0       0       0       0       0       0       0       0       
      +0       0
  3953 ;;      Locals:         0       0       0       0       0       0       0       0       0       0       0       0       
      +0       0
  3954 ;;      Temps:          0       0       0       0       0       0       0       0       0       0       0       0       
      +0       0
  3955 ;;      Totals:         0       0       0       0       0       0       0       0       0       0       0       0       
      +0       0
  3956 ;;Total ram usage:        0 bytes
  3957 ;; Hardware stack levels used: 1
  3958 ;; Hardware stack levels required when called: 1
  3959 ;; This function calls:
  3960 ;;		_PWM3_LoadDutyValue
  3961 ;;		_PWM4_LoadDutyValue
  3962 ;; This function is called by:
  3963 ;;		_main
  3964 ;; This function uses a non-reentrant model
  3965 ;;
  3966                           
  3967  04E6                     _lui_nhanh:	
  3968                           ;psect for function _lui_nhanh
  3969                           
  3970  04E6                     l1748:	
  3971                           ;incstack = 0
  3972                           ; Regs used in _lui_nhanh: [wreg+status,2+status,0+pclath+cstack]
  3973                           
  3974                           
  3975                           ;main.c: 157:     LATCbits.LATC1 =1;
  3976  04E6  0022               	movlb	2	; select bank2
  3977  04E7  148E               	bsf	14,1	;volatile
  3978                           
  3979                           ;main.c: 158:     LATCbits.LATC2 = 1 ;
  3980  04E8  150E               	bsf	14,2	;volatile
  3981                           
  3982                           ;main.c: 159:     LATCbits.LATC0 = 0 ;
  3983  04E9  100E               	bcf	14,0	;volatile
  3984                           
  3985                           ;main.c: 160:     LATCbits.LATC3 =0;
  3986  04EA  118E               	bcf	14,3	;volatile
  3987  04EB                     l1750:
  3988                           
  3989                           ;main.c: 161:     PWM3_LoadDutyValue(700);
  3990  04EB  30BC               	movlw	188
  3991  04EC  00F0               	movwf	PWM3_LoadDutyValue@dutyValue
  3992  04ED  3002               	movlw	2
  3993  04EE  00F1               	movwf	PWM3_LoadDutyValue@dutyValue+1
  3994  04EF  3185  254D  3184   	fcall	_PWM3_LoadDutyValue
  3995                           
  3996                           ;main.c: 162:     PWM4_LoadDutyValue(700);
  3997  04F2  30BC               	movlw	188
  3998  04F3  00F0               	movwf	PWM4_LoadDutyValue@dutyValue
  3999  04F4  3002               	movlw	2
  4000  04F5  00F1               	movwf	PWM4_LoadDutyValue@dutyValue+1
  4001  04F6  3185  2564  3184   	fcall	_PWM4_LoadDutyValue
  4002  04F9                     l414:
  4003  04F9  0008               	return
  4004  04FA                     __end_of_lui_nhanh:
  4005                           
  4006                           	psect	text12
  4007  04D2                     __ptext12:	
  4008 ;; *************** function _lui *****************
  4009 ;; Defined at:
  4010 ;;		line 148 in file "main.c"
  4011 ;; Parameters:    Size  Location     Type
  4012 ;;		None
  4013 ;; Auto vars:     Size  Location     Type
  4014 ;;		None
  4015 ;; Return value:  Size  Location     Type
  4016 ;;                  1    wreg      void 
  4017 ;; Registers used:
  4018 ;;		wreg, status,2, status,0, pclath, cstack
  4019 ;; Tracked objects:
  4020 ;;		On entry : 0/0
  4021 ;;		On exit  : 0/0
  4022 ;;		Unchanged: 0/0
  4023 ;; Data sizes:     COMMON   BANK0   BANK1   BANK2   BANK3   BANK4   BANK5   BANK6   BANK7   BANK8   BANK9  BANK10  BANK1
      +1  BANK12
  4024 ;;      Params:         0       0       0       0       0       0       0       0       0       0       0       0       
      +0       0
  4025 ;;      Locals:         0       0       0       0       0       0       0       0       0       0       0       0       
      +0       0
  4026 ;;      Temps:          0       0       0       0       0       0       0       0       0       0       0       0       
      +0       0
  4027 ;;      Totals:         0       0       0       0       0       0       0       0       0       0       0       0       
      +0       0
  4028 ;;Total ram usage:        0 bytes
  4029 ;; Hardware stack levels used: 1
  4030 ;; Hardware stack levels required when called: 1
  4031 ;; This function calls:
  4032 ;;		_PWM3_LoadDutyValue
  4033 ;;		_PWM4_LoadDutyValue
  4034 ;; This function is called by:
  4035 ;;		_main
  4036 ;; This function uses a non-reentrant model
  4037 ;;
  4038                           
  4039  04D2                     _lui:	
  4040                           ;psect for function _lui
  4041                           
  4042  04D2                     l1744:	
  4043                           ;incstack = 0
  4044                           ; Regs used in _lui: [wreg+status,2+status,0+pclath+cstack]
  4045                           
  4046                           
  4047                           ;main.c: 149:     LATCbits.LATC1 =1;
  4048  04D2  0022               	movlb	2	; select bank2
  4049  04D3  148E               	bsf	14,1	;volatile
  4050                           
  4051                           ;main.c: 150:     LATCbits.LATC2 = 1 ;
  4052  04D4  150E               	bsf	14,2	;volatile
  4053                           
  4054                           ;main.c: 151:     LATCbits.LATC0 = 0 ;
  4055  04D5  100E               	bcf	14,0	;volatile
  4056                           
  4057                           ;main.c: 152:     LATCbits.LATC3 =0;
  4058  04D6  118E               	bcf	14,3	;volatile
  4059  04D7                     l1746:
  4060                           
  4061                           ;main.c: 153:     PWM3_LoadDutyValue(600);
  4062  04D7  3058               	movlw	88
  4063  04D8  00F0               	movwf	PWM3_LoadDutyValue@dutyValue
  4064  04D9  3002               	movlw	2
  4065  04DA  00F1               	movwf	PWM3_LoadDutyValue@dutyValue+1
  4066  04DB  3185  254D  3184   	fcall	_PWM3_LoadDutyValue
  4067                           
  4068                           ;main.c: 154:     PWM4_LoadDutyValue(600);
  4069  04DE  3058               	movlw	88
  4070  04DF  00F0               	movwf	PWM4_LoadDutyValue@dutyValue
  4071  04E0  3002               	movlw	2
  4072  04E1  00F1               	movwf	PWM4_LoadDutyValue@dutyValue+1
  4073  04E2  3185  2564  3184   	fcall	_PWM4_LoadDutyValue
  4074  04E5                     l411:
  4075  04E5  0008               	return
  4076  04E6                     __end_of_lui:
  4077                           
  4078                           	psect	text13
  4079  044C                     __ptext13:	
  4080 ;; *************** function _dung_lai *****************
  4081 ;; Defined at:
  4082 ;;		line 84 in file "main.c"
  4083 ;; Parameters:    Size  Location     Type
  4084 ;;		None
  4085 ;; Auto vars:     Size  Location     Type
  4086 ;;		None
  4087 ;; Return value:  Size  Location     Type
  4088 ;;                  1    wreg      void 
  4089 ;; Registers used:
  4090 ;;		wreg, status,2, status,0, pclath, cstack
  4091 ;; Tracked objects:
  4092 ;;		On entry : 0/0
  4093 ;;		On exit  : 0/0
  4094 ;;		Unchanged: 0/0
  4095 ;; Data sizes:     COMMON   BANK0   BANK1   BANK2   BANK3   BANK4   BANK5   BANK6   BANK7   BANK8   BANK9  BANK10  BANK1
      +1  BANK12
  4096 ;;      Params:         0       0       0       0       0       0       0       0       0       0       0       0       
      +0       0
  4097 ;;      Locals:         0       0       0       0       0       0       0       0       0       0       0       0       
      +0       0
  4098 ;;      Temps:          0       0       0       0       0       0       0       0       0       0       0       0       
      +0       0
  4099 ;;      Totals:         0       0       0       0       0       0       0       0       0       0       0       0       
      +0       0
  4100 ;;Total ram usage:        0 bytes
  4101 ;; Hardware stack levels used: 1
  4102 ;; Hardware stack levels required when called: 1
  4103 ;; This function calls:
  4104 ;;		_PWM3_LoadDutyValue
  4105 ;;		_PWM4_LoadDutyValue
  4106 ;; This function is called by:
  4107 ;;		_main
  4108 ;; This function uses a non-reentrant model
  4109 ;;
  4110                           
  4111  044C                     _dung_lai:	
  4112                           ;psect for function _dung_lai
  4113                           
  4114  044C                     l1712:	
  4115                           ;incstack = 0
  4116                           ; Regs used in _dung_lai: [wreg+status,2+status,0+pclath+cstack]
  4117                           
  4118                           
  4119                           ;main.c: 85:     LATCbits.LATC1 =0;
  4120  044C  0022               	movlb	2	; select bank2
  4121  044D  108E               	bcf	14,1	;volatile
  4122                           
  4123                           ;main.c: 86:     LATCbits.LATC2 = 0 ;
  4124  044E  110E               	bcf	14,2	;volatile
  4125                           
  4126                           ;main.c: 87:     LATCbits.LATC0 = 0 ;
  4127  044F  100E               	bcf	14,0	;volatile
  4128                           
  4129                           ;main.c: 88:     LATCbits.LATC3 =0;
  4130  0450  118E               	bcf	14,3	;volatile
  4131  0451                     l1714:
  4132                           
  4133                           ;main.c: 89:     PWM3_LoadDutyValue(0);
  4134  0451  3000               	movlw	0
  4135  0452  00F0               	movwf	PWM3_LoadDutyValue@dutyValue
  4136  0453  00F1               	movwf	PWM3_LoadDutyValue@dutyValue+1
  4137  0454  3185  254D  3184   	fcall	_PWM3_LoadDutyValue
  4138                           
  4139                           ;main.c: 90:     PWM4_LoadDutyValue(0);
  4140  0457  3000               	movlw	0
  4141  0458  00F0               	movwf	PWM4_LoadDutyValue@dutyValue
  4142  0459  00F1               	movwf	PWM4_LoadDutyValue@dutyValue+1
  4143  045A  3185  2564  3184   	fcall	_PWM4_LoadDutyValue
  4144  045D                     l387:
  4145  045D  0008               	return
  4146  045E                     __end_of_dung_lai:
  4147                           
  4148                           	psect	text14
  4149  04BE                     __ptext14:	
  4150 ;; *************** function _di_thang_nhanh *****************
  4151 ;; Defined at:
  4152 ;;		line 76 in file "main.c"
  4153 ;; Parameters:    Size  Location     Type
  4154 ;;		None
  4155 ;; Auto vars:     Size  Location     Type
  4156 ;;		None
  4157 ;; Return value:  Size  Location     Type
  4158 ;;                  1    wreg      void 
  4159 ;; Registers used:
  4160 ;;		wreg, status,2, status,0, pclath, cstack
  4161 ;; Tracked objects:
  4162 ;;		On entry : 0/0
  4163 ;;		On exit  : 0/0
  4164 ;;		Unchanged: 0/0
  4165 ;; Data sizes:     COMMON   BANK0   BANK1   BANK2   BANK3   BANK4   BANK5   BANK6   BANK7   BANK8   BANK9  BANK10  BANK1
      +1  BANK12
  4166 ;;      Params:         0       0       0       0       0       0       0       0       0       0       0       0       
      +0       0
  4167 ;;      Locals:         0       0       0       0       0       0       0       0       0       0       0       0       
      +0       0
  4168 ;;      Temps:          0       0       0       0       0       0       0       0       0       0       0       0       
      +0       0
  4169 ;;      Totals:         0       0       0       0       0       0       0       0       0       0       0       0       
      +0       0
  4170 ;;Total ram usage:        0 bytes
  4171 ;; Hardware stack levels used: 1
  4172 ;; Hardware stack levels required when called: 1
  4173 ;; This function calls:
  4174 ;;		_PWM3_LoadDutyValue
  4175 ;;		_PWM4_LoadDutyValue
  4176 ;; This function is called by:
  4177 ;;		_main
  4178 ;; This function uses a non-reentrant model
  4179 ;;
  4180                           
  4181  04BE                     _di_thang_nhanh:	
  4182                           ;psect for function _di_thang_nhanh
  4183                           
  4184  04BE                     l1708:	
  4185                           ;incstack = 0
  4186                           ; Regs used in _di_thang_nhanh: [wreg+status,2+status,0+pclath+cstack]
  4187                           
  4188                           
  4189                           ;main.c: 77:     LATCbits.LATC1 =0;
  4190  04BE  0022               	movlb	2	; select bank2
  4191  04BF  108E               	bcf	14,1	;volatile
  4192                           
  4193                           ;main.c: 78:     LATCbits.LATC3 = 0 ;
  4194  04C0  118E               	bcf	14,3	;volatile
  4195                           
  4196                           ;main.c: 79:     LATCbits.LATC0 = 1 ;
  4197  04C1  140E               	bsf	14,0	;volatile
  4198                           
  4199                           ;main.c: 80:     LATCbits.LATC3 =1;
  4200  04C2  158E               	bsf	14,3	;volatile
  4201  04C3                     l1710:
  4202                           
  4203                           ;main.c: 81:     PWM3_LoadDutyValue(700);
  4204  04C3  30BC               	movlw	188
  4205  04C4  00F0               	movwf	PWM3_LoadDutyValue@dutyValue
  4206  04C5  3002               	movlw	2
  4207  04C6  00F1               	movwf	PWM3_LoadDutyValue@dutyValue+1
  4208  04C7  3185  254D  3184   	fcall	_PWM3_LoadDutyValue
  4209                           
  4210                           ;main.c: 82:     PWM4_LoadDutyValue(700);
  4211  04CA  30BC               	movlw	188
  4212  04CB  00F0               	movwf	PWM4_LoadDutyValue@dutyValue
  4213  04CC  3002               	movlw	2
  4214  04CD  00F1               	movwf	PWM4_LoadDutyValue@dutyValue+1
  4215  04CE  3185  2564  3184   	fcall	_PWM4_LoadDutyValue
  4216  04D1                     l384:
  4217  04D1  0008               	return
  4218  04D2                     __end_of_di_thang_nhanh:
  4219                           
  4220                           	psect	text15
  4221  04AA                     __ptext15:	
  4222 ;; *************** function _di_thang *****************
  4223 ;; Defined at:
  4224 ;;		line 68 in file "main.c"
  4225 ;; Parameters:    Size  Location     Type
  4226 ;;		None
  4227 ;; Auto vars:     Size  Location     Type
  4228 ;;		None
  4229 ;; Return value:  Size  Location     Type
  4230 ;;                  1    wreg      void 
  4231 ;; Registers used:
  4232 ;;		wreg, status,2, status,0, pclath, cstack
  4233 ;; Tracked objects:
  4234 ;;		On entry : 0/0
  4235 ;;		On exit  : 0/0
  4236 ;;		Unchanged: 0/0
  4237 ;; Data sizes:     COMMON   BANK0   BANK1   BANK2   BANK3   BANK4   BANK5   BANK6   BANK7   BANK8   BANK9  BANK10  BANK1
      +1  BANK12
  4238 ;;      Params:         0       0       0       0       0       0       0       0       0       0       0       0       
      +0       0
  4239 ;;      Locals:         0       0       0       0       0       0       0       0       0       0       0       0       
      +0       0
  4240 ;;      Temps:          0       0       0       0       0       0       0       0       0       0       0       0       
      +0       0
  4241 ;;      Totals:         0       0       0       0       0       0       0       0       0       0       0       0       
      +0       0
  4242 ;;Total ram usage:        0 bytes
  4243 ;; Hardware stack levels used: 1
  4244 ;; Hardware stack levels required when called: 1
  4245 ;; This function calls:
  4246 ;;		_PWM3_LoadDutyValue
  4247 ;;		_PWM4_LoadDutyValue
  4248 ;; This function is called by:
  4249 ;;		_main
  4250 ;; This function uses a non-reentrant model
  4251 ;;
  4252                           
  4253  04AA                     _di_thang:	
  4254                           ;psect for function _di_thang
  4255                           
  4256  04AA                     l1704:	
  4257                           ;incstack = 0
  4258                           ; Regs used in _di_thang: [wreg+status,2+status,0+pclath+cstack]
  4259                           
  4260                           
  4261                           ;main.c: 69:     LATCbits.LATC1 =0;
  4262  04AA  0022               	movlb	2	; select bank2
  4263  04AB  108E               	bcf	14,1	;volatile
  4264                           
  4265                           ;main.c: 70:     LATCbits.LATC2 = 0 ;
  4266  04AC  110E               	bcf	14,2	;volatile
  4267                           
  4268                           ;main.c: 71:     LATCbits.LATC0 = 1 ;
  4269  04AD  140E               	bsf	14,0	;volatile
  4270                           
  4271                           ;main.c: 72:     LATCbits.LATC3 =1;
  4272  04AE  158E               	bsf	14,3	;volatile
  4273  04AF                     l1706:
  4274                           
  4275                           ;main.c: 73:     PWM3_LoadDutyValue(600);
  4276  04AF  3058               	movlw	88
  4277  04B0  00F0               	movwf	PWM3_LoadDutyValue@dutyValue
  4278  04B1  3002               	movlw	2
  4279  04B2  00F1               	movwf	PWM3_LoadDutyValue@dutyValue+1
  4280  04B3  3185  254D  3184   	fcall	_PWM3_LoadDutyValue
  4281                           
  4282                           ;main.c: 74:     PWM4_LoadDutyValue(600);
  4283  04B6  3058               	movlw	88
  4284  04B7  00F0               	movwf	PWM4_LoadDutyValue@dutyValue
  4285  04B8  3002               	movlw	2
  4286  04B9  00F1               	movwf	PWM4_LoadDutyValue@dutyValue+1
  4287  04BA  3185  2564  3184   	fcall	_PWM4_LoadDutyValue
  4288  04BD                     l381:
  4289  04BD  0008               	return
  4290  04BE                     __end_of_di_thang:
  4291                           
  4292                           	psect	text16
  4293  0564                     __ptext16:	
  4294 ;; *************** function _PWM4_LoadDutyValue *****************
  4295 ;; Defined at:
  4296 ;;		line 82 in file "mcc_generated_files/pwm4.c"
  4297 ;; Parameters:    Size  Location     Type
  4298 ;;  dutyValue       2    0[COMMON] unsigned short 
  4299 ;; Auto vars:     Size  Location     Type
  4300 ;;		None
  4301 ;; Return value:  Size  Location     Type
  4302 ;;                  1    wreg      void 
  4303 ;; Registers used:
  4304 ;;		wreg, status,2, status,0
  4305 ;; Tracked objects:
  4306 ;;		On entry : 0/0
  4307 ;;		On exit  : 0/0
  4308 ;;		Unchanged: 0/0
  4309 ;; Data sizes:     COMMON   BANK0   BANK1   BANK2   BANK3   BANK4   BANK5   BANK6   BANK7   BANK8   BANK9  BANK10  BANK1
      +1  BANK12
  4310 ;;      Params:         2       0       0       0       0       0       0       0       0       0       0       0       
      +0       0
  4311 ;;      Locals:         0       0       0       0       0       0       0       0       0       0       0       0       
      +0       0
  4312 ;;      Temps:          2       0       0       0       0       0       0       0       0       0       0       0       
      +0       0
  4313 ;;      Totals:         4       0       0       0       0       0       0       0       0       0       0       0       
      +0       0
  4314 ;;Total ram usage:        4 bytes
  4315 ;; Hardware stack levels used: 1
  4316 ;; This function calls:
  4317 ;;		Nothing
  4318 ;; This function is called by:
  4319 ;;		_di_thang
  4320 ;;		_di_thang_nhanh
  4321 ;;		_dung_lai
  4322 ;;		_rephai
  4323 ;;		_retrai
  4324 ;;		_retrai2
  4325 ;;		_rephai2
  4326 ;;		_retrai3
  4327 ;;		_retrainhanh
  4328 ;;		_rephainhanh
  4329 ;;		_lui
  4330 ;;		_lui_nhanh
  4331 ;; This function uses a non-reentrant model
  4332 ;;
  4333                           
  4334  0564                     _PWM4_LoadDutyValue:	
  4335                           ;psect for function _PWM4_LoadDutyValue
  4336                           
  4337  0564                     l1624:	
  4338                           ;incstack = 0
  4339                           ; Regs used in _PWM4_LoadDutyValue: [wreg+status,2+status,0]
  4340                           
  4341                           
  4342                           ;mcc_generated_files/pwm4.c: 82: void PWM4_LoadDutyValue(uint16_t dutyValue);mcc_generat
      +                          ed_files/pwm4.c: 83: {;mcc_generated_files/pwm4.c: 85:     CCPR4L = ((dutyValue & 0x03FC
      +                          )>>2);
  4343  0564  0871               	movf	PWM4_LoadDutyValue@dutyValue+1,w
  4344  0565  00F3               	movwf	??_PWM4_LoadDutyValue+1
  4345  0566  0870               	movf	PWM4_LoadDutyValue@dutyValue,w
  4346  0567  00F2               	movwf	??_PWM4_LoadDutyValue
  4347  0568  36F3               	lsrf	??_PWM4_LoadDutyValue+1,f
  4348  0569  0CF2               	rrf	??_PWM4_LoadDutyValue,f
  4349  056A  36F3               	lsrf	??_PWM4_LoadDutyValue+1,f
  4350  056B  0CF2               	rrf	??_PWM4_LoadDutyValue,f
  4351  056C  0872               	movf	??_PWM4_LoadDutyValue,w
  4352  056D  0026               	movlb	6	; select bank6
  4353  056E  0098               	movwf	24	;volatile
  4354                           
  4355                           ;mcc_generated_files/pwm4.c: 88:     CCP4CON = ((uint8_t)(CCP4CON & 0xCF) | ((dutyValue 
      +                          & 0x0003)<<4));
  4356  056F  0870               	movf	PWM4_LoadDutyValue@dutyValue,w
  4357  0570  3903               	andlw	3
  4358  0571  00F2               	movwf	??_PWM4_LoadDutyValue
  4359  0572  3004               	movlw	4
  4360  0573                     u625:
  4361  0573  35F2               	lslf	??_PWM4_LoadDutyValue,f
  4362  0574  0B89               	decfsz	9,f
  4363  0575  2D73               	goto	u625
  4364  0576  081A               	movf	26,w	;volatile
  4365  0577  39CF               	andlw	207
  4366  0578  0472               	iorwf	??_PWM4_LoadDutyValue,w
  4367  0579  009A               	movwf	26	;volatile
  4368  057A                     l173:
  4369  057A  0008               	return
  4370  057B                     __end_of_PWM4_LoadDutyValue:
  4371                           
  4372                           	psect	text17
  4373  054D                     __ptext17:	
  4374 ;; *************** function _PWM3_LoadDutyValue *****************
  4375 ;; Defined at:
  4376 ;;		line 82 in file "mcc_generated_files/pwm3.c"
  4377 ;; Parameters:    Size  Location     Type
  4378 ;;  dutyValue       2    0[COMMON] unsigned short 
  4379 ;; Auto vars:     Size  Location     Type
  4380 ;;		None
  4381 ;; Return value:  Size  Location     Type
  4382 ;;                  1    wreg      void 
  4383 ;; Registers used:
  4384 ;;		wreg, status,2, status,0
  4385 ;; Tracked objects:
  4386 ;;		On entry : 0/0
  4387 ;;		On exit  : 0/0
  4388 ;;		Unchanged: 0/0
  4389 ;; Data sizes:     COMMON   BANK0   BANK1   BANK2   BANK3   BANK4   BANK5   BANK6   BANK7   BANK8   BANK9  BANK10  BANK1
      +1  BANK12
  4390 ;;      Params:         2       0       0       0       0       0       0       0       0       0       0       0       
      +0       0
  4391 ;;      Locals:         0       0       0       0       0       0       0       0       0       0       0       0       
      +0       0
  4392 ;;      Temps:          2       0       0       0       0       0       0       0       0       0       0       0       
      +0       0
  4393 ;;      Totals:         4       0       0       0       0       0       0       0       0       0       0       0       
      +0       0
  4394 ;;Total ram usage:        4 bytes
  4395 ;; Hardware stack levels used: 1
  4396 ;; This function calls:
  4397 ;;		Nothing
  4398 ;; This function is called by:
  4399 ;;		_di_thang
  4400 ;;		_di_thang_nhanh
  4401 ;;		_dung_lai
  4402 ;;		_rephai
  4403 ;;		_retrai
  4404 ;;		_retrai2
  4405 ;;		_rephai2
  4406 ;;		_retrai3
  4407 ;;		_retrainhanh
  4408 ;;		_rephainhanh
  4409 ;;		_lui
  4410 ;;		_lui_nhanh
  4411 ;; This function uses a non-reentrant model
  4412 ;;
  4413                           
  4414  054D                     _PWM3_LoadDutyValue:	
  4415                           ;psect for function _PWM3_LoadDutyValue
  4416                           
  4417  054D                     l1622:	
  4418                           ;incstack = 0
  4419                           ; Regs used in _PWM3_LoadDutyValue: [wreg+status,2+status,0]
  4420                           
  4421                           
  4422                           ;mcc_generated_files/pwm3.c: 82: void PWM3_LoadDutyValue(uint16_t dutyValue);mcc_generat
      +                          ed_files/pwm3.c: 83: {;mcc_generated_files/pwm3.c: 85:     CCPR3L = ((dutyValue & 0x03FC
      +                          )>>2);
  4423  054D  0871               	movf	PWM3_LoadDutyValue@dutyValue+1,w
  4424  054E  00F3               	movwf	??_PWM3_LoadDutyValue+1
  4425  054F  0870               	movf	PWM3_LoadDutyValue@dutyValue,w
  4426  0550  00F2               	movwf	??_PWM3_LoadDutyValue
  4427  0551  36F3               	lsrf	??_PWM3_LoadDutyValue+1,f
  4428  0552  0CF2               	rrf	??_PWM3_LoadDutyValue,f
  4429  0553  36F3               	lsrf	??_PWM3_LoadDutyValue+1,f
  4430  0554  0CF2               	rrf	??_PWM3_LoadDutyValue,f
  4431  0555  0872               	movf	??_PWM3_LoadDutyValue,w
  4432  0556  0026               	movlb	6	; select bank6
  4433  0557  0091               	movwf	17	;volatile
  4434                           
  4435                           ;mcc_generated_files/pwm3.c: 88:     CCP3CON = ((uint8_t)(CCP3CON & 0xCF) | ((dutyValue 
      +                          & 0x0003)<<4));
  4436  0558  0870               	movf	PWM3_LoadDutyValue@dutyValue,w
  4437  0559  3903               	andlw	3
  4438  055A  00F2               	movwf	??_PWM3_LoadDutyValue
  4439  055B  3004               	movlw	4
  4440  055C                     u615:
  4441  055C  35F2               	lslf	??_PWM3_LoadDutyValue,f
  4442  055D  0B89               	decfsz	9,f
  4443  055E  2D5C               	goto	u615
  4444  055F  0813               	movf	19,w	;volatile
  4445  0560  39CF               	andlw	207
  4446  0561  0472               	iorwf	??_PWM3_LoadDutyValue,w
  4447  0562  0093               	movwf	19	;volatile
  4448  0563                     l121:
  4449  0563  0008               	return
  4450  0564                     __end_of_PWM3_LoadDutyValue:
  4451                           
  4452                           	psect	text18
  4453  05D6                     __ptext18:	
  4454 ;; *************** function _SYSTEM_Initialize *****************
  4455 ;; Defined at:
  4456 ;;		line 50 in file "mcc_generated_files/mcc.c"
  4457 ;; Parameters:    Size  Location     Type
  4458 ;;		None
  4459 ;; Auto vars:     Size  Location     Type
  4460 ;;		None
  4461 ;; Return value:  Size  Location     Type
  4462 ;;                  1    wreg      void 
  4463 ;; Registers used:
  4464 ;;		wreg, status,2, status,0, pclath, cstack
  4465 ;; Tracked objects:
  4466 ;;		On entry : 0/0
  4467 ;;		On exit  : 0/0
  4468 ;;		Unchanged: 0/0
  4469 ;; Data sizes:     COMMON   BANK0   BANK1   BANK2   BANK3   BANK4   BANK5   BANK6   BANK7   BANK8   BANK9  BANK10  BANK1
      +1  BANK12
  4470 ;;      Params:         0       0       0       0       0       0       0       0       0       0       0       0       
      +0       0
  4471 ;;      Locals:         0       0       0       0       0       0       0       0       0       0       0       0       
      +0       0
  4472 ;;      Temps:          0       0       0       0       0       0       0       0       0       0       0       0       
      +0       0
  4473 ;;      Totals:         0       0       0       0       0       0       0       0       0       0       0       0       
      +0       0
  4474 ;;Total ram usage:        0 bytes
  4475 ;; Hardware stack levels used: 1
  4476 ;; Hardware stack levels required when called: 2
  4477 ;; This function calls:
  4478 ;;		_ADC_Initialize
  4479 ;;		_EPWM1_Initialize
  4480 ;;		_EUSART_Initialize
  4481 ;;		_OSCILLATOR_Initialize
  4482 ;;		_PIN_MANAGER_Initialize
  4483 ;;		_PWM3_Initialize
  4484 ;;		_PWM4_Initialize
  4485 ;;		_TMR0_Initialize
  4486 ;;		_TMR2_Initialize
  4487 ;;		_TMR4_Initialize
  4488 ;;		_WDT_Initialize
  4489 ;; This function is called by:
  4490 ;;		_main
  4491 ;; This function uses a non-reentrant model
  4492 ;;
  4493                           
  4494  05D6                     _SYSTEM_Initialize:	
  4495                           ;psect for function _SYSTEM_Initialize
  4496                           
  4497  05D6                     l1684:	
  4498                           ;incstack = 0
  4499                           ; Regs used in _SYSTEM_Initialize: [wreg+status,2+status,0+pclath+cstack]
  4500                           
  4501                           
  4502                           ;mcc_generated_files/mcc.c: 53:     PIN_MANAGER_Initialize();
  4503  05D6  3185  257B  3185   	fcall	_PIN_MANAGER_Initialize
  4504                           
  4505                           ;mcc_generated_files/mcc.c: 54:     OSCILLATOR_Initialize();
  4506  05D9  3183  23EA  3185   	fcall	_OSCILLATOR_Initialize
  4507                           
  4508                           ;mcc_generated_files/mcc.c: 55:     WDT_Initialize();
  4509  05DC  3183  23CF  3185   	fcall	_WDT_Initialize
  4510                           
  4511                           ;mcc_generated_files/mcc.c: 56:     ADC_Initialize();
  4512  05DF  3183  23F1  3185   	fcall	_ADC_Initialize
  4513                           
  4514                           ;mcc_generated_files/mcc.c: 57:     EPWM1_Initialize();
  4515  05E2  3184  243C  3185   	fcall	_EPWM1_Initialize
  4516                           
  4517                           ;mcc_generated_files/mcc.c: 58:     TMR4_Initialize();
  4518  05E5  3184  2415  3185   	fcall	_TMR4_Initialize
  4519                           
  4520                           ;mcc_generated_files/mcc.c: 59:     PWM4_Initialize();
  4521  05E8  3184  240B  3185   	fcall	_PWM4_Initialize
  4522                           
  4523                           ;mcc_generated_files/mcc.c: 60:     PWM3_Initialize();
  4524  05EB  3184  2401  3185   	fcall	_PWM3_Initialize
  4525                           
  4526                           ;mcc_generated_files/mcc.c: 61:     TMR2_Initialize();
  4527  05EE  3183  23F9  3185   	fcall	_TMR2_Initialize
  4528                           
  4529                           ;mcc_generated_files/mcc.c: 62:     TMR0_Initialize();
  4530  05F1  3184  241F  3185   	fcall	_TMR0_Initialize
  4531                           
  4532                           ;mcc_generated_files/mcc.c: 63:     EUSART_Initialize();
  4533  05F4  3185  25B5  3185   	fcall	_EUSART_Initialize
  4534  05F7                     l33:
  4535  05F7  0008               	return
  4536  05F8                     __end_of_SYSTEM_Initialize:
  4537                           
  4538                           	psect	text19
  4539  03CF                     __ptext19:	
  4540 ;; *************** function _WDT_Initialize *****************
  4541 ;; Defined at:
  4542 ;;		line 76 in file "mcc_generated_files/mcc.c"
  4543 ;; Parameters:    Size  Location     Type
  4544 ;;		None
  4545 ;; Auto vars:     Size  Location     Type
  4546 ;;		None
  4547 ;; Return value:  Size  Location     Type
  4548 ;;                  1    wreg      void 
  4549 ;; Registers used:
  4550 ;;		wreg
  4551 ;; Tracked objects:
  4552 ;;		On entry : 0/0
  4553 ;;		On exit  : 0/0
  4554 ;;		Unchanged: 0/0
  4555 ;; Data sizes:     COMMON   BANK0   BANK1   BANK2   BANK3   BANK4   BANK5   BANK6   BANK7   BANK8   BANK9  BANK10  BANK1
      +1  BANK12
  4556 ;;      Params:         0       0       0       0       0       0       0       0       0       0       0       0       
      +0       0
  4557 ;;      Locals:         0       0       0       0       0       0       0       0       0       0       0       0       
      +0       0
  4558 ;;      Temps:          0       0       0       0       0       0       0       0       0       0       0       0       
      +0       0
  4559 ;;      Totals:         0       0       0       0       0       0       0       0       0       0       0       0       
      +0       0
  4560 ;;Total ram usage:        0 bytes
  4561 ;; Hardware stack levels used: 1
  4562 ;; This function calls:
  4563 ;;		Nothing
  4564 ;; This function is called by:
  4565 ;;		_SYSTEM_Initialize
  4566 ;; This function uses a non-reentrant model
  4567 ;;
  4568                           
  4569  03CF                     _WDT_Initialize:	
  4570                           ;psect for function _WDT_Initialize
  4571                           
  4572  03CF                     l1554:	
  4573                           ;incstack = 0
  4574                           ; Regs used in _WDT_Initialize: [wreg]
  4575                           
  4576                           
  4577                           ;mcc_generated_files/mcc.c: 79:     WDTCON = 0x16;
  4578  03CF  3016               	movlw	22
  4579  03D0  0021               	movlb	1	; select bank1
  4580  03D1  0097               	movwf	23	;volatile
  4581  03D2                     l39:
  4582  03D2  0008               	return
  4583  03D3                     __end_of_WDT_Initialize:
  4584                           
  4585                           	psect	text20
  4586  0415                     __ptext20:	
  4587 ;; *************** function _TMR4_Initialize *****************
  4588 ;; Defined at:
  4589 ;;		line 62 in file "mcc_generated_files/tmr4.c"
  4590 ;; Parameters:    Size  Location     Type
  4591 ;;		None
  4592 ;; Auto vars:     Size  Location     Type
  4593 ;;		None
  4594 ;; Return value:  Size  Location     Type
  4595 ;;                  1    wreg      void 
  4596 ;; Registers used:
  4597 ;;		wreg, status,2
  4598 ;; Tracked objects:
  4599 ;;		On entry : 0/0
  4600 ;;		On exit  : 0/0
  4601 ;;		Unchanged: 0/0
  4602 ;; Data sizes:     COMMON   BANK0   BANK1   BANK2   BANK3   BANK4   BANK5   BANK6   BANK7   BANK8   BANK9  BANK10  BANK1
      +1  BANK12
  4603 ;;      Params:         0       0       0       0       0       0       0       0       0       0       0       0       
      +0       0
  4604 ;;      Locals:         0       0       0       0       0       0       0       0       0       0       0       0       
      +0       0
  4605 ;;      Temps:          0       0       0       0       0       0       0       0       0       0       0       0       
      +0       0
  4606 ;;      Totals:         0       0       0       0       0       0       0       0       0       0       0       0       
      +0       0
  4607 ;;Total ram usage:        0 bytes
  4608 ;; Hardware stack levels used: 1
  4609 ;; This function calls:
  4610 ;;		Nothing
  4611 ;; This function is called by:
  4612 ;;		_SYSTEM_Initialize
  4613 ;; This function uses a non-reentrant model
  4614 ;;
  4615                           
  4616  0415                     _TMR4_Initialize:	
  4617                           ;psect for function _TMR4_Initialize
  4618                           
  4619  0415                     l1574:	
  4620                           ;incstack = 0
  4621                           ; Regs used in _TMR4_Initialize: [wreg+status,2]
  4622                           
  4623                           
  4624                           ;mcc_generated_files/tmr4.c: 67:     PR4 = 0x9B;
  4625  0415  309B               	movlw	155
  4626  0416  0028               	movlb	8	; select bank8
  4627  0417  0096               	movwf	22	;volatile
  4628  0418                     l1576:
  4629                           
  4630                           ;mcc_generated_files/tmr4.c: 70:     TMR4 = 0x00;
  4631  0418  0195               	clrf	21	;volatile
  4632  0419                     l1578:
  4633                           
  4634                           ;mcc_generated_files/tmr4.c: 73:     PIR3bits.TMR4IF = 0;
  4635  0419  0020               	movlb	0	; select bank0
  4636  041A  1093               	bcf	19,1	;volatile
  4637  041B                     l1580:
  4638                           
  4639                           ;mcc_generated_files/tmr4.c: 76:     T4CON = 0x0E;
  4640  041B  300E               	movlw	14
  4641  041C  0028               	movlb	8	; select bank8
  4642  041D  0097               	movwf	23	;volatile
  4643  041E                     l317:
  4644  041E  0008               	return
  4645  041F                     __end_of_TMR4_Initialize:
  4646                           
  4647                           	psect	text21
  4648  03F9                     __ptext21:	
  4649 ;; *************** function _TMR2_Initialize *****************
  4650 ;; Defined at:
  4651 ;;		line 62 in file "mcc_generated_files/tmr2.c"
  4652 ;; Parameters:    Size  Location     Type
  4653 ;;		None
  4654 ;; Auto vars:     Size  Location     Type
  4655 ;;		None
  4656 ;; Return value:  Size  Location     Type
  4657 ;;                  1    wreg      void 
  4658 ;; Registers used:
  4659 ;;		wreg, status,2
  4660 ;; Tracked objects:
  4661 ;;		On entry : 0/0
  4662 ;;		On exit  : 0/0
  4663 ;;		Unchanged: 0/0
  4664 ;; Data sizes:     COMMON   BANK0   BANK1   BANK2   BANK3   BANK4   BANK5   BANK6   BANK7   BANK8   BANK9  BANK10  BANK1
      +1  BANK12
  4665 ;;      Params:         0       0       0       0       0       0       0       0       0       0       0       0       
      +0       0
  4666 ;;      Locals:         0       0       0       0       0       0       0       0       0       0       0       0       
      +0       0
  4667 ;;      Temps:          0       0       0       0       0       0       0       0       0       0       0       0       
      +0       0
  4668 ;;      Totals:         0       0       0       0       0       0       0       0       0       0       0       0       
      +0       0
  4669 ;;Total ram usage:        0 bytes
  4670 ;; Hardware stack levels used: 1
  4671 ;; This function calls:
  4672 ;;		Nothing
  4673 ;; This function is called by:
  4674 ;;		_SYSTEM_Initialize
  4675 ;; This function uses a non-reentrant model
  4676 ;;
  4677                           
  4678  03F9                     _TMR2_Initialize:	
  4679                           ;psect for function _TMR2_Initialize
  4680                           
  4681  03F9                     l1594:	
  4682                           ;incstack = 0
  4683                           ; Regs used in _TMR2_Initialize: [wreg+status,2]
  4684                           
  4685                           
  4686                           ;mcc_generated_files/tmr2.c: 67:     PR2 = 0xF9;
  4687  03F9  30F9               	movlw	249
  4688  03FA  0020               	movlb	0	; select bank0
  4689  03FB  009B               	movwf	27	;volatile
  4690  03FC                     l1596:
  4691                           
  4692                           ;mcc_generated_files/tmr2.c: 70:     TMR2 = 0x00;
  4693  03FC  019A               	clrf	26	;volatile
  4694  03FD                     l1598:
  4695                           
  4696                           ;mcc_generated_files/tmr2.c: 73:     PIR1bits.TMR2IF = 0;
  4697  03FD  1091               	bcf	17,1	;volatile
  4698  03FE                     l1600:
  4699                           
  4700                           ;mcc_generated_files/tmr2.c: 76:     T2CON = 0x04;
  4701  03FE  3004               	movlw	4
  4702  03FF  009C               	movwf	28	;volatile
  4703  0400                     l88:
  4704  0400  0008               	return
  4705  0401                     __end_of_TMR2_Initialize:
  4706                           
  4707                           	psect	text22
  4708  041F                     __ptext22:	
  4709 ;; *************** function _TMR0_Initialize *****************
  4710 ;; Defined at:
  4711 ;;		line 63 in file "mcc_generated_files/tmr0.c"
  4712 ;; Parameters:    Size  Location     Type
  4713 ;;		None
  4714 ;; Auto vars:     Size  Location     Type
  4715 ;;		None
  4716 ;; Return value:  Size  Location     Type
  4717 ;;                  1    wreg      void 
  4718 ;; Registers used:
  4719 ;;		wreg, status,2
  4720 ;; Tracked objects:
  4721 ;;		On entry : 0/0
  4722 ;;		On exit  : 0/0
  4723 ;;		Unchanged: 0/0
  4724 ;; Data sizes:     COMMON   BANK0   BANK1   BANK2   BANK3   BANK4   BANK5   BANK6   BANK7   BANK8   BANK9  BANK10  BANK1
      +1  BANK12
  4725 ;;      Params:         0       0       0       0       0       0       0       0       0       0       0       0       
      +0       0
  4726 ;;      Locals:         0       0       0       0       0       0       0       0       0       0       0       0       
      +0       0
  4727 ;;      Temps:          1       0       0       0       0       0       0       0       0       0       0       0       
      +0       0
  4728 ;;      Totals:         1       0       0       0       0       0       0       0       0       0       0       0       
      +0       0
  4729 ;;Total ram usage:        1 bytes
  4730 ;; Hardware stack levels used: 1
  4731 ;; This function calls:
  4732 ;;		Nothing
  4733 ;; This function is called by:
  4734 ;;		_SYSTEM_Initialize
  4735 ;; This function uses a non-reentrant model
  4736 ;;
  4737                           
  4738  041F                     _TMR0_Initialize:	
  4739                           ;psect for function _TMR0_Initialize
  4740                           
  4741  041F                     l1602:	
  4742                           ;incstack = 0
  4743                           ; Regs used in _TMR0_Initialize: [wreg+status,2]
  4744                           
  4745                           
  4746                           ;mcc_generated_files/tmr0.c: 68:     OPTION_REG = (uint8_t)((OPTION_REG & 0xC0) | (0xD4 
      +                          & 0x3F));
  4747  041F  0021               	movlb	1	; select bank1
  4748  0420  0815               	movf	21,w	;volatile
  4749  0421  39C0               	andlw	192
  4750  0422  3814               	iorlw	20
  4751  0423  0095               	movwf	21	;volatile
  4752  0424                     l1604:
  4753                           
  4754                           ;mcc_generated_files/tmr0.c: 71:     TMR0 = 0xFF;
  4755  0424  30FF               	movlw	255
  4756  0425  0020               	movlb	0	; select bank0
  4757  0426  0095               	movwf	21	;volatile
  4758  0427                     l1606:
  4759                           
  4760                           ;mcc_generated_files/tmr0.c: 74:     timer0ReloadVal= 255;
  4761  0427  30FF               	movlw	255
  4762  0428  00F0               	movwf	??_TMR0_Initialize
  4763  0429  0870               	movf	??_TMR0_Initialize,w
  4764  042A  00FC               	movwf	_timer0ReloadVal	;volatile
  4765  042B                     l1608:
  4766                           
  4767                           ;mcc_generated_files/tmr0.c: 77:     INTCONbits.TMR0IF = 0;
  4768  042B  110B               	bcf	11,2	;volatile
  4769  042C                     l272:
  4770  042C  0008               	return
  4771  042D                     __end_of_TMR0_Initialize:
  4772                           
  4773                           	psect	text23
  4774  040B                     __ptext23:	
  4775 ;; *************** function _PWM4_Initialize *****************
  4776 ;; Defined at:
  4777 ;;		line 64 in file "mcc_generated_files/pwm4.c"
  4778 ;; Parameters:    Size  Location     Type
  4779 ;;		None
  4780 ;; Auto vars:     Size  Location     Type
  4781 ;;		None
  4782 ;; Return value:  Size  Location     Type
  4783 ;;                  1    wreg      void 
  4784 ;; Registers used:
  4785 ;;		wreg, status,2, status,0
  4786 ;; Tracked objects:
  4787 ;;		On entry : 0/0
  4788 ;;		On exit  : 0/0
  4789 ;;		Unchanged: 0/0
  4790 ;; Data sizes:     COMMON   BANK0   BANK1   BANK2   BANK3   BANK4   BANK5   BANK6   BANK7   BANK8   BANK9  BANK10  BANK1
      +1  BANK12
  4791 ;;      Params:         0       0       0       0       0       0       0       0       0       0       0       0       
      +0       0
  4792 ;;      Locals:         0       0       0       0       0       0       0       0       0       0       0       0       
      +0       0
  4793 ;;      Temps:          0       0       0       0       0       0       0       0       0       0       0       0       
      +0       0
  4794 ;;      Totals:         0       0       0       0       0       0       0       0       0       0       0       0       
      +0       0
  4795 ;;Total ram usage:        0 bytes
  4796 ;; Hardware stack levels used: 1
  4797 ;; This function calls:
  4798 ;;		Nothing
  4799 ;; This function is called by:
  4800 ;;		_SYSTEM_Initialize
  4801 ;; This function uses a non-reentrant model
  4802 ;;
  4803                           
  4804  040B                     _PWM4_Initialize:	
  4805                           ;psect for function _PWM4_Initialize
  4806                           
  4807  040B                     l1582:	
  4808                           ;incstack = 0
  4809                           ; Regs used in _PWM4_Initialize: [wreg+status,2+status,0]
  4810                           
  4811                           
  4812                           ;mcc_generated_files/pwm4.c: 69:  CCP4CON = 0x3C;
  4813  040B  303C               	movlw	60
  4814  040C  0026               	movlb	6	; select bank6
  4815  040D  009A               	movwf	26	;volatile
  4816                           
  4817                           ;mcc_generated_files/pwm4.c: 72:  CCPR4L = 0xF9;
  4818  040E  30F9               	movlw	249
  4819  040F  0098               	movwf	24	;volatile
  4820  0410                     l1584:
  4821                           
  4822                           ;mcc_generated_files/pwm4.c: 75:  CCPR4H = 0x00;
  4823  0410  0199               	clrf	25	;volatile
  4824  0411                     l1586:
  4825                           
  4826                           ;mcc_generated_files/pwm4.c: 78:  CCPTMRSbits.C4TSEL = 0x0;
  4827  0411  303F               	movlw	-193
  4828  0412  0025               	movlb	5	; select bank5
  4829  0413  059E               	andwf	30,f	;volatile
  4830  0414                     l170:
  4831  0414  0008               	return
  4832  0415                     __end_of_PWM4_Initialize:
  4833                           
  4834                           	psect	text24
  4835  0401                     __ptext24:	
  4836 ;; *************** function _PWM3_Initialize *****************
  4837 ;; Defined at:
  4838 ;;		line 64 in file "mcc_generated_files/pwm3.c"
  4839 ;; Parameters:    Size  Location     Type
  4840 ;;		None
  4841 ;; Auto vars:     Size  Location     Type
  4842 ;;		None
  4843 ;; Return value:  Size  Location     Type
  4844 ;;                  1    wreg      void 
  4845 ;; Registers used:
  4846 ;;		wreg, status,2, status,0
  4847 ;; Tracked objects:
  4848 ;;		On entry : 0/0
  4849 ;;		On exit  : 0/0
  4850 ;;		Unchanged: 0/0
  4851 ;; Data sizes:     COMMON   BANK0   BANK1   BANK2   BANK3   BANK4   BANK5   BANK6   BANK7   BANK8   BANK9  BANK10  BANK1
      +1  BANK12
  4852 ;;      Params:         0       0       0       0       0       0       0       0       0       0       0       0       
      +0       0
  4853 ;;      Locals:         0       0       0       0       0       0       0       0       0       0       0       0       
      +0       0
  4854 ;;      Temps:          0       0       0       0       0       0       0       0       0       0       0       0       
      +0       0
  4855 ;;      Totals:         0       0       0       0       0       0       0       0       0       0       0       0       
      +0       0
  4856 ;;Total ram usage:        0 bytes
  4857 ;; Hardware stack levels used: 1
  4858 ;; This function calls:
  4859 ;;		Nothing
  4860 ;; This function is called by:
  4861 ;;		_SYSTEM_Initialize
  4862 ;; This function uses a non-reentrant model
  4863 ;;
  4864                           
  4865  0401                     _PWM3_Initialize:	
  4866                           ;psect for function _PWM3_Initialize
  4867                           
  4868  0401                     l1588:	
  4869                           ;incstack = 0
  4870                           ; Regs used in _PWM3_Initialize: [wreg+status,2+status,0]
  4871                           
  4872                           
  4873                           ;mcc_generated_files/pwm3.c: 69:  CCP3CON = 0x3C;
  4874  0401  303C               	movlw	60
  4875  0402  0026               	movlb	6	; select bank6
  4876  0403  0093               	movwf	19	;volatile
  4877                           
  4878                           ;mcc_generated_files/pwm3.c: 72:  CCPR3L = 0xF9;
  4879  0404  30F9               	movlw	249
  4880  0405  0091               	movwf	17	;volatile
  4881  0406                     l1590:
  4882                           
  4883                           ;mcc_generated_files/pwm3.c: 75:  CCPR3H = 0x00;
  4884  0406  0192               	clrf	18	;volatile
  4885  0407                     l1592:
  4886                           
  4887                           ;mcc_generated_files/pwm3.c: 78:  CCPTMRSbits.C3TSEL = 0x0;
  4888  0407  30CF               	movlw	-49
  4889  0408  0025               	movlb	5	; select bank5
  4890  0409  059E               	andwf	30,f	;volatile
  4891  040A                     l118:
  4892  040A  0008               	return
  4893  040B                     __end_of_PWM3_Initialize:
  4894                           
  4895                           	psect	text25
  4896  057B                     __ptext25:	
  4897 ;; *************** function _PIN_MANAGER_Initialize *****************
  4898 ;; Defined at:
  4899 ;;		line 55 in file "mcc_generated_files/pin_manager.c"
  4900 ;; Parameters:    Size  Location     Type
  4901 ;;		None
  4902 ;; Auto vars:     Size  Location     Type
  4903 ;;		None
  4904 ;; Return value:  Size  Location     Type
  4905 ;;                  1    wreg      void 
  4906 ;; Registers used:
  4907 ;;		wreg, status,2
  4908 ;; Tracked objects:
  4909 ;;		On entry : 0/0
  4910 ;;		On exit  : 0/0
  4911 ;;		Unchanged: 0/0
  4912 ;; Data sizes:     COMMON   BANK0   BANK1   BANK2   BANK3   BANK4   BANK5   BANK6   BANK7   BANK8   BANK9  BANK10  BANK1
      +1  BANK12
  4913 ;;      Params:         0       0       0       0       0       0       0       0       0       0       0       0       
      +0       0
  4914 ;;      Locals:         0       0       0       0       0       0       0       0       0       0       0       0       
      +0       0
  4915 ;;      Temps:          0       0       0       0       0       0       0       0       0       0       0       0       
      +0       0
  4916 ;;      Totals:         0       0       0       0       0       0       0       0       0       0       0       0       
      +0       0
  4917 ;;Total ram usage:        0 bytes
  4918 ;; Hardware stack levels used: 1
  4919 ;; This function calls:
  4920 ;;		Nothing
  4921 ;; This function is called by:
  4922 ;;		_SYSTEM_Initialize
  4923 ;; This function uses a non-reentrant model
  4924 ;;
  4925                           
  4926  057B                     _PIN_MANAGER_Initialize:	
  4927                           ;psect for function _PIN_MANAGER_Initialize
  4928                           
  4929  057B                     l1524:	
  4930                           ;incstack = 0
  4931                           ; Regs used in _PIN_MANAGER_Initialize: [wreg+status,2]
  4932                           
  4933                           
  4934                           ;mcc_generated_files/pin_manager.c: 60:     LATA = 0x00;
  4935  057B  0022               	movlb	2	; select bank2
  4936  057C  018C               	clrf	12	;volatile
  4937                           
  4938                           ;mcc_generated_files/pin_manager.c: 61:     LATB = 0x00;
  4939  057D  018D               	clrf	13	;volatile
  4940                           
  4941                           ;mcc_generated_files/pin_manager.c: 62:     LATC = 0x00;
  4942  057E  018E               	clrf	14	;volatile
  4943  057F                     l1526:
  4944                           
  4945                           ;mcc_generated_files/pin_manager.c: 67:     TRISA = 0x0B;
  4946  057F  300B               	movlw	11
  4947  0580  0021               	movlb	1	; select bank1
  4948  0581  008C               	movwf	12	;volatile
  4949  0582                     l1528:
  4950                           
  4951                           ;mcc_generated_files/pin_manager.c: 68:     TRISB = 0x70;
  4952  0582  3070               	movlw	112
  4953  0583  008D               	movwf	13	;volatile
  4954  0584                     l1530:
  4955                           
  4956                           ;mcc_generated_files/pin_manager.c: 69:     TRISC = 0x90;
  4957  0584  3090               	movlw	144
  4958  0585  008E               	movwf	14	;volatile
  4959  0586                     l1532:
  4960                           
  4961                           ;mcc_generated_files/pin_manager.c: 74:     ANSELC = 0x4C;
  4962  0586  304C               	movlw	76
  4963  0587  0023               	movlb	3	; select bank3
  4964  0588  008E               	movwf	14	;volatile
  4965                           
  4966                           ;mcc_generated_files/pin_manager.c: 75:     ANSELB = 0x00;
  4967  0589  018D               	clrf	13	;volatile
  4968  058A                     l1534:
  4969                           
  4970                           ;mcc_generated_files/pin_manager.c: 76:     ANSELA = 0x13;
  4971  058A  3013               	movlw	19
  4972  058B  008C               	movwf	12	;volatile
  4973  058C                     l1536:
  4974                           
  4975                           ;mcc_generated_files/pin_manager.c: 81:     WPUB = 0x00;
  4976  058C  0024               	movlb	4	; select bank4
  4977  058D  018D               	clrf	13	;volatile
  4978  058E                     l1538:
  4979                           
  4980                           ;mcc_generated_files/pin_manager.c: 82:     WPUA = 0x00;
  4981  058E  018C               	clrf	12	;volatile
  4982  058F                     l1540:
  4983                           
  4984                           ;mcc_generated_files/pin_manager.c: 83:     WPUC = 0x00;
  4985  058F  018E               	clrf	14	;volatile
  4986  0590                     l1542:
  4987                           
  4988                           ;mcc_generated_files/pin_manager.c: 84:     OPTION_REGbits.nWPUEN = 1;
  4989  0590  0021               	movlb	1	; select bank1
  4990  0591  1795               	bsf	21,7	;volatile
  4991  0592                     l1544:
  4992                           
  4993                           ;mcc_generated_files/pin_manager.c: 90:     APFCON0 = 0x00;
  4994  0592  0022               	movlb	2	; select bank2
  4995  0593  019D               	clrf	29	;volatile
  4996  0594                     l1546:
  4997                           
  4998                           ;mcc_generated_files/pin_manager.c: 91:     APFCON1 = 0x00;
  4999  0594  019E               	clrf	30	;volatile
  5000  0595                     l72:
  5001  0595  0008               	return
  5002  0596                     __end_of_PIN_MANAGER_Initialize:
  5003                           
  5004                           	psect	text26
  5005  03EA                     __ptext26:	
  5006 ;; *************** function _OSCILLATOR_Initialize *****************
  5007 ;; Defined at:
  5008 ;;		line 66 in file "mcc_generated_files/mcc.c"
  5009 ;; Parameters:    Size  Location     Type
  5010 ;;		None
  5011 ;; Auto vars:     Size  Location     Type
  5012 ;;		None
  5013 ;; Return value:  Size  Location     Type
  5014 ;;                  1    wreg      void 
  5015 ;; Registers used:
  5016 ;;		wreg, status,2
  5017 ;; Tracked objects:
  5018 ;;		On entry : 0/0
  5019 ;;		On exit  : 0/0
  5020 ;;		Unchanged: 0/0
  5021 ;; Data sizes:     COMMON   BANK0   BANK1   BANK2   BANK3   BANK4   BANK5   BANK6   BANK7   BANK8   BANK9  BANK10  BANK1
      +1  BANK12
  5022 ;;      Params:         0       0       0       0       0       0       0       0       0       0       0       0       
      +0       0
  5023 ;;      Locals:         0       0       0       0       0       0       0       0       0       0       0       0       
      +0       0
  5024 ;;      Temps:          0       0       0       0       0       0       0       0       0       0       0       0       
      +0       0
  5025 ;;      Totals:         0       0       0       0       0       0       0       0       0       0       0       0       
      +0       0
  5026 ;;Total ram usage:        0 bytes
  5027 ;; Hardware stack levels used: 1
  5028 ;; This function calls:
  5029 ;;		Nothing
  5030 ;; This function is called by:
  5031 ;;		_SYSTEM_Initialize
  5032 ;; This function uses a non-reentrant model
  5033 ;;
  5034                           
  5035  03EA                     _OSCILLATOR_Initialize:	
  5036                           ;psect for function _OSCILLATOR_Initialize
  5037                           
  5038  03EA                     l1548:	
  5039                           ;incstack = 0
  5040                           ; Regs used in _OSCILLATOR_Initialize: [wreg+status,2]
  5041                           
  5042                           
  5043                           ;mcc_generated_files/mcc.c: 69:     OSCCON = 0x5A;
  5044  03EA  305A               	movlw	90
  5045  03EB  0021               	movlb	1	; select bank1
  5046  03EC  0099               	movwf	25	;volatile
  5047  03ED                     l1550:
  5048                           
  5049                           ;mcc_generated_files/mcc.c: 71:     OSCTUNE = 0x00;
  5050  03ED  0198               	clrf	24	;volatile
  5051  03EE                     l1552:
  5052                           
  5053                           ;mcc_generated_files/mcc.c: 73:     BORCON = 0x00;
  5054  03EE  0022               	movlb	2	; select bank2
  5055  03EF  0196               	clrf	22	;volatile
  5056  03F0                     l36:
  5057  03F0  0008               	return
  5058  03F1                     __end_of_OSCILLATOR_Initialize:
  5059                           
  5060                           	psect	text27
  5061  05B5                     __ptext27:	
  5062 ;; *************** function _EUSART_Initialize *****************
  5063 ;; Defined at:
  5064 ;;		line 66 in file "mcc_generated_files/eusart.c"
  5065 ;; Parameters:    Size  Location     Type
  5066 ;;		None
  5067 ;; Auto vars:     Size  Location     Type
  5068 ;;		None
  5069 ;; Return value:  Size  Location     Type
  5070 ;;                  1    wreg      void 
  5071 ;; Registers used:
  5072 ;;		wreg, status,2, status,0, pclath, cstack
  5073 ;; Tracked objects:
  5074 ;;		On entry : 0/0
  5075 ;;		On exit  : 0/0
  5076 ;;		Unchanged: 0/0
  5077 ;; Data sizes:     COMMON   BANK0   BANK1   BANK2   BANK3   BANK4   BANK5   BANK6   BANK7   BANK8   BANK9  BANK10  BANK1
      +1  BANK12
  5078 ;;      Params:         0       0       0       0       0       0       0       0       0       0       0       0       
      +0       0
  5079 ;;      Locals:         0       0       0       0       0       0       0       0       0       0       0       0       
      +0       0
  5080 ;;      Temps:          0       0       0       0       0       0       0       0       0       0       0       0       
      +0       0
  5081 ;;      Totals:         0       0       0       0       0       0       0       0       0       0       0       0       
      +0       0
  5082 ;;Total ram usage:        0 bytes
  5083 ;; Hardware stack levels used: 1
  5084 ;; Hardware stack levels required when called: 1
  5085 ;; This function calls:
  5086 ;;		_EUSART_SetErrorHandler
  5087 ;;		_EUSART_SetFramingErrorHandler
  5088 ;;		_EUSART_SetOverrunErrorHandler
  5089 ;; This function is called by:
  5090 ;;		_SYSTEM_Initialize
  5091 ;; This function uses a non-reentrant model
  5092 ;;
  5093                           
  5094  05B5                     _EUSART_Initialize:	
  5095                           ;psect for function _EUSART_Initialize
  5096                           
  5097  05B5                     l1610:	
  5098                           ;incstack = 0
  5099                           ; Regs used in _EUSART_Initialize: [wreg+status,2+status,0+pclath+cstack]
  5100                           
  5101                           
  5102                           ;mcc_generated_files/eusart.c: 71:     BAUDCON = 0x08;
  5103  05B5  3008               	movlw	8
  5104  05B6  0023               	movlb	3	; select bank3
  5105  05B7  009F               	movwf	31	;volatile
  5106                           
  5107                           ;mcc_generated_files/eusart.c: 74:     RCSTA = 0x90;
  5108  05B8  3090               	movlw	144
  5109  05B9  009D               	movwf	29	;volatile
  5110                           
  5111                           ;mcc_generated_files/eusart.c: 77:     TXSTA = 0x04;
  5112  05BA  3004               	movlw	4
  5113  05BB  009E               	movwf	30	;volatile
  5114                           
  5115                           ;mcc_generated_files/eusart.c: 80:     SPBRGL = 0x19;
  5116  05BC  3019               	movlw	25
  5117  05BD  009B               	movwf	27	;volatile
  5118  05BE                     l1612:
  5119                           
  5120                           ;mcc_generated_files/eusart.c: 83:     SPBRGH = 0x00;
  5121  05BE  019C               	clrf	28	;volatile
  5122  05BF                     l1614:
  5123                           
  5124                           ;mcc_generated_files/eusart.c: 86:     EUSART_SetFramingErrorHandler(EUSART_DefaultFrami
      +                          ngErrorHandler);
  5125  05BF  3000               	movlw	0
  5126  05C0  00F0               	movwf	EUSART_SetFramingErrorHandler@interruptHandler
  5127  05C1  3000               	movlw	0
  5128  05C2  00F1               	movwf	EUSART_SetFramingErrorHandler@interruptHandler+1
  5129  05C3  3183  23DE  3185   	fcall	_EUSART_SetFramingErrorHandler
  5130  05C6                     l1616:
  5131                           
  5132                           ;mcc_generated_files/eusart.c: 87:     EUSART_SetOverrunErrorHandler(EUSART_DefaultOverr
      +                          unErrorHandler);
  5133  05C6  3000               	movlw	0
  5134  05C7  00F0               	movwf	EUSART_SetOverrunErrorHandler@interruptHandler
  5135  05C8  3000               	movlw	0
  5136  05C9  00F1               	movwf	EUSART_SetOverrunErrorHandler@interruptHandler+1
  5137  05CA  3183  23E4  3185   	fcall	_EUSART_SetOverrunErrorHandler
  5138  05CD                     l1618:
  5139                           
  5140                           ;mcc_generated_files/eusart.c: 88:     EUSART_SetErrorHandler(EUSART_DefaultErrorHandler
      +                          );
  5141  05CD  3000               	movlw	0
  5142  05CE  00F0               	movwf	EUSART_SetErrorHandler@interruptHandler
  5143  05CF  3000               	movlw	0
  5144  05D0  00F1               	movwf	EUSART_SetErrorHandler@interruptHandler+1
  5145  05D1  3183  23D8  3185   	fcall	_EUSART_SetErrorHandler
  5146  05D4                     l1620:
  5147                           
  5148                           ;mcc_generated_files/eusart.c: 90:     eusartRxLastError.status = 0;
  5149  05D4  01FD               	clrf	_eusartRxLastError	;volatile
  5150  05D5                     l216:
  5151  05D5  0008               	return
  5152  05D6                     __end_of_EUSART_Initialize:
  5153                           
  5154                           	psect	text28
  5155  03E4                     __ptext28:	
  5156 ;; *************** function _EUSART_SetOverrunErrorHandler *****************
  5157 ;; Defined at:
  5158 ;;		line 161 in file "mcc_generated_files/eusart.c"
  5159 ;; Parameters:    Size  Location     Type
  5160 ;;  interruptHan    2    0[COMMON] PTR FTN()void 
  5161 ;;		 -> EUSART_DefaultOverrunErrorHandler(1), 
  5162 ;; Auto vars:     Size  Location     Type
  5163 ;;		None
  5164 ;; Return value:  Size  Location     Type
  5165 ;;                  1    wreg      void 
  5166 ;; Registers used:
  5167 ;;		wreg
  5168 ;; Tracked objects:
  5169 ;;		On entry : 0/0
  5170 ;;		On exit  : 0/0
  5171 ;;		Unchanged: 0/0
  5172 ;; Data sizes:     COMMON   BANK0   BANK1   BANK2   BANK3   BANK4   BANK5   BANK6   BANK7   BANK8   BANK9  BANK10  BANK1
      +1  BANK12
  5173 ;;      Params:         2       0       0       0       0       0       0       0       0       0       0       0       
      +0       0
  5174 ;;      Locals:         0       0       0       0       0       0       0       0       0       0       0       0       
      +0       0
  5175 ;;      Temps:          0       0       0       0       0       0       0       0       0       0       0       0       
      +0       0
  5176 ;;      Totals:         2       0       0       0       0       0       0       0       0       0       0       0       
      +0       0
  5177 ;;Total ram usage:        2 bytes
  5178 ;; Hardware stack levels used: 1
  5179 ;; This function calls:
  5180 ;;		Nothing
  5181 ;; This function is called by:
  5182 ;;		_EUSART_Initialize
  5183 ;; This function uses a non-reentrant model
  5184 ;;
  5185                           
  5186  03E4                     _EUSART_SetOverrunErrorHandler:	
  5187                           ;psect for function _EUSART_SetOverrunErrorHandler
  5188                           
  5189  03E4                     l1520:	
  5190                           ;incstack = 0
  5191                           ; Regs used in _EUSART_SetOverrunErrorHandler: [wreg]
  5192                           
  5193                           
  5194                           ;mcc_generated_files/eusart.c: 162:     EUSART_OverrunErrorHandler = interruptHandler;
  5195  03E4  0871               	movf	EUSART_SetOverrunErrorHandler@interruptHandler+1,w
  5196  03E5  0020               	movlb	0	; select bank0
  5197  03E6  00BE               	movwf	_EUSART_OverrunErrorHandler+1
  5198  03E7  0870               	movf	EUSART_SetOverrunErrorHandler@interruptHandler,w
  5199  03E8  00BD               	movwf	_EUSART_OverrunErrorHandler
  5200  03E9                     l258:
  5201  03E9  0008               	return
  5202  03EA                     __end_of_EUSART_SetOverrunErrorHandler:
  5203                           
  5204                           	psect	text29
  5205  03DE                     __ptext29:	
  5206 ;; *************** function _EUSART_SetFramingErrorHandler *****************
  5207 ;; Defined at:
  5208 ;;		line 157 in file "mcc_generated_files/eusart.c"
  5209 ;; Parameters:    Size  Location     Type
  5210 ;;  interruptHan    2    0[COMMON] PTR FTN()void 
  5211 ;;		 -> EUSART_DefaultFramingErrorHandler(1), 
  5212 ;; Auto vars:     Size  Location     Type
  5213 ;;		None
  5214 ;; Return value:  Size  Location     Type
  5215 ;;                  1    wreg      void 
  5216 ;; Registers used:
  5217 ;;		wreg
  5218 ;; Tracked objects:
  5219 ;;		On entry : 0/0
  5220 ;;		On exit  : 0/0
  5221 ;;		Unchanged: 0/0
  5222 ;; Data sizes:     COMMON   BANK0   BANK1   BANK2   BANK3   BANK4   BANK5   BANK6   BANK7   BANK8   BANK9  BANK10  BANK1
      +1  BANK12
  5223 ;;      Params:         2       0       0       0       0       0       0       0       0       0       0       0       
      +0       0
  5224 ;;      Locals:         0       0       0       0       0       0       0       0       0       0       0       0       
      +0       0
  5225 ;;      Temps:          0       0       0       0       0       0       0       0       0       0       0       0       
      +0       0
  5226 ;;      Totals:         2       0       0       0       0       0       0       0       0       0       0       0       
      +0       0
  5227 ;;Total ram usage:        2 bytes
  5228 ;; Hardware stack levels used: 1
  5229 ;; This function calls:
  5230 ;;		Nothing
  5231 ;; This function is called by:
  5232 ;;		_EUSART_Initialize
  5233 ;; This function uses a non-reentrant model
  5234 ;;
  5235                           
  5236  03DE                     _EUSART_SetFramingErrorHandler:	
  5237                           ;psect for function _EUSART_SetFramingErrorHandler
  5238                           
  5239  03DE                     l1518:	
  5240                           ;incstack = 0
  5241                           ; Regs used in _EUSART_SetFramingErrorHandler: [wreg]
  5242                           
  5243                           
  5244                           ;mcc_generated_files/eusart.c: 158:     EUSART_FramingErrorHandler = interruptHandler;
  5245  03DE  0871               	movf	EUSART_SetFramingErrorHandler@interruptHandler+1,w
  5246  03DF  0020               	movlb	0	; select bank0
  5247  03E0  00C0               	movwf	_EUSART_FramingErrorHandler+1
  5248  03E1  0870               	movf	EUSART_SetFramingErrorHandler@interruptHandler,w
  5249  03E2  00BF               	movwf	_EUSART_FramingErrorHandler
  5250  03E3                     l255:
  5251  03E3  0008               	return
  5252  03E4                     __end_of_EUSART_SetFramingErrorHandler:
  5253                           
  5254                           	psect	text30
  5255  03D8                     __ptext30:	
  5256 ;; *************** function _EUSART_SetErrorHandler *****************
  5257 ;; Defined at:
  5258 ;;		line 165 in file "mcc_generated_files/eusart.c"
  5259 ;; Parameters:    Size  Location     Type
  5260 ;;  interruptHan    2    0[COMMON] PTR FTN()void 
  5261 ;;		 -> EUSART_DefaultErrorHandler(1), 
  5262 ;; Auto vars:     Size  Location     Type
  5263 ;;		None
  5264 ;; Return value:  Size  Location     Type
  5265 ;;                  1    wreg      void 
  5266 ;; Registers used:
  5267 ;;		wreg
  5268 ;; Tracked objects:
  5269 ;;		On entry : 0/0
  5270 ;;		On exit  : 0/0
  5271 ;;		Unchanged: 0/0
  5272 ;; Data sizes:     COMMON   BANK0   BANK1   BANK2   BANK3   BANK4   BANK5   BANK6   BANK7   BANK8   BANK9  BANK10  BANK1
      +1  BANK12
  5273 ;;      Params:         2       0       0       0       0       0       0       0       0       0       0       0       
      +0       0
  5274 ;;      Locals:         0       0       0       0       0       0       0       0       0       0       0       0       
      +0       0
  5275 ;;      Temps:          0       0       0       0       0       0       0       0       0       0       0       0       
      +0       0
  5276 ;;      Totals:         2       0       0       0       0       0       0       0       0       0       0       0       
      +0       0
  5277 ;;Total ram usage:        2 bytes
  5278 ;; Hardware stack levels used: 1
  5279 ;; This function calls:
  5280 ;;		Nothing
  5281 ;; This function is called by:
  5282 ;;		_EUSART_Initialize
  5283 ;; This function uses a non-reentrant model
  5284 ;;
  5285                           
  5286  03D8                     _EUSART_SetErrorHandler:	
  5287                           ;psect for function _EUSART_SetErrorHandler
  5288                           
  5289  03D8                     l1522:	
  5290                           ;incstack = 0
  5291                           ; Regs used in _EUSART_SetErrorHandler: [wreg]
  5292                           
  5293                           
  5294                           ;mcc_generated_files/eusart.c: 166:     EUSART_ErrorHandler = interruptHandler;
  5295  03D8  0871               	movf	EUSART_SetErrorHandler@interruptHandler+1,w
  5296  03D9  0020               	movlb	0	; select bank0
  5297  03DA  00BC               	movwf	_EUSART_ErrorHandler+1
  5298  03DB  0870               	movf	EUSART_SetErrorHandler@interruptHandler,w
  5299  03DC  00BB               	movwf	_EUSART_ErrorHandler
  5300  03DD                     l261:
  5301  03DD  0008               	return
  5302  03DE                     __end_of_EUSART_SetErrorHandler:
  5303                           
  5304                           	psect	text31
  5305  043C                     __ptext31:	
  5306 ;; *************** function _EPWM1_Initialize *****************
  5307 ;; Defined at:
  5308 ;;		line 64 in file "mcc_generated_files/epwm1.c"
  5309 ;; Parameters:    Size  Location     Type
  5310 ;;		None
  5311 ;; Auto vars:     Size  Location     Type
  5312 ;;		None
  5313 ;; Return value:  Size  Location     Type
  5314 ;;                  1    wreg      void 
  5315 ;; Registers used:
  5316 ;;		wreg, status,2, status,0
  5317 ;; Tracked objects:
  5318 ;;		On entry : 0/0
  5319 ;;		On exit  : 0/0
  5320 ;;		Unchanged: 0/0
  5321 ;; Data sizes:     COMMON   BANK0   BANK1   BANK2   BANK3   BANK4   BANK5   BANK6   BANK7   BANK8   BANK9  BANK10  BANK1
      +1  BANK12
  5322 ;;      Params:         0       0       0       0       0       0       0       0       0       0       0       0       
      +0       0
  5323 ;;      Locals:         0       0       0       0       0       0       0       0       0       0       0       0       
      +0       0
  5324 ;;      Temps:          0       0       0       0       0       0       0       0       0       0       0       0       
      +0       0
  5325 ;;      Totals:         0       0       0       0       0       0       0       0       0       0       0       0       
      +0       0
  5326 ;;Total ram usage:        0 bytes
  5327 ;; Hardware stack levels used: 1
  5328 ;; This function calls:
  5329 ;;		Nothing
  5330 ;; This function is called by:
  5331 ;;		_SYSTEM_Initialize
  5332 ;; This function uses a non-reentrant model
  5333 ;;
  5334                           
  5335  043C                     _EPWM1_Initialize:	
  5336                           ;psect for function _EPWM1_Initialize
  5337                           
  5338  043C                     l1562:	
  5339                           ;incstack = 0
  5340                           ; Regs used in _EPWM1_Initialize: [wreg+status,2+status,0]
  5341                           
  5342                           
  5343                           ;mcc_generated_files/epwm1.c: 69:  CCP1CON = 0x1C;
  5344  043C  301C               	movlw	28
  5345  043D  0025               	movlb	5	; select bank5
  5346  043E  0093               	movwf	19	;volatile
  5347  043F                     l1564:
  5348                           
  5349                           ;mcc_generated_files/epwm1.c: 72:  ECCP1AS = 0x00;
  5350  043F  0195               	clrf	21	;volatile
  5351  0440                     l1566:
  5352                           
  5353                           ;mcc_generated_files/epwm1.c: 75:  PWM1CON = 0x80;
  5354  0440  3080               	movlw	128
  5355  0441  0094               	movwf	20	;volatile
  5356  0442                     l1568:
  5357                           
  5358                           ;mcc_generated_files/epwm1.c: 78:  PSTR1CON = 0x01;
  5359  0442  3001               	movlw	1
  5360  0443  0096               	movwf	22	;volatile
  5361  0444                     l1570:
  5362                           
  5363                           ;mcc_generated_files/epwm1.c: 81:  CCPR1H = 0x00;
  5364  0444  0192               	clrf	18	;volatile
  5365                           
  5366                           ;mcc_generated_files/epwm1.c: 84:  CCPR1L = 0x0F;
  5367  0445  300F               	movlw	15
  5368  0446  0091               	movwf	17	;volatile
  5369  0447                     l1572:
  5370                           
  5371                           ;mcc_generated_files/epwm1.c: 87:  CCPTMRSbits.C1TSEL = 0x1;
  5372  0447  081E               	movf	30,w	;volatile
  5373  0448  39FC               	andlw	-4
  5374  0449  3801               	iorlw	1
  5375  044A  009E               	movwf	30	;volatile
  5376  044B                     l301:
  5377  044B  0008               	return
  5378  044C                     __end_of_EPWM1_Initialize:
  5379                           
  5380                           	psect	text32
  5381  03F1                     __ptext32:	
  5382 ;; *************** function _ADC_Initialize *****************
  5383 ;; Defined at:
  5384 ;;		line 67 in file "mcc_generated_files/adc.c"
  5385 ;; Parameters:    Size  Location     Type
  5386 ;;		None
  5387 ;; Auto vars:     Size  Location     Type
  5388 ;;		None
  5389 ;; Return value:  Size  Location     Type
  5390 ;;                  1    wreg      void 
  5391 ;; Registers used:
  5392 ;;		wreg, status,2
  5393 ;; Tracked objects:
  5394 ;;		On entry : 0/0
  5395 ;;		On exit  : 0/0
  5396 ;;		Unchanged: 0/0
  5397 ;; Data sizes:     COMMON   BANK0   BANK1   BANK2   BANK3   BANK4   BANK5   BANK6   BANK7   BANK8   BANK9  BANK10  BANK1
      +1  BANK12
  5398 ;;      Params:         0       0       0       0       0       0       0       0       0       0       0       0       
      +0       0
  5399 ;;      Locals:         0       0       0       0       0       0       0       0       0       0       0       0       
      +0       0
  5400 ;;      Temps:          0       0       0       0       0       0       0       0       0       0       0       0       
      +0       0
  5401 ;;      Totals:         0       0       0       0       0       0       0       0       0       0       0       0       
      +0       0
  5402 ;;Total ram usage:        0 bytes
  5403 ;; Hardware stack levels used: 1
  5404 ;; This function calls:
  5405 ;;		Nothing
  5406 ;; This function is called by:
  5407 ;;		_SYSTEM_Initialize
  5408 ;; This function uses a non-reentrant model
  5409 ;;
  5410                           
  5411  03F1                     _ADC_Initialize:	
  5412                           ;psect for function _ADC_Initialize
  5413                           
  5414  03F1                     l1556:	
  5415                           ;incstack = 0
  5416                           ; Regs used in _ADC_Initialize: [wreg+status,2]
  5417                           
  5418                           
  5419                           ;mcc_generated_files/adc.c: 72:     ADCON1 = 0xE0;
  5420  03F1  30E0               	movlw	224
  5421  03F2  0021               	movlb	1	; select bank1
  5422  03F3  009E               	movwf	30	;volatile
  5423  03F4                     l1558:
  5424                           
  5425                           ;mcc_generated_files/adc.c: 75:     ADRESL = 0x00;
  5426  03F4  019B               	clrf	27	;volatile
  5427  03F5                     l1560:
  5428                           
  5429                           ;mcc_generated_files/adc.c: 78:     ADRESH = 0x00;
  5430  03F5  019C               	clrf	28	;volatile
  5431                           
  5432                           ;mcc_generated_files/adc.c: 81:     ADCON0 = 0x01;
  5433  03F6  3001               	movlw	1
  5434  03F7  009D               	movwf	29	;volatile
  5435  03F8                     l138:
  5436  03F8  0008               	return
  5437  03F9                     __end_of_ADC_Initialize:
  5438                           
  5439                           	psect	text33
  5440  03D3                     __ptext33:	
  5441 ;; *************** function _EUSART_is_rx_ready *****************
  5442 ;; Defined at:
  5443 ;;		line 99 in file "mcc_generated_files/eusart.c"
  5444 ;; Parameters:    Size  Location     Type
  5445 ;;		None
  5446 ;; Auto vars:     Size  Location     Type
  5447 ;;		None
  5448 ;; Return value:  Size  Location     Type
  5449 ;;                  1    wreg      _Bool 
  5450 ;; Registers used:
  5451 ;;		wreg, status,2, status,0
  5452 ;; Tracked objects:
  5453 ;;		On entry : 0/0
  5454 ;;		On exit  : 0/0
  5455 ;;		Unchanged: 0/0
  5456 ;; Data sizes:     COMMON   BANK0   BANK1   BANK2   BANK3   BANK4   BANK5   BANK6   BANK7   BANK8   BANK9  BANK10  BANK1
      +1  BANK12
  5457 ;;      Params:         0       0       0       0       0       0       0       0       0       0       0       0       
      +0       0
  5458 ;;      Locals:         0       0       0       0       0       0       0       0       0       0       0       0       
      +0       0
  5459 ;;      Temps:          0       0       0       0       0       0       0       0       0       0       0       0       
      +0       0
  5460 ;;      Totals:         0       0       0       0       0       0       0       0       0       0       0       0       
      +0       0
  5461 ;;Total ram usage:        0 bytes
  5462 ;; Hardware stack levels used: 1
  5463 ;; This function calls:
  5464 ;;		Nothing
  5465 ;; This function is called by:
  5466 ;;		_main
  5467 ;; This function uses a non-reentrant model
  5468 ;;
  5469                           
  5470  03D3                     _EUSART_is_rx_ready:	
  5471                           ;psect for function _EUSART_is_rx_ready
  5472                           
  5473  03D3                     l1686:	
  5474                           ;incstack = 0
  5475                           ; Regs used in _EUSART_is_rx_ready: [wreg+status,2+status,0]
  5476                           
  5477                           
  5478                           ;mcc_generated_files/eusart.c: 101:     return (_Bool)(PIR1bits.RCIF);
  5479  03D3  0020               	movlb	0	; select bank0
  5480  03D4  0E11               	swapf	17,w	;volatile
  5481  03D5  0C89               	rrf	9,f
  5482  03D6  3901               	andlw	1
  5483  03D7                     l224:
  5484  03D7  0008               	return
  5485  03D8                     __end_of_EUSART_is_rx_ready:
  5486                           
  5487                           	psect	text34
  5488  042D                     __ptext34:	
  5489 ;; *************** function _EUSART_Read *****************
  5490 ;; Defined at:
  5491 ;;		line 113 in file "mcc_generated_files/eusart.c"
  5492 ;; Parameters:    Size  Location     Type
  5493 ;;		None
  5494 ;; Auto vars:     Size  Location     Type
  5495 ;;		None
  5496 ;; Return value:  Size  Location     Type
  5497 ;;                  1    wreg      unsigned char 
  5498 ;; Registers used:
  5499 ;;		wreg, status,2
  5500 ;; Tracked objects:
  5501 ;;		On entry : 0/0
  5502 ;;		On exit  : 0/0
  5503 ;;		Unchanged: 0/0
  5504 ;; Data sizes:     COMMON   BANK0   BANK1   BANK2   BANK3   BANK4   BANK5   BANK6   BANK7   BANK8   BANK9  BANK10  BANK1
      +1  BANK12
  5505 ;;      Params:         0       0       0       0       0       0       0       0       0       0       0       0       
      +0       0
  5506 ;;      Locals:         0       0       0       0       0       0       0       0       0       0       0       0       
      +0       0
  5507 ;;      Temps:          0       0       0       0       0       0       0       0       0       0       0       0       
      +0       0
  5508 ;;      Totals:         0       0       0       0       0       0       0       0       0       0       0       0       
      +0       0
  5509 ;;Total ram usage:        0 bytes
  5510 ;; Hardware stack levels used: 1
  5511 ;; This function calls:
  5512 ;;		Nothing
  5513 ;; This function is called by:
  5514 ;;		_main
  5515 ;; This function uses a non-reentrant model
  5516 ;;
  5517                           
  5518  042D                     _EUSART_Read:	
  5519                           ;psect for function _EUSART_Read
  5520                           
  5521  042D                     l1690:	
  5522                           ;incstack = 0
  5523                           ; Regs used in _EUSART_Read: [wreg+status,2]
  5524                           
  5525  042D                     l233:	
  5526                           ;mcc_generated_files/eusart.c: 116:     {;mcc_generated_files/eusart.c: 117:     }
  5527                           
  5528                           
  5529                           ;mcc_generated_files/eusart.c: 115:     while(!PIR1bits.RCIF)
  5530  042D  0020               	movlb	0	; select bank0
  5531  042E  1E91               	btfss	17,5	;volatile
  5532  042F  2C31               	goto	u771
  5533  0430  2C32               	goto	u770
  5534  0431                     u771:
  5535  0431  2C2D               	goto	l233
  5536  0432                     u770:
  5537  0432                     l1692:
  5538                           
  5539                           ;mcc_generated_files/eusart.c: 119:     eusartRxLastError.status = 0;
  5540  0432  01FD               	clrf	_eusartRxLastError	;volatile
  5541  0433                     l1694:
  5542                           
  5543                           ;mcc_generated_files/eusart.c: 121:     if(1 == RCSTAbits.OERR)
  5544  0433  0023               	movlb	3	; select bank3
  5545  0434  1C9D               	btfss	29,1	;volatile
  5546  0435  2C37               	goto	u781
  5547  0436  2C38               	goto	u780
  5548  0437                     u781:
  5549  0437  2C3A               	goto	l1698
  5550  0438                     u780:
  5551  0438                     l1696:
  5552                           
  5553                           ;mcc_generated_files/eusart.c: 122:     {;mcc_generated_files/eusart.c: 125:         RCS
      +                          TAbits.CREN = 0;
  5554  0438  121D               	bcf	29,4	;volatile
  5555                           
  5556                           ;mcc_generated_files/eusart.c: 126:         RCSTAbits.CREN = 1;
  5557  0439  161D               	bsf	29,4	;volatile
  5558  043A                     l1698:
  5559                           
  5560                           ;mcc_generated_files/eusart.c: 129:     return RCREG;
  5561  043A  0819               	movf	25,w	;volatile
  5562  043B                     l237:
  5563  043B  0008               	return
  5564  043C                     __end_of_EUSART_Read:
  5565                           
  5566                           	psect	text35
  5567  0536                     __ptext35:	
  5568 ;; *************** function _EPWM1_LoadDutyValue *****************
  5569 ;; Defined at:
  5570 ;;		line 90 in file "mcc_generated_files/epwm1.c"
  5571 ;; Parameters:    Size  Location     Type
  5572 ;;  dutyValue       2    0[COMMON] unsigned short 
  5573 ;; Auto vars:     Size  Location     Type
  5574 ;;		None
  5575 ;; Return value:  Size  Location     Type
  5576 ;;                  1    wreg      void 
  5577 ;; Registers used:
  5578 ;;		wreg, status,2, status,0
  5579 ;; Tracked objects:
  5580 ;;		On entry : 0/0
  5581 ;;		On exit  : 0/0
  5582 ;;		Unchanged: 0/0
  5583 ;; Data sizes:     COMMON   BANK0   BANK1   BANK2   BANK3   BANK4   BANK5   BANK6   BANK7   BANK8   BANK9  BANK10  BANK1
      +1  BANK12
  5584 ;;      Params:         2       0       0       0       0       0       0       0       0       0       0       0       
      +0       0
  5585 ;;      Locals:         0       0       0       0       0       0       0       0       0       0       0       0       
      +0       0
  5586 ;;      Temps:          2       0       0       0       0       0       0       0       0       0       0       0       
      +0       0
  5587 ;;      Totals:         4       0       0       0       0       0       0       0       0       0       0       0       
      +0       0
  5588 ;;Total ram usage:        4 bytes
  5589 ;; Hardware stack levels used: 1
  5590 ;; This function calls:
  5591 ;;		Nothing
  5592 ;; This function is called by:
  5593 ;;		_main
  5594 ;; This function uses a non-reentrant model
  5595 ;;
  5596                           
  5597  0536                     _EPWM1_LoadDutyValue:	
  5598                           ;psect for function _EPWM1_LoadDutyValue
  5599                           
  5600  0536                     l1702:	
  5601                           ;incstack = 0
  5602                           ; Regs used in _EPWM1_LoadDutyValue: [wreg+status,2+status,0]
  5603                           
  5604                           
  5605                           ;mcc_generated_files/epwm1.c: 90: void EPWM1_LoadDutyValue(uint16_t dutyValue);mcc_gener
      +                          ated_files/epwm1.c: 91: {;mcc_generated_files/epwm1.c: 93:     CCPR1L = ((dutyValue & 0x
      +                          03FC)>>2);
  5606  0536  0871               	movf	EPWM1_LoadDutyValue@dutyValue+1,w
  5607  0537  00F3               	movwf	??_EPWM1_LoadDutyValue+1
  5608  0538  0870               	movf	EPWM1_LoadDutyValue@dutyValue,w
  5609  0539  00F2               	movwf	??_EPWM1_LoadDutyValue
  5610  053A  36F3               	lsrf	??_EPWM1_LoadDutyValue+1,f
  5611  053B  0CF2               	rrf	??_EPWM1_LoadDutyValue,f
  5612  053C  36F3               	lsrf	??_EPWM1_LoadDutyValue+1,f
  5613  053D  0CF2               	rrf	??_EPWM1_LoadDutyValue,f
  5614  053E  0872               	movf	??_EPWM1_LoadDutyValue,w
  5615  053F  0025               	movlb	5	; select bank5
  5616  0540  0091               	movwf	17	;volatile
  5617                           
  5618                           ;mcc_generated_files/epwm1.c: 96:     CCP1CON = ((uint8_t)(CCP1CON & 0xCF) | ((dutyValue
      +                           & 0x0003)<<4));
  5619  0541  0870               	movf	EPWM1_LoadDutyValue@dutyValue,w
  5620  0542  3903               	andlw	3
  5621  0543  00F2               	movwf	??_EPWM1_LoadDutyValue
  5622  0544  3004               	movlw	4
  5623  0545                     u795:
  5624  0545  35F2               	lslf	??_EPWM1_LoadDutyValue,f
  5625  0546  0B89               	decfsz	9,f
  5626  0547  2D45               	goto	u795
  5627  0548  0813               	movf	19,w	;volatile
  5628  0549  39CF               	andlw	207
  5629  054A  0472               	iorwf	??_EPWM1_LoadDutyValue,w
  5630  054B  0093               	movwf	19	;volatile
  5631  054C                     l304:
  5632  054C  0008               	return
  5633  054D                     __end_of_EPWM1_LoadDutyValue:
  5634  007E                     btemp	set	126	;btemp
  5635  007E                     wtemp0	set	126
  5636                           
  5637                           	psect	idloc
  5638                           
  5639                           ;Config register IDLOC0 @ 0x8000
  5640                           ;	unspecified, using default values
  5641  8000                     	org	32768
  5642  8000  3FFF               	dw	16383
  5643                           
  5644                           ;Config register IDLOC1 @ 0x8001
  5645                           ;	unspecified, using default values
  5646  8001                     	org	32769
  5647  8001  3FFF               	dw	16383
  5648                           
  5649                           ;Config register IDLOC2 @ 0x8002
  5650                           ;	unspecified, using default values
  5651  8002                     	org	32770
  5652  8002  3FFF               	dw	16383
  5653                           
  5654                           ;Config register IDLOC3 @ 0x8003
  5655                           ;	unspecified, using default values
  5656  8003                     	org	32771
  5657  8003  3FFF               	dw	16383
  5658                           
  5659                           	psect	config
  5660                           
  5661                           ;Config register CONFIG1 @ 0x8007
  5662                           ;	Oscillator Selection
  5663                           ;	FOSC = INTOSC, INTOSC oscillator: I/O function on CLKIN pin
  5664                           ;	Watchdog Timer Enable
  5665                           ;	WDTE = OFF, WDT disabled
  5666                           ;	Power-up Timer Enable
  5667                           ;	PWRTE = OFF, PWRT disabled
  5668                           ;	MCLR Pin Function Select
  5669                           ;	MCLRE = ON, MCLR/VPP pin function is MCLR
  5670                           ;	Flash Program Memory Code Protection
  5671                           ;	CP = OFF, Program memory code protection is disabled
  5672                           ;	Data Memory Code Protection
  5673                           ;	CPD = OFF, Data memory code protection is disabled
  5674                           ;	Brown-out Reset Enable
  5675                           ;	BOREN = OFF, Brown-out Reset disabled
  5676                           ;	Clock Out Enable
  5677                           ;	CLKOUTEN = OFF, CLKOUT function is disabled. I/O or oscillator function on the CLKOUT 
      +                          pin
  5678                           ;	Internal/External Switchover
  5679                           ;	IESO = OFF, Internal/External Switchover mode is disabled
  5680                           ;	Fail-Safe Clock Monitor Enable
  5681                           ;	FCMEN = OFF, Fail-Safe Clock Monitor is disabled
  5682  8007                     	org	32775
  5683  8007  09E4               	dw	2532
  5684                           
  5685                           ;Config register CONFIG2 @ 0x8008
  5686                           ;	Flash Memory Self-Write Protection
  5687                           ;	WRT = OFF, Write protection off
  5688                           ;	PLL Enable
  5689                           ;	PLLEN = OFF, 4x PLL disabled
  5690                           ;	Stack Overflow/Underflow Reset Enable
  5691                           ;	STVREN = ON, Stack Overflow or Underflow will cause a Reset
  5692                           ;	Brown-out Reset Voltage Selection
  5693                           ;	BORV = LO, Brown-out Reset Voltage (Vbor), low trip point selected.
  5694                           ;	Low-Voltage Programming Enable
  5695                           ;	LVP = ON, Low-voltage programming enabled
  5696  8008                     	org	32776
  5697  8008  3EFF               	dw	16127

Data Sizes:
    Strings     0
    Constant    0
    Data        2
    BSS         10
    Persistent  39
    Stack       0

Auto Spaces:
    Space          Size  Autos    Used
    COMMON           14     12      14
    BANK0            80     18      35
    BANK1            80      0       0
    BANK2            80      0       0
    BANK3            80      0       0
    BANK4            80      0       0
    BANK5            80      0       0
    BANK6            80      0       0
    BANK7            80      0       0
    BANK8            80      0       0
    BANK9            80      0       0
    BANK10           80      0       0
    BANK11           80      0       0
    BANK12           48      0       0

Pointer List with Targets:

    ADC_InterruptHandler	PTR FTN()void  size(2) Largest target is 1
		 -> Absolute function(), 

    EUSART_SetErrorHandler@interruptHandler	PTR FTN()void  size(2) Largest target is 1
		 -> EUSART_DefaultErrorHandler(), 

    EUSART_ErrorHandler	PTR FTN()void  size(2) Largest target is 1
		 -> Absolute function(), EUSART_DefaultErrorHandler(), 

    EUSART_SetOverrunErrorHandler@interruptHandler	PTR FTN()void  size(2) Largest target is 1
		 -> EUSART_DefaultOverrunErrorHandler(), 

    EUSART_OverrunErrorHandler	PTR FTN()void  size(2) Largest target is 1
		 -> Absolute function(), EUSART_DefaultOverrunErrorHandler(), 

    EUSART_SetFramingErrorHandler@interruptHandler	PTR FTN()void  size(2) Largest target is 1
		 -> EUSART_DefaultFramingErrorHandler(), 

    EUSART_FramingErrorHandler	PTR FTN()void  size(2) Largest target is 1
		 -> Absolute function(), EUSART_DefaultFramingErrorHandler(), 


Critical Paths under _main in COMMON

    _retrainhanh->_PWM3_LoadDutyValue
    _retrainhanh->_PWM4_LoadDutyValue
    _retrai3->_PWM3_LoadDutyValue
    _retrai3->_PWM4_LoadDutyValue
    _retrai2->_PWM3_LoadDutyValue
    _retrai2->_PWM4_LoadDutyValue
    _retrai->_PWM3_LoadDutyValue
    _retrai->_PWM4_LoadDutyValue
    _rephainhanh->_PWM3_LoadDutyValue
    _rephainhanh->_PWM4_LoadDutyValue
    _rephai2->_PWM3_LoadDutyValue
    _rephai2->_PWM4_LoadDutyValue
    _rephai->_PWM3_LoadDutyValue
    _rephai->_PWM4_LoadDutyValue
    _map->___awdiv
    ___awdiv->___wmul
    _lui_nhanh->_PWM3_LoadDutyValue
    _lui_nhanh->_PWM4_LoadDutyValue
    _lui->_PWM3_LoadDutyValue
    _lui->_PWM4_LoadDutyValue
    _dung_lai->_PWM3_LoadDutyValue
    _dung_lai->_PWM4_LoadDutyValue
    _di_thang_nhanh->_PWM3_LoadDutyValue
    _di_thang_nhanh->_PWM4_LoadDutyValue
    _di_thang->_PWM3_LoadDutyValue
    _di_thang->_PWM4_LoadDutyValue
    _EUSART_Initialize->_EUSART_SetErrorHandler
    _EUSART_Initialize->_EUSART_SetFramingErrorHandler
    _EUSART_Initialize->_EUSART_SetOverrunErrorHandler

Critical Paths under _main in BANK0

    _main->_map
    _map->___awdiv

Critical Paths under _main in BANK1

    None.

Critical Paths under _main in BANK2

    None.

Critical Paths under _main in BANK3

    None.

Critical Paths under _main in BANK4

    None.

Critical Paths under _main in BANK5

    None.

Critical Paths under _main in BANK6

    None.

Critical Paths under _main in BANK7

    None.

Critical Paths under _main in BANK8

    None.

Critical Paths under _main in BANK9

    None.

Critical Paths under _main in BANK10

    None.

Critical Paths under _main in BANK11

    None.

Critical Paths under _main in BANK12

    None.

Call Graph Tables:

 ---------------------------------------------------------------------------------
 (Depth) Function   	        Calls       Base Space   Used Autos Params    Refs
 ---------------------------------------------------------------------------------
 (0) _main                                                 5     5      0   25286
                                             11 COMMON     1     1      0
                                             14 BANK0      4     4      0
                _EPWM1_LoadDutyValue
                        _EUSART_Read
                 _EUSART_is_rx_ready
                  _SYSTEM_Initialize
                           _di_thang
                     _di_thang_nhanh
                           _dung_lai
                                _lui
                          _lui_nhanh
                                _map
                             _rephai
                            _rephai2
                        _rephainhanh
                             _retrai
                            _retrai2
                            _retrai3
                        _retrainhanh
 ---------------------------------------------------------------------------------
 (1) _retrainhanh                                          0     0      0    1912
                 _PWM3_LoadDutyValue
                 _PWM4_LoadDutyValue
 ---------------------------------------------------------------------------------
 (1) _retrai3                                              0     0      0    1912
                 _PWM3_LoadDutyValue
                 _PWM4_LoadDutyValue
 ---------------------------------------------------------------------------------
 (1) _retrai2                                              0     0      0    1912
                 _PWM3_LoadDutyValue
                 _PWM4_LoadDutyValue
 ---------------------------------------------------------------------------------
 (1) _retrai                                               0     0      0    1912
                 _PWM3_LoadDutyValue
                 _PWM4_LoadDutyValue
 ---------------------------------------------------------------------------------
 (1) _rephainhanh                                          0     0      0    1912
                 _PWM3_LoadDutyValue
                 _PWM4_LoadDutyValue
 ---------------------------------------------------------------------------------
 (1) _rephai2                                              0     0      0    1912
                 _PWM3_LoadDutyValue
                 _PWM4_LoadDutyValue
 ---------------------------------------------------------------------------------
 (1) _rephai                                               0     0      0    1912
                 _PWM3_LoadDutyValue
                 _PWM4_LoadDutyValue
 ---------------------------------------------------------------------------------
 (1) _map                                                 10     0     10    1610
                                              4 BANK0     10     0     10
                            ___awdiv
                             ___wmul
 ---------------------------------------------------------------------------------
 (2) ___wmul                                               6     2      4     244
                                              0 COMMON     6     2      4
 ---------------------------------------------------------------------------------
 (2) ___awdiv                                              9     5      4     452
                                              6 COMMON     5     1      4
                                              0 BANK0      4     4      0
                             ___wmul (ARG)
 ---------------------------------------------------------------------------------
 (1) _lui_nhanh                                            0     0      0    1912
                 _PWM3_LoadDutyValue
                 _PWM4_LoadDutyValue
 ---------------------------------------------------------------------------------
 (1) _lui                                                  0     0      0    1912
                 _PWM3_LoadDutyValue
                 _PWM4_LoadDutyValue
 ---------------------------------------------------------------------------------
 (1) _dung_lai                                             0     0      0    1912
                 _PWM3_LoadDutyValue
                 _PWM4_LoadDutyValue
 ---------------------------------------------------------------------------------
 (1) _di_thang_nhanh                                       0     0      0    1912
                 _PWM3_LoadDutyValue
                 _PWM4_LoadDutyValue
 ---------------------------------------------------------------------------------
 (1) _di_thang                                             0     0      0    1912
                 _PWM3_LoadDutyValue
                 _PWM4_LoadDutyValue
 ---------------------------------------------------------------------------------
 (2) _PWM4_LoadDutyValue                                   4     2      2     956
                                              0 COMMON     4     2      2
 ---------------------------------------------------------------------------------
 (2) _PWM3_LoadDutyValue                                   4     2      2     956
                                              0 COMMON     4     2      2
 ---------------------------------------------------------------------------------
 (1) _SYSTEM_Initialize                                    0     0      0     294
                     _ADC_Initialize
                   _EPWM1_Initialize
                  _EUSART_Initialize
              _OSCILLATOR_Initialize
             _PIN_MANAGER_Initialize
                    _PWM3_Initialize
                    _PWM4_Initialize
                    _TMR0_Initialize
                    _TMR2_Initialize
                    _TMR4_Initialize
                     _WDT_Initialize
 ---------------------------------------------------------------------------------
 (2) _WDT_Initialize                                       0     0      0       0
 ---------------------------------------------------------------------------------
 (2) _TMR4_Initialize                                      0     0      0       0
 ---------------------------------------------------------------------------------
 (2) _TMR2_Initialize                                      0     0      0       0
 ---------------------------------------------------------------------------------
 (2) _TMR0_Initialize                                      1     1      0       0
                                              0 COMMON     1     1      0
 ---------------------------------------------------------------------------------
 (2) _PWM4_Initialize                                      0     0      0       0
 ---------------------------------------------------------------------------------
 (2) _PWM3_Initialize                                      0     0      0       0
 ---------------------------------------------------------------------------------
 (2) _PIN_MANAGER_Initialize                               0     0      0       0
 ---------------------------------------------------------------------------------
 (2) _OSCILLATOR_Initialize                                0     0      0       0
 ---------------------------------------------------------------------------------
 (2) _EUSART_Initialize                                    0     0      0     294
             _EUSART_SetErrorHandler
      _EUSART_SetFramingErrorHandler
      _EUSART_SetOverrunErrorHandler
 ---------------------------------------------------------------------------------
 (3) _EUSART_SetOverrunErrorHandler                        2     0      2      98
                                              0 COMMON     2     0      2
 ---------------------------------------------------------------------------------
 (3) _EUSART_SetFramingErrorHandler                        2     0      2      98
                                              0 COMMON     2     0      2
 ---------------------------------------------------------------------------------
 (3) _EUSART_SetErrorHandler                               2     0      2      98
                                              0 COMMON     2     0      2
 ---------------------------------------------------------------------------------
 (2) _EPWM1_Initialize                                     0     0      0       0
 ---------------------------------------------------------------------------------
 (2) _ADC_Initialize                                       0     0      0       0
 ---------------------------------------------------------------------------------
 (1) _EUSART_is_rx_ready                                   0     0      0       0
 ---------------------------------------------------------------------------------
 (1) _EUSART_Read                                          0     0      0       0
 ---------------------------------------------------------------------------------
 (1) _EPWM1_LoadDutyValue                                  4     2      2     348
                                              0 COMMON     4     2      2
 ---------------------------------------------------------------------------------
 Estimated maximum stack depth 3
 ---------------------------------------------------------------------------------

 Call Graph Graphs:

 _main (ROOT)
   _EPWM1_LoadDutyValue
   _EUSART_Read
   _EUSART_is_rx_ready
   _SYSTEM_Initialize
     _ADC_Initialize
     _EPWM1_Initialize
     _EUSART_Initialize
       _EUSART_SetErrorHandler
       _EUSART_SetFramingErrorHandler
       _EUSART_SetOverrunErrorHandler
     _OSCILLATOR_Initialize
     _PIN_MANAGER_Initialize
     _PWM3_Initialize
     _PWM4_Initialize
     _TMR0_Initialize
     _TMR2_Initialize
     _TMR4_Initialize
     _WDT_Initialize
   _di_thang
     _PWM3_LoadDutyValue
     _PWM4_LoadDutyValue
   _di_thang_nhanh
     _PWM3_LoadDutyValue
     _PWM4_LoadDutyValue
   _dung_lai
     _PWM3_LoadDutyValue
     _PWM4_LoadDutyValue
   _lui
     _PWM3_LoadDutyValue
     _PWM4_LoadDutyValue
   _lui_nhanh
     _PWM3_LoadDutyValue
     _PWM4_LoadDutyValue
   _map
     ___awdiv
       ___wmul (ARG)
     ___wmul
   _rephai
     _PWM3_LoadDutyValue
     _PWM4_LoadDutyValue
   _rephai2
     _PWM3_LoadDutyValue
     _PWM4_LoadDutyValue
   _rephainhanh
     _PWM3_LoadDutyValue
     _PWM4_LoadDutyValue
   _retrai
     _PWM3_LoadDutyValue
     _PWM4_LoadDutyValue
   _retrai2
     _PWM3_LoadDutyValue
     _PWM4_LoadDutyValue
   _retrai3
     _PWM3_LoadDutyValue
     _PWM4_LoadDutyValue
   _retrainhanh
     _PWM3_LoadDutyValue
     _PWM4_LoadDutyValue

 Address spaces:
Name               Size   Autos  Total    Cost      Usage
BIGRAM             3F0      0       0       0        0.0%
EEDATA             100      0       0       0        0.0%
NULL                 0      0       0       0        0.0%
CODE                 0      0       0       0        0.0%
BITCOMMON            E      0       0       1        0.0%
BITSFR0              0      0       0       1        0.0%
SFR0                 0      0       0       1        0.0%
COMMON               E      C       E       2      100.0%
BITSFR1              0      0       0       2        0.0%
SFR1                 0      0       0       2        0.0%
BITSFR2              0      0       0       3        0.0%
SFR2                 0      0       0       3        0.0%
STACK                0      0       0       3        0.0%
BITBANK0            50      0       0       4        0.0%
BITSFR3              0      0       0       4        0.0%
SFR3                 0      0       0       4        0.0%
BANK0               50     12      23       5       43.8%
BITSFR4              0      0       0       5        0.0%
SFR4                 0      0       0       5        0.0%
BITBANK1            50      0       0       6        0.0%
BITSFR5              0      0       0       6        0.0%
SFR5                 0      0       0       6        0.0%
BANK1               50      0       0       7        0.0%
BITSFR6              0      0       0       7        0.0%
SFR6                 0      0       0       7        0.0%
BITBANK2            50      0       0       8        0.0%
BITSFR7              0      0       0       8        0.0%
SFR7                 0      0       0       8        0.0%
BANK2               50      0       0       9        0.0%
BITSFR8              0      0       0       9        0.0%
SFR8                 0      0       0       9        0.0%
BITBANK3            50      0       0      10        0.0%
BITSFR9              0      0       0      10        0.0%
SFR9                 0      0       0      10        0.0%
BANK3               50      0       0      11        0.0%
BITSFR10             0      0       0      11        0.0%
SFR10                0      0       0      11        0.0%
BITBANK4            50      0       0      12        0.0%
BITSFR11             0      0       0      12        0.0%
SFR11                0      0       0      12        0.0%
BANK4               50      0       0      13        0.0%
BITSFR12             0      0       0      13        0.0%
SFR12                0      0       0      13        0.0%
BITBANK5            50      0       0      14        0.0%
BITSFR13             0      0       0      14        0.0%
SFR13                0      0       0      14        0.0%
BANK5               50      0       0      15        0.0%
BITSFR14             0      0       0      15        0.0%
SFR14                0      0       0      15        0.0%
BITBANK6            50      0       0      16        0.0%
BITSFR15             0      0       0      16        0.0%
SFR15                0      0       0      16        0.0%
BANK6               50      0       0      17        0.0%
BITSFR16             0      0       0      17        0.0%
SFR16                0      0       0      17        0.0%
BITBANK7            50      0       0      18        0.0%
BITSFR17             0      0       0      18        0.0%
SFR17                0      0       0      18        0.0%
BANK7               50      0       0      19        0.0%
BITSFR18             0      0       0      19        0.0%
SFR18                0      0       0      19        0.0%
BITSFR19             0      0       0      20        0.0%
SFR19                0      0       0      20        0.0%
ABS                  0      0      31      20        0.0%
BITBANK8            50      0       0      21        0.0%
BITSFR20             0      0       0      21        0.0%
SFR20                0      0       0      21        0.0%
BANK8               50      0       0      22        0.0%
BITSFR21             0      0       0      22        0.0%
SFR21                0      0       0      22        0.0%
BITBANK9            50      0       0      23        0.0%
BITSFR22             0      0       0      23        0.0%
SFR22                0      0       0      23        0.0%
BANK9               50      0       0      24        0.0%
BITSFR23             0      0       0      24        0.0%
SFR23                0      0       0      24        0.0%
BITBANK10           50      0       0      25        0.0%
BITSFR24             0      0       0      25        0.0%
SFR24                0      0       0      25        0.0%
BANK10              50      0       0      26        0.0%
BITSFR25             0      0       0      26        0.0%
SFR25                0      0       0      26        0.0%
BITBANK11           50      0       0      27        0.0%
BITSFR26             0      0       0      27        0.0%
SFR26                0      0       0      27        0.0%
BANK11              50      0       0      28        0.0%
BITSFR27             0      0       0      28        0.0%
SFR27                0      0       0      28        0.0%
BITBANK12           30      0       0      29        0.0%
BITSFR28             0      0       0      29        0.0%
SFR28                0      0       0      29        0.0%
BANK12              30      0       0      30        0.0%
BITSFR29             0      0       0      30        0.0%
SFR29                0      0       0      30        0.0%
BITSFR30             0      0       0      31        0.0%
SFR30                0      0       0      31        0.0%
DATA                 0      0      31      31        0.0%
BITSFR31             0      0       0      32        0.0%
SFR31                0      0       0      32        0.0%


Microchip Technology PIC Macro Assembler V2.36 build 20220127204148 
Symbol Table                                                                                   Wed Jun 22 16:12:08 2022

                                            _a 0036                                              _b 0034  
                                  map@inputMin 0026                                             l33 05F7  
                                           l36 03F0                                             l39 03D2  
                                           l72 0595                                             l88 0400  
                                 ___awdiv@sign 0021                            ___wmul@multiplicand 0072  
                              _timer0ReloadVal 007C                                            l121 0563  
                                          l301 044B                                            l118 040A  
                                          l304 054C                                            l224 03D7  
                                          l216 05D5                                            l233 042D  
                                          l138 03F8                                            l170 0414  
                                          l402 0521                                            l411 04E5  
                                          l237 043B                                            l261 03DD  
                                          l317 041E                                            l173 057A  
                                          l405 0535                                            l414 04F9  
                                          l430 0713                                            l255 03E3  
                                          l272 042C                                            l408 050D  
                                          l440 0750                                            l432 0723  
                                          l425 0737                                            l258 03E9  
                                          l426 06FB                                            l419 06B7  
                                          l612 05A0                                            l428 0707  
                                          l381 04BD                                            l614 05B4  
                                          l462 061C                                            l390 0470  
                                          l384 04D1                                            l393 0496  
                                          l387 045D                                            l396 04A9  
                                          l399 0483                                            l765 067C  
                                          _PR2 001B                                            _PR4 0416  
                                          u710 064F                                            u630 059C  
                                          u615 055C                                            u711 064E  
                                          u631 059B                                            u800 06BF  
                                          u625 0573                                            u705 0643  
                                          u801 06BE                                            u730 065E  
                                          u810 06C7                                            u731 065D  
                                          u811 06C6                                            u660 05B0  
                                          u900 070F                                            u820 06DC  
                                          u725 0650                                            u661 05AF  
                                          u645 05A1                                            u901 070E  
                                          u821 06DB                                            u750 066E  
                                          u670 0623                                            u910 0717  
                                          u830 06E3                                            u751 066D  
                                          u735 065A                                            u671 0622  
                                          u655 05A6                                            u911 0716  
                                          u831 06E2                                            u760 0673  
                                          u680 062E                                            u920 071B  
                                          u840 06EF                                            u761 0672  
                                          u745 0664                                            u681 062D  
                                          u921 071A                                            u841 06EE  
                                          u770 0432                                            u690 063F  
                                          u930 071F                                            u850 06F3  
                                          u771 0431                                            u691 063E  
                                          u931 071E                                            u851 06F2  
                                          u780 0438                                            u940 0727  
                                          u860 06F7                                            u781 0437  
                                          u941 0726                                            u861 06F6  
                                          u950 072B                                            u870 06FF  
                                          u951 072A                                            u871 06FE  
                                          u960 072F                                            u880 0703  
                                          u961 072E                                            u881 0702  
                                          u970 073B                                            u890 070B  
                                          u795 0545                                            u971 073A  
                                          u891 070A                                            u980 0742  
                                          u981 0741                                            u990 0749  
                                          u991 0748                                            _map 05F8  
                                          _lui 04D2                 ?_EUSART_SetFramingErrorHandler 0070  
                              _TMR2_Initialize 03F9                                _PWM4_Initialize 040B  
                                          wreg 0009                                   ?_EUSART_Read 0070  
                                         l1520 03E4                                           l1600 03FE  
                                         l1522 03D8                                           l1610 05B5  
                                         l1530 0584                                           l1602 041F  
                                         l1620 05D4                                           l1612 05BE  
                                         l1540 058F                                           l1532 0586  
                                         l1524 057B                                           l1604 0424  
                                         l1702 0536                                           l1518 03DE  
                                         l1614 05BF                                           l1550 03ED  
                                         l1542 0590                                           l1534 058A  
                                         l1526 057F                                           l1606 0427  
                                         l1622 054D                                           l1710 04C3  
                                         l1630 059C                                           l1560 03F5  
                                         l1616 05C6                                           l1552 03EE  
                                         l1544 0592                                           l1536 058C  
                                         l1528 0582                                           l1608 042B  
                                         l1624 0564                                           l1704 04AA  
                                         l1712 044C                                           l1640 061D  
                                         l1632 05A5                                           l1720 0484  
                                         l1800 0733                                           l1570 0444  
                                         l1562 043C                                           l1618 05CD  
                                         l1546 0594                                           l1538 058E  
                                         l1554 03CF                                           l1706 04AF  
                                         l1714 0451                                           l1650 062E  
                                         l1642 061F                                           l1634 05AA  
                                         l1626 0596                                           l1730 0476  
                                         l1722 0489                                           l1810 075F  
                                         l1802 073B                                           l1556 03F1  
                                         l1572 0447                                           l1564 043F  
                                         l1548 03EA                                           l1580 041B  
                                         l1708 04BE                                           l1660 0642  
                                         l1652 0633                                           l1644 0623  
                                         l1636 05B0                                           l1628 0598  
                                         l1716 045E                                           l1740 04FA  
                                         l1724 0497                                           l1732 050E  
                                         l1820 0779                                           l1812 0765  
                                         l1804 0742                                           l1558 03F4  
                                         l1566 0440                                           l1590 0406  
                                         l1582 040B                                           l1574 0415  
                                         l1750 04EB                                           l1670 0662  
                                         l1662 0647                                           l1654 0637  
                                         l1646 0628                                           l1718 0463  
                                         l1742 04FF                                           l1726 049C  
                                         l1734 0513                                           l1830 0791  
                                         l1822 077C                                           l1814 0768  
                                         l1806 0749                                           l1568 0442  
                                         l1592 0407                                           l1584 0410  
                                         l1576 0418                                           l1744 04D2  
                                         l1680 0678                                           l1672 0663  
                                         l1664 064B                                           l1656 0639  
                                         l1648 062A                                           l1752 05F8  
                                         l1728 0471                                           l1736 0522  
                                         l1840 07AB                                           l1832 0797  
                                         l1824 0783                                           l1816 076F  
                                         l1808 0758                                           l1760 06C7  
                                         l1690 042D                                           l1586 0411  
                                         l1594 03F9                                           l1578 0419  
                                         l1746 04D7                                           l1674 0668  
                                         l1666 064F                                           l1658 063F  
                                         l1738 0527                                           l1842 07AF  
                                         l1834 079A                                           l1826 0786  
                                         l1818 0772                                           l1850 07C2  
                                         l1770 06E3                                           l1762 06CD  
                                         l1692 0432                                           l1588 0401  
                                         l1596 03FC                                           l1684 05D6  
                                         l1748 04E6                                           l1668 065E  
                                         l1676 066E                                           l1852 07CA  
                                         l1844 07B5                                           l1836 07A1  
                                         l1828 078D                                           l1780 06FF  
                                         l1772 06EA                                           l1764 06D0  
                                         l1756 067D                                           l1694 0433  
                                         l1686 03D3                                           l1598 03FD  
                                         l1678 0673                                           l1854 07D1  
                                         l1846 07B8                                           l1838 07A5  
                                         l1790 071B                                           l1782 0703  
                                         l1774 06EF                                           l1766 06D7  
                                         l1758 06BF                                           l1696 0438  
                                         l1856 07D9                                           l1848 07BF  
                                         l1792 071F                                           l1784 070B  
                                         l1776 06F3                                           l1768 06DC  
                                         l1698 043A                                           l1794 0727  
                                         l1786 070F                                           l1778 06F7  
                                         l1858 07E1                                           l1796 072B  
                                         l1788 0717                                           l1798 072F  
                                         ?_map 0024                                           ?_lui 0070  
                                         u1000 0758                                           u1001 0757  
                                         u1010 0765                                           u1011 0764  
                                         u1100 07BF                                           u1020 076F  
                                         u1101 07BE                                           u1021 076E  
                                         u1110 07CA                                           u1030 0779  
                                         u1111 07C9                                           u1031 0778  
                                         u1120 07D9                                           u1040 0783  
                                         u1121 07D8                                           u1041 0782  
                                         u1130 07E8                                           u1050 078D  
                                         u1131 07E7                                           u1051 078C  
                                         u1060 0797                                           u1061 0796  
                                         u1070 07A1                                           u1071 07A0  
                                         u1080 07AB                                           u1081 07AA  
                                         u1090 07B5                                           u1091 07B4  
                                         u1147 06D3                                           _LATA 010C  
                                         _LATB 010D                                           _LATC 010E  
                                         _TMR0 0015                                           _TMR2 001A  
                                         _TMR4 0415                                           _WPUA 020C  
                                         _WPUB 020D                                           _WPUC 020E  
                                         _main 067D                                           btemp 007E  
                                         start 0002                          ??_EPWM1_LoadDutyValue 0072  
                                        ??_map 007B                                          ??_lui 0074  
                      __end_of_TMR0_Initialize 042D                  __end_of_OSCILLATOR_Initialize 03F1  
                                        ?_main 0070                                __end_of___awdiv 067D  
                              ___awdiv@divisor 0076                                          _T2CON 001C  
                                        _T4CON 0417                                ___awdiv@counter 0020  
                                        _RCREG 0199                                          _RCSTA 019D  
                           _PWM4_LoadDutyValue 0564                                          _TRISA 008C  
                                        _TRISB 008D                                          _TRISC 008E  
                                        _TXREG 019A                                          _TXSTA 019E  
                              _TMR4_Initialize 0415                                 _WDT_Initialize 03CF  
                          ?_PWM4_LoadDutyValue 0070                                          _value 003A  
                                        _state 0032                                __end_of_rephai2 0484  
                      __end_of_PWM3_Initialize 040B                                __end_of_retrai2 04AA  
                              __end_of_retrai3 0522                                          status 0003  
                                        wtemp0 007E                                __initialization 07EB  
                                 __end_of_main 07EB                           ??_PWM4_LoadDutyValue 0072  
                      __end_of_PWM4_Initialize 0415                        __end_of_TMR2_Initialize 0401  
                                       ??_main 007B                         __end_of_WDT_Initialize 03D3  
            _EUSART_DefaultFramingErrorHandler 0000                                         _ADCON0 009D  
                                       _ADCON1 009E                     _EUSART_OverrunErrorHandler 003D  
                                       _ADRESH 009C                                         _ADRESL 009B  
                                       _CCPR1H 0292                                         _CCPR3H 0312  
                                       _CCPR1L 0291                                         _CCPR4H 0319  
                                       _CCPR3L 0311                                         _CCPR4L 0318  
                             ___awdiv@dividend 0078                                   ?_rephainhanh 0070  
                                       _ANSELA 018C                                         _ANSELB 018D  
                                       _ANSELC 018E                     __end_of_EUSART_is_rx_ready 03D8  
                                       _BORCON 0116                                         _OSCCON 0099  
                                       _SPBRGH 019C                                         _SPBRGL 019B  
                                       _WDTCON 0097                                         _Dis_cm 0041  
                             __end_of_di_thang 04BE                                         ___wmul 0596  
                                    ??___awdiv 007A                               __end_of_dung_lai 045E  
                                 ?_retrainhanh 0070                               ?_TMR0_Initialize 0070  
                      __end_of_TMR4_Initialize 041F                               ___awdiv@quotient 0022  
                                       _rephai 045E                                         _retrai 0484  
                                    ??_rephai2 0074                                ?_WDT_Initialize 0070  
                                    ??_retrai2 0074                                      ??_retrai3 0074  
                             ?_PWM3_Initialize 0070                              _SYSTEM_Initialize 05D6  
                      __end_of__initialization 07FD                             ?_SYSTEM_Initialize 0070  
                            ?_EPWM1_Initialize 0070                                 __pcstackCOMMON 0070  
                                 __pidataBANK0 03CD                            ??_SYSTEM_Initialize 0072  
                           ??_EPWM1_Initialize 0070                               ?_TMR2_Initialize 0070  
                             ?_PWM4_Initialize 0070                    PWM4_LoadDutyValue@dutyValue 0070  
                               _OPTION_REGbits 0095                                 _di_thang_nhanh 04BE  
              ??_EUSART_SetOverrunErrorHandler 0072                      __end_of_SYSTEM_Initialize 05F8  
                                   __pbssBANK0 0032                                     __pnvCOMMON 007C  
                                   __pmaintext 067D                                        ?___wmul 0070  
                                      _CCP1CON 0293                                        _CCP3CON 0313  
                                      _CCP4CON 031A                                        _ECCP1AS 0295  
                                      _BAUDCON 019F                               ?_TMR4_Initialize 0070  
                                      ?_rephai 0070                                        _APFCON0 011D  
                                      _APFCON1 011E                                        ?_retrai 0070  
                       __end_of_di_thang_nhanh 04D2                                      ?_di_thang 0070  
                                      _OSCTUNE 0098                                        _PWM1CON 0294  
                     ??_EUSART_SetErrorHandler 0072                    __end_of_EPWM1_LoadDutyValue 054D  
                                    ?_dung_lai 0070                           _ADC_InterruptHandler 0038  
                                      ___awdiv 061D                                        __ptext1 0522  
                                      __ptext2 050E                                        __ptext3 0497  
                                      __ptext4 0484                                        __ptext5 04FA  
                                      __ptext6 0471                                        __ptext7 045E  
                                      __ptext8 05F8                                        __ptext9 0596  
                        _OSCILLATOR_Initialize 03EA                                      _T2CONbits 001C  
                              ?_di_thang_nhanh 0070                                      _T4CONbits 0417  
                                      _rephai2 0471                       ??_PIN_MANAGER_Initialize 0070  
                                   ??_di_thang 0074                                        _retrai2 0497  
                                      _retrai3 050E                           end_of_initialization 07FD  
                            __end_of_lui_nhanh 04FA                                     ??_dung_lai 0074  
        __end_of_EUSART_SetOverrunErrorHandler 03EA                  _EUSART_SetOverrunErrorHandler 03E4  
                            _EUSART_Initialize 05B5                             ?_EUSART_Initialize 0070  
                                    _RCSTAbits 019D                             _EUSART_is_rx_ready 03D3  
                             main@mappedValue2 0030                            ??_EUSART_Initialize 0072  
                             ??_WDT_Initialize 0070                                      _PORTBbits 000D  
                          ?_EUSART_is_rx_ready 0070                                      _PORTCbits 000E  
                    __end_of_EUSART_Initialize 05D6                           ??_EUSART_is_rx_ready 0070  
                                    _TXSTAbits 019E                     __end_of_PWM3_LoadDutyValue 0564  
                   _EUSART_DefaultErrorHandler 0000                                 __end_of___wmul 05B5  
                               _ADC_Initialize 03F1                         ?_OSCILLATOR_Initialize 0070  
                               __end_of_rephai 0471                                 __end_of_retrai 0497  
                          start_initialization 07EB                                    __end_of_map 061D  
                                  __end_of_lui 04E6                                  ??_EUSART_Read 0070  
                 EPWM1_LoadDutyValue@dutyValue 0070                 ?_EUSART_SetOverrunErrorHandler 0070  
                   _EUSART_FramingErrorHandler 003F                                       ??___wmul 0074  
                       _EUSART_SetErrorHandler 03D8                                    _CCPTMRSbits 029E  
                       __end_of_ADC_Initialize 03F9                                    __pdataBANK0 0041  
                                     ??_rephai 0074                                       ??_retrai 0074  
                                  __pbssCOMMON 007D                                      ___latbits 0002  
                                __pcstackBANK0 0020                            __end_of_EUSART_Read 043C  
                                    __pnvBANK0 003B                         _PIN_MANAGER_Initialize 057B  
                                     ?___awdiv 0076                                ?_ADC_Initialize 0070  
                             ??_di_thang_nhanh 0074                                       ?_rephai2 0070  
                                     ?_retrai2 0070                                       ?_retrai3 0070  
                                ??_rephainhanh 0074                              ??_TMR0_Initialize 0070  
                               ___wmul@product 0074         EUSART_SetErrorHandler@interruptHandler 0070  
                                     _LATCbits 010E                                      _lui_nhanh 04E6  
                            _eusartRxLastError 007D                                       _PIR1bits 0011  
              ??_EUSART_SetFramingErrorHandler 0072                                       _PIR3bits 0013  
                              main@mappedValue 002E              _EUSART_DefaultOverrunErrorHandler 0000  
                                     _PSTR1CON 0296                                  ??_retrainhanh 0074  
                            ??_PWM3_Initialize 0070                                     _ADCON0bits 009D  
                            ___wmul@multiplier 0070                                      map@outMax 002C  
                                    map@outMin 002A                               _EPWM1_Initialize 043C  
                                  _EUSART_Read 042D                              ??_TMR2_Initialize 0070  
                            ??_PWM4_Initialize 0070                            __end_of_rephainhanh 050E  
                                   ?_lui_nhanh 0070                     __end_of_PWM4_LoadDutyValue 057B  
                      ??_OSCILLATOR_Initialize 0070                            _EUSART_ErrorHandler 003B  
                           _PWM3_LoadDutyValue 054D                            __end_of_retrainhanh 0536  
                                     _di_thang 04AA                                       __ptext10 061D  
                                     __ptext11 04E6                                       __ptext20 0415  
                                     __ptext12 04D2                                       __ptext21 03F9  
                                     __ptext13 044C                                       __ptext30 03D8  
                                     __ptext22 041F                                       __ptext14 04BE  
                                     __ptext31 043C                                       __ptext23 040B  
                                     __ptext15 04AA                                       __ptext32 03F1  
                                     __ptext24 0401                                       __ptext16 0564  
                                     __ptext33 03D3                                       __ptext25 057B  
                                     __ptext17 054D                                       __ptext34 042D  
                                     __ptext26 03EA                                       __ptext18 05D6  
                                     __ptext35 0536                                       __ptext27 05B5  
                                     __ptext19 03CF                                       __ptext28 03E4  
                                     __ptext29 03DE                            ?_PWM3_LoadDutyValue 0070  
                                     _dung_lai 044C                              ??_TMR4_Initialize 0070  
                      ?_EUSART_SetErrorHandler 0070  EUSART_SetOverrunErrorHandler@interruptHandler 0070  
                         ??_PWM3_LoadDutyValue 0072                                       map@inMax 0028  
                                     map@value 0024          __end_of_EUSART_SetFramingErrorHandler 03E4  
                _EUSART_SetFramingErrorHandler 03DE                                     _INTCONbits 000B  
                                  _rephainhanh 04FA                        ?_PIN_MANAGER_Initialize 0070  
               __end_of_EUSART_SetErrorHandler 03DE                                    ??_lui_nhanh 0074  
                             ??_ADC_Initialize 0070  EUSART_SetFramingErrorHandler@interruptHandler 0070  
                  PWM3_LoadDutyValue@dutyValue 0070                                    _retrainhanh 0522  
                                   _OPTION_REG 0095                                _TMR0_Initialize 041F  
                          _EPWM1_LoadDutyValue 0536                 __end_of_PIN_MANAGER_Initialize 0596  
                              _PWM3_Initialize 0401                       __end_of_EPWM1_Initialize 044C  
                         ?_EPWM1_LoadDutyValue 0070  
