

Microchip MPLAB XC8 Assembler V2.36 build 20220127204148 
                                                                                               Fri May 06 00:55:11 2022

Microchip MPLAB XC8 C Compiler v2.36 (Free license) build 20220127204148 Og1 
     1                           	processor	16F1509
     2                           	pagewidth 120
     3                           	opt	flic
     4                           	psect	cinit,global,class=CODE,merge=1,delta=2
     5                           	psect	cstackCOMMON,global,class=COMMON,space=1,delta=1,noexec
     6                           	psect	cstackBANK0,global,class=BANK0,space=1,delta=1,noexec
     7                           	psect	maintext,global,class=CODE,merge=1,split=1,delta=2
     8                           	psect	text1,local,class=CODE,merge=1,delta=2
     9                           	psect	text2,local,class=CODE,merge=1,delta=2,group=1
    10                           	psect	text3,local,class=CODE,merge=1,delta=2
    11                           	psect	text4,local,class=CODE,merge=1,delta=2
    12                           	psect	text5,local,class=CODE,merge=1,delta=2
    13                           	psect	text6,local,class=CODE,merge=1,delta=2
    14                           	psect	text7,local,class=CODE,merge=1,delta=2
    15                           	psect	text8,local,class=CODE,merge=1,delta=2
    16                           	psect	text9,local,class=CODE,merge=1,delta=2
    17                           	psect	text10,local,class=CODE,merge=1,delta=2
    18                           	psect	text11,local,class=CODE,merge=1,delta=2,group=1
    19                           	psect	text12,local,class=CODE,merge=1,delta=2,group=1
    20                           	psect	text13,local,class=CODE,merge=1,delta=2,group=1
    21                           	psect	text14,local,class=CODE,merge=1,delta=2,group=1
    22                           	psect	text15,local,class=CODE,merge=1,delta=2,group=1
    23                           	psect	idloc,global,abs,ovrld,class=IDLOC,space=5,delta=2,noexec
    24                           	psect	config,global,abs,ovrld,class=CONFIG,space=4,delta=2,noexec
    25                           	dabs	1,0x7E,2
    26  0000                     
    27                           ; Version 2.40
    28                           ; Generated 17/11/2021 GMT
    29                           ; 
    30                           ; Copyright © 2021, Microchip Technology Inc. and its subsidiaries ("Microchip")
    31                           ; All rights reserved.
    32                           ; 
    33                           ; This software is developed by Microchip Technology Inc. and its subsidiaries ("Microch
      +                          ip").
    34                           ; 
    35                           ; Redistribution and use in source and binary forms, with or without modification, are
    36                           ; permitted provided that the following conditions are met:
    37                           ; 
    38                           ;     1. Redistributions of source code must retain the above copyright notice, this lis
      +                          t of
    39                           ;        conditions and the following disclaimer.
    40                           ; 
    41                           ;     2. Redistributions in binary form must reproduce the above copyright notice, this 
      +                          list
    42                           ;        of conditions and the following disclaimer in the documentation and/or other
    43                           ;        materials provided with the distribution. Publication is not required when
    44                           ;        this file is used in an embedded application.
    45                           ; 
    46                           ;     3. Microchip's name may not be used to endorse or promote products derived from th
      +                          is
    47                           ;        software without specific prior written permission.
    48                           ; 
    49                           ; THIS SOFTWARE IS PROVIDED BY MICROCHIP "AS IS" AND ANY EXPRESS OR IMPLIED WARRANTIES,
    50                           ; INCLUDING, BUT NOT LIMITED TO, THE IMPLIED WARRANTIES OF MERCHANTABILITY AND FITNESS F
      +                          OR
    51                           ; PURPOSE ARE DISCLAIMED.  IN NO EVENT SHALL MICROCHIP BE LIABLE FOR ANY DIRECT, INDIREC
      +                          T,
    52                           ; INCIDENTAL, SPECIAL, EXEMPLARY, OR CONSEQUENTIAL DAMAGES (INCLUDING BUT NOT LIMITED TO
    53                           ; PROCUREMENT OF SUBSTITUTE GOODS OR SERVICES; LOSS OF USE, DATA OR PROFITS; OR BUSINESS
    54                           ; INTERRUPTION) HOWSOEVER CAUSED AND ON ANY THEORY OF LIABILITY, WHETHER IN CONTRACT, ST
      +                          RICT
    55                           ; LIABILITY, OR TORT (INCLUDING NEGLIGENCE OR OTHERWISE) ARISING IN ANY WAY OUT OF THE U
      +                          SE OF
    56                           ; THIS SOFTWARE, EVEN IF ADVISED OF THE POSSIBILITY OF SUCH DAMAGE.
    57                           ; 
    58                           ; 
    59                           ; Code-generator required, PIC16F1509 Definitions
    60                           ; 
    61                           ; SFR Addresses
    62  0000                     	;# 
    63  0001                     	;# 
    64  0002                     	;# 
    65  0003                     	;# 
    66  0004                     	;# 
    67  0005                     	;# 
    68  0006                     	;# 
    69  0007                     	;# 
    70  0008                     	;# 
    71  0009                     	;# 
    72  000A                     	;# 
    73  000B                     	;# 
    74  000C                     	;# 
    75  000D                     	;# 
    76  000E                     	;# 
    77  0011                     	;# 
    78  0012                     	;# 
    79  0013                     	;# 
    80  0015                     	;# 
    81  0016                     	;# 
    82  0016                     	;# 
    83  0017                     	;# 
    84  0018                     	;# 
    85  0019                     	;# 
    86  001A                     	;# 
    87  001B                     	;# 
    88  001C                     	;# 
    89  008C                     	;# 
    90  008D                     	;# 
    91  008E                     	;# 
    92  0091                     	;# 
    93  0092                     	;# 
    94  0093                     	;# 
    95  0095                     	;# 
    96  0096                     	;# 
    97  0097                     	;# 
    98  0099                     	;# 
    99  009A                     	;# 
   100  009B                     	;# 
   101  009B                     	;# 
   102  009C                     	;# 
   103  009D                     	;# 
   104  009E                     	;# 
   105  009F                     	;# 
   106  010C                     	;# 
   107  010D                     	;# 
   108  010E                     	;# 
   109  0111                     	;# 
   110  0112                     	;# 
   111  0113                     	;# 
   112  0114                     	;# 
   113  0115                     	;# 
   114  0116                     	;# 
   115  0117                     	;# 
   116  0118                     	;# 
   117  0119                     	;# 
   118  011D                     	;# 
   119  018C                     	;# 
   120  018D                     	;# 
   121  018E                     	;# 
   122  0191                     	;# 
   123  0191                     	;# 
   124  0192                     	;# 
   125  0193                     	;# 
   126  0193                     	;# 
   127  0194                     	;# 
   128  0195                     	;# 
   129  0196                     	;# 
   130  0197                     	;# 
   131  0199                     	;# 
   132  019A                     	;# 
   133  019B                     	;# 
   134  019B                     	;# 
   135  019C                     	;# 
   136  019D                     	;# 
   137  019E                     	;# 
   138  019F                     	;# 
   139  020C                     	;# 
   140  020D                     	;# 
   141  0211                     	;# 
   142  0211                     	;# 
   143  0212                     	;# 
   144  0212                     	;# 
   145  0213                     	;# 
   146  0213                     	;# 
   147  0214                     	;# 
   148  0214                     	;# 
   149  0215                     	;# 
   150  0215                     	;# 
   151  0215                     	;# 
   152  0216                     	;# 
   153  0216                     	;# 
   154  0217                     	;# 
   155  0217                     	;# 
   156  0391                     	;# 
   157  0392                     	;# 
   158  0393                     	;# 
   159  0394                     	;# 
   160  0395                     	;# 
   161  0396                     	;# 
   162  0498                     	;# 
   163  0498                     	;# 
   164  0499                     	;# 
   165  049A                     	;# 
   166  049B                     	;# 
   167  049B                     	;# 
   168  049C                     	;# 
   169  049D                     	;# 
   170  049E                     	;# 
   171  049F                     	;# 
   172  0611                     	;# 
   173  0612                     	;# 
   174  0613                     	;# 
   175  0613                     	;# 
   176  0614                     	;# 
   177  0615                     	;# 
   178  0616                     	;# 
   179  0616                     	;# 
   180  0617                     	;# 
   181  0618                     	;# 
   182  0619                     	;# 
   183  0619                     	;# 
   184  061A                     	;# 
   185  061B                     	;# 
   186  061C                     	;# 
   187  061C                     	;# 
   188  0691                     	;# 
   189  0692                     	;# 
   190  0693                     	;# 
   191  0694                     	;# 
   192  0695                     	;# 
   193  0F0F                     	;# 
   194  0F10                     	;# 
   195  0F11                     	;# 
   196  0F12                     	;# 
   197  0F13                     	;# 
   198  0F14                     	;# 
   199  0F15                     	;# 
   200  0F16                     	;# 
   201  0F17                     	;# 
   202  0F18                     	;# 
   203  0F19                     	;# 
   204  0F1A                     	;# 
   205  0F1B                     	;# 
   206  0F1C                     	;# 
   207  0F1D                     	;# 
   208  0F1E                     	;# 
   209  0F1F                     	;# 
   210  0F20                     	;# 
   211  0F21                     	;# 
   212  0F22                     	;# 
   213  0F23                     	;# 
   214  0F24                     	;# 
   215  0F25                     	;# 
   216  0F26                     	;# 
   217  0F27                     	;# 
   218  0F28                     	;# 
   219  0F29                     	;# 
   220  0F2A                     	;# 
   221  0F2B                     	;# 
   222  0F2C                     	;# 
   223  0F2D                     	;# 
   224  0F2E                     	;# 
   225  0F2F                     	;# 
   226  0F8C                     	;# 
   227  0F8D                     	;# 
   228  0F91                     	;# 
   229  0F95                     	;# 
   230  0F96                     	;# 
   231  0F97                     	;# 
   232  0F9C                     	;# 
   233  0F9D                     	;# 
   234  0F9E                     	;# 
   235  0FE3                     	;# 
   236  0FE4                     	;# 
   237  0FE5                     	;# 
   238  0FE6                     	;# 
   239  0FE7                     	;# 
   240  0FE8                     	;# 
   241  0FE9                     	;# 
   242  0FEA                     	;# 
   243  0FEB                     	;# 
   244  0FED                     	;# 
   245  0FEE                     	;# 
   246  0FEF                     	;# 
   247  000C                     _PORTAbits	set	12
   248  009B                     _ADRESL	set	155
   249  009C                     _ADRESH	set	156
   250  009D                     _ADCON0bits	set	157
   251  009D                     _ADCON0	set	157
   252  009F                     _ADCON2	set	159
   253  009E                     _ADCON1	set	158
   254  0095                     _OPTION_REGbits	set	149
   255  008C                     _TRISAbits	set	140
   256  008E                     _TRISCbits	set	142
   257  010E                     _LATCbits	set	270
   258  018E                     _ANSELC	set	398
   259  018C                     _ANSELAbits	set	396
   260                           
   261                           	psect	cinit
   262  07FD                     start_initialization:	
   263                           ; #config settings
   264                           
   265  07FD                     __initialization:
   266  07FD                     end_of_initialization:	
   267                           ;End of C runtime variable initialization code
   268                           
   269  07FD                     __end_of__initialization:
   270  07FD  0020               	movlb	0
   271  07FE  3185  2DD7         	ljmp	_main	;jump to C main() function
   272                           
   273                           	psect	cstackCOMMON
   274  0070                     __pcstackCOMMON:
   275  0070                     ?_clk_pulse:
   276  0070                     ?_latch_pulse:	
   277                           ; 1 bytes @ 0x0
   278                           
   279  0070                     ?_main:	
   280                           ; 1 bytes @ 0x0
   281                           
   282  0070                     ?___lwdiv:	
   283                           ; 1 bytes @ 0x0
   284                           
   285  0070                     ?___xxtofl:	
   286                           ; 2 bytes @ 0x0
   287                           
   288  0070                     clk_pulse@n:	
   289                           ; 4 bytes @ 0x0
   290                           
   291  0070                     latch_pulse@n:	
   292                           ; 2 bytes @ 0x0
   293                           
   294  0070                     ___lwdiv@divisor:	
   295                           ; 2 bytes @ 0x0
   296                           
   297  0070                     ___xxtofl@val:	
   298                           ; 2 bytes @ 0x0
   299                           
   300                           
   301                           ; 4 bytes @ 0x0
   302  0070                     	ds	2
   303  0072                     ??_clk_pulse:
   304  0072                     ??_latch_pulse:	
   305                           ; 1 bytes @ 0x2
   306                           
   307  0072                     clk_pulse@i:	
   308                           ; 1 bytes @ 0x2
   309                           
   310  0072                     latch_pulse@i:	
   311                           ; 2 bytes @ 0x2
   312                           
   313  0072                     ___lwdiv@dividend:	
   314                           ; 2 bytes @ 0x2
   315                           
   316                           
   317                           ; 2 bytes @ 0x2
   318  0072                     	ds	2
   319  0074                     ?_Data_pulse_with_1:
   320  0074                     ?_Data_pulse_with_0:	
   321                           ; 1 bytes @ 0x4
   322                           
   323  0074                     ??___lwdiv:	
   324                           ; 1 bytes @ 0x4
   325                           
   326  0074                     ??___xxtofl:	
   327                           ; 1 bytes @ 0x4
   328                           
   329  0074                     Data_pulse_with_1@n:	
   330                           ; 1 bytes @ 0x4
   331                           
   332  0074                     Data_pulse_with_0@n:	
   333                           ; 2 bytes @ 0x4
   334                           
   335                           
   336                           ; 2 bytes @ 0x4
   337  0074                     	ds	1
   338  0075                     ___lwdiv@quotient:
   339                           
   340                           ; 2 bytes @ 0x5
   341  0075                     	ds	1
   342  0076                     ??_Data_pulse_with_1:
   343  0076                     ??_Data_pulse_with_0:	
   344                           ; 1 bytes @ 0x6
   345                           
   346  0076                     ?_display_7segment:	
   347                           ; 1 bytes @ 0x6
   348                           
   349  0076                     display_7segment@n:	
   350                           ; 1 bytes @ 0x6
   351                           
   352                           
   353                           ; 2 bytes @ 0x6
   354  0076                     	ds	1
   355  0077                     ___lwdiv@counter:
   356                           
   357                           ; 1 bytes @ 0x7
   358  0077                     	ds	1
   359  0078                     ??_display_7segment:
   360  0078                     ?___lwmod:	
   361                           ; 1 bytes @ 0x8
   362                           
   363  0078                     ___xxtofl@sign:	
   364                           ; 2 bytes @ 0x8
   365                           
   366  0078                     ___lwmod@divisor:	
   367                           ; 1 bytes @ 0x8
   368                           
   369                           
   370                           ; 2 bytes @ 0x8
   371  0078                     	ds	1
   372  0079                     ___xxtofl@exp:
   373                           
   374                           ; 1 bytes @ 0x9
   375  0079                     	ds	1
   376  007A                     ___lwmod@dividend:
   377  007A                     ___xxtofl@arg:	
   378                           ; 2 bytes @ 0xA
   379                           
   380                           
   381                           ; 4 bytes @ 0xA
   382  007A                     	ds	2
   383  007C                     ??___lwmod:
   384                           
   385                           ; 1 bytes @ 0xC
   386  007C                     	ds	1
   387  007D                     ___lwmod@counter:
   388                           
   389                           ; 1 bytes @ 0xD
   390  007D                     	ds	1
   391  007E                     ??_enter_number_added:
   392  007E                     ??_enter_total_number:	
   393                           ; 1 bytes @ 0xE
   394                           
   395  007E                     ??_enter_digit_total:	
   396                           ; 1 bytes @ 0xE
   397                           
   398                           
   399                           	psect	cstackBANK0
   400  0020                     __pcstackBANK0:	
   401                           ; 1 bytes @ 0xE
   402                           
   403  0020                     ?___fldiv:
   404  0020                     ___fldiv@a:	
   405                           ; 4 bytes @ 0x0
   406                           
   407                           
   408                           ; 4 bytes @ 0x0
   409  0020                     	ds	4
   410  0024                     ___fldiv@b:
   411                           
   412                           ; 4 bytes @ 0x4
   413  0024                     	ds	4
   414  0028                     ??___fldiv:
   415                           
   416                           ; 1 bytes @ 0x8
   417  0028                     	ds	5
   418  002D                     ___fldiv@rem:
   419                           
   420                           ; 4 bytes @ 0xD
   421  002D                     	ds	4
   422  0031                     ___fldiv@sign:
   423                           
   424                           ; 1 bytes @ 0x11
   425  0031                     	ds	1
   426  0032                     ___fldiv@new_exp:
   427                           
   428                           ; 2 bytes @ 0x12
   429  0032                     	ds	2
   430  0034                     ___fldiv@grs:
   431                           
   432                           ; 4 bytes @ 0x14
   433  0034                     	ds	4
   434  0038                     ___fldiv@bexp:
   435                           
   436                           ; 1 bytes @ 0x18
   437  0038                     	ds	1
   438  0039                     ___fldiv@aexp:
   439                           
   440                           ; 1 bytes @ 0x19
   441  0039                     	ds	1
   442  003A                     ?___fltol:
   443  003A                     ___fltol@f1:	
   444                           ; 4 bytes @ 0x1A
   445                           
   446                           
   447                           ; 4 bytes @ 0x1A
   448  003A                     	ds	4
   449  003E                     ??___fltol:
   450                           
   451                           ; 1 bytes @ 0x1E
   452  003E                     	ds	5
   453  0043                     ___fltol@sign1:
   454                           
   455                           ; 1 bytes @ 0x23
   456  0043                     	ds	1
   457  0044                     ___fltol@exp1:
   458                           
   459                           ; 1 bytes @ 0x24
   460  0044                     	ds	1
   461  0045                     ?___awmod:
   462  0045                     ___awmod@divisor:	
   463                           ; 2 bytes @ 0x25
   464                           
   465                           
   466                           ; 2 bytes @ 0x25
   467  0045                     	ds	2
   468  0047                     ___awmod@dividend:
   469                           
   470                           ; 2 bytes @ 0x27
   471  0047                     	ds	2
   472  0049                     ??___awmod:
   473                           
   474                           ; 1 bytes @ 0x29
   475  0049                     	ds	1
   476  004A                     ___awmod@counter:
   477                           
   478                           ; 1 bytes @ 0x2A
   479  004A                     	ds	1
   480  004B                     ___awmod@sign:
   481                           
   482                           ; 1 bytes @ 0x2B
   483  004B                     	ds	1
   484  004C                     ?_enter_number_added:
   485  004C                     ?_enter_number_finish:	
   486                           ; 1 bytes @ 0x2C
   487                           
   488  004C                     enter_number_added@n:	
   489                           ; 1 bytes @ 0x2C
   490                           
   491  004C                     enter_number_finish@n:	
   492                           ; 2 bytes @ 0x2C
   493                           
   494                           
   495                           ; 2 bytes @ 0x2C
   496  004C                     	ds	2
   497  004E                     ??_enter_number_finish:
   498                           
   499                           ; 1 bytes @ 0x2E
   500  004E                     	ds	1
   501  004F                     ?_enter_total_number:
   502  004F                     ?_enter_digit_total:	
   503                           ; 1 bytes @ 0x2F
   504                           
   505  004F                     enter_total_number@n:	
   506                           ; 1 bytes @ 0x2F
   507                           
   508  004F                     enter_digit_total@seconds:	
   509                           ; 2 bytes @ 0x2F
   510                           
   511                           
   512                           ; 2 bytes @ 0x2F
   513  004F                     	ds	2
   514  0051                     enter_total_number@a:
   515  0051                     enter_digit_total@minutes:	
   516                           ; 2 bytes @ 0x31
   517                           
   518                           
   519                           ; 2 bytes @ 0x31
   520  0051                     	ds	2
   521  0053                     enter_total_number@b:
   522                           
   523                           ; 2 bytes @ 0x33
   524  0053                     	ds	2
   525  0055                     enter_total_number@c:
   526                           
   527                           ; 2 bytes @ 0x35
   528  0055                     	ds	2
   529  0057                     enter_total_number@d:
   530                           
   531                           ; 2 bytes @ 0x37
   532  0057                     	ds	2
   533  0059                     _enter_total_number$727:
   534                           
   535                           ; 2 bytes @ 0x39
   536  0059                     	ds	2
   537  005B                     ??_main:
   538                           
   539                           ; 1 bytes @ 0x3B
   540  005B                     	ds	6
   541  0061                     main@ADC0_result_var:
   542                           
   543                           ; 2 bytes @ 0x41
   544  0061                     	ds	2
   545  0063                     main@seconds:
   546                           
   547                           ; 2 bytes @ 0x43
   548  0063                     	ds	2
   549  0065                     main@minutes:
   550                           
   551                           ; 2 bytes @ 0x45
   552  0065                     	ds	2
   553  0067                     main@h:
   554                           
   555                           ; 1 bytes @ 0x47
   556  0067                     	ds	1
   557  0068                     main@m:
   558                           
   559                           ; 1 bytes @ 0x48
   560  0068                     	ds	1
   561  0069                     main@S1_state:
   562                           
   563                           ; 1 bytes @ 0x49
   564  0069                     	ds	1
   565                           
   566                           	psect	maintext
   567  05D7                     __pmaintext:	
   568 ;;
   569 ;;Main: autosize = 0, tempsize = 6, incstack = 0, save=0
   570 ;;
   571 ;; *************** function _main *****************
   572 ;; Defined at:
   573 ;;		line 115 in file "Assignment 71.c"
   574 ;; Parameters:    Size  Location     Type
   575 ;;		None
   576 ;; Auto vars:     Size  Location     Type
   577 ;;  minutes         2   69[BANK0 ] unsigned int 
   578 ;;  seconds         2   67[BANK0 ] unsigned int 
   579 ;;  ADC0_result_    2   65[BANK0 ] unsigned int 
   580 ;;  S1_state        1   73[BANK0 ] unsigned char 
   581 ;;  m               1   72[BANK0 ] unsigned char 
   582 ;;  h               1   71[BANK0 ] unsigned char 
   583 ;; Return value:  Size  Location     Type
   584 ;;                  1    wreg      void 
   585 ;; Registers used:
   586 ;;		wreg, status,2, status,0, pclath, cstack
   587 ;; Tracked objects:
   588 ;;		On entry : B1F/0
   589 ;;		On exit  : 0/0
   590 ;;		Unchanged: 0/0
   591 ;; Data sizes:     COMMON   BANK0   BANK1   BANK2   BANK3   BANK4   BANK5   BANK6
   592 ;;      Params:         0       0       0       0       0       0       0       0
   593 ;;      Locals:         0       9       0       0       0       0       0       0
   594 ;;      Temps:          0       6       0       0       0       0       0       0
   595 ;;      Totals:         0      15       0       0       0       0       0       0
   596 ;;Total ram usage:       15 bytes
   597 ;; Hardware stack levels required when called: 5
   598 ;; This function calls:
   599 ;;		___awmod
   600 ;;		___fldiv
   601 ;;		___fltol
   602 ;;		___xxtofl
   603 ;;		_enter_digit_total
   604 ;;		_enter_total_number
   605 ;; This function is called by:
   606 ;;		Startup code after reset
   607 ;; This function uses a non-reentrant model
   608 ;;
   609                           
   610  05D7                     _main:	
   611                           ;psect for function _main
   612                           
   613  05D7                     l1524:	
   614                           ;incstack = 0
   615                           ; Regs used in _main: [wreg+status,2+status,0+pclath+cstack]
   616                           
   617                           
   618                           ;Assignment 71.c: 116:     TRISCbits.TRISC0 = 0;
   619  05D7  0021               	movlb	1	; select bank1
   620  05D8  100E               	bcf	14,0	;volatile
   621                           
   622                           ;Assignment 71.c: 117:     TRISCbits.TRISC1 = 0;
   623  05D9  108E               	bcf	14,1	;volatile
   624                           
   625                           ;Assignment 71.c: 118:     TRISCbits.TRISC2 = 0;
   626  05DA  110E               	bcf	14,2	;volatile
   627                           
   628                           ;Assignment 71.c: 120:     TRISAbits.TRISA1 = 1;
   629  05DB  148C               	bsf	12,1	;volatile
   630                           
   631                           ;Assignment 71.c: 121:     TRISAbits.TRISA2 = 1;
   632  05DC  150C               	bsf	12,2	;volatile
   633                           
   634                           ;Assignment 71.c: 123:     LATCbits.LATC0 = 0;
   635  05DD  0022               	movlb	2	; select bank2
   636  05DE  100E               	bcf	14,0	;volatile
   637                           
   638                           ;Assignment 71.c: 124:     LATCbits.LATC1 = 0;
   639  05DF  108E               	bcf	14,1	;volatile
   640                           
   641                           ;Assignment 71.c: 125:     LATCbits.LATC2 = 0;
   642  05E0  110E               	bcf	14,2	;volatile
   643                           
   644                           ;Assignment 71.c: 127:     ANSELAbits.ANSA1 = 0;
   645  05E1  0023               	movlb	3	; select bank3
   646  05E2  108C               	bcf	12,1	;volatile
   647                           
   648                           ;Assignment 71.c: 128:     ANSELAbits.ANSA2 = 0;
   649  05E3  110C               	bcf	12,2	;volatile
   650  05E4                     l1526:
   651                           
   652                           ;Assignment 71.c: 129:     ANSELC = 0;
   653  05E4  018E               	clrf	14	;volatile
   654  05E5                     l1528:
   655                           
   656                           ;Assignment 71.c: 132:     TRISAbits.TRISA0 = 1;
   657  05E5  0021               	movlb	1	; select bank1
   658  05E6  140C               	bsf	12,0	;volatile
   659  05E7                     l1530:
   660                           
   661                           ;Assignment 71.c: 133:     ANSELAbits.ANSA0 = 1;
   662  05E7  0023               	movlb	3	; select bank3
   663  05E8  140C               	bsf	12,0	;volatile
   664  05E9                     l1532:
   665                           
   666                           ;Assignment 71.c: 134:     OPTION_REGbits.nWPUEN = 1;
   667  05E9  0021               	movlb	1	; select bank1
   668  05EA  1795               	bsf	21,7	;volatile
   669  05EB                     l1534:
   670                           
   671                           ;Assignment 71.c: 135:     ADCON1 = 0b11010000;
   672  05EB  30D0               	movlw	208
   673  05EC  009E               	movwf	30	;volatile
   674  05ED                     l1536:
   675                           
   676                           ;Assignment 71.c: 137:     ADCON2 = 0b00000000;
   677  05ED  019F               	clrf	31	;volatile
   678                           
   679                           ;Assignment 71.c: 138:     ADCON0 = 0b00000001;
   680  05EE  3001               	movlw	1
   681  05EF  009D               	movwf	29	;volatile
   682  05F0                     l1538:
   683                           
   684                           ;Assignment 71.c: 139:     ADCON0bits.ADON = 1;
   685  05F0  141D               	bsf	29,0	;volatile
   686                           
   687                           ;Assignment 71.c: 140:     _delay((unsigned long)((1)*(1000000/4000.0)));
   688  05F1  3053               	movlw	83
   689  05F2                     u2377:
   690  05F2  0B89               	decfsz	9,f
   691  05F3  2DF2               	goto	u2377
   692  05F4  0000               	nop
   693  05F5                     l1540:
   694                           
   695                           ;Assignment 71.c: 143:     unsigned char S1_state = 0;
   696  05F5  0020               	movlb	0	; select bank0
   697  05F6  01E9               	clrf	main@S1_state
   698  05F7                     l1542:
   699                           
   700                           ;Assignment 71.c: 144:     unsigned char h ;;Assignment 71.c: 145:     unsigned char m ;
      +                          ;Assignment 71.c: 146:     unsigned int minutes = 0;
   701  05F7  01E5               	clrf	main@minutes
   702  05F8  01E6               	clrf	main@minutes+1
   703  05F9                     l1544:
   704                           
   705                           ;Assignment 71.c: 147:     unsigned int seconds = 0;
   706  05F9  01E3               	clrf	main@seconds
   707  05FA  01E4               	clrf	main@seconds+1
   708  05FB                     l1546:
   709                           
   710                           ;Assignment 71.c: 149:         ADCON0bits. GO_nDONE = 1;
   711  05FB  0021               	movlb	1	; select bank1
   712  05FC  149D               	bsf	29,1	;volatile
   713  05FD                     l86:	
   714                           ;Assignment 71.c: 150:         while(ADCON0bits. GO_nDONE == 1) ;
   715                           
   716  05FD  189D               	btfsc	29,1	;volatile
   717  05FE  2E00               	goto	u2061
   718  05FF  2E01               	goto	u2060
   719  0600                     u2061:
   720  0600  2DFD               	goto	l86
   721  0601                     u2060:
   722  0601                     l1548:
   723                           
   724                           ;Assignment 71.c: 151:         ADC0_result_var = ADRESH;
   725  0601  081C               	movf	28,w	;volatile
   726  0602  0020               	movlb	0	; select bank0
   727  0603  00DB               	movwf	??_main
   728  0604  01DC               	clrf	??_main+1
   729  0605  085B               	movf	??_main,w
   730  0606  00E1               	movwf	main@ADC0_result_var
   731  0607  085C               	movf	??_main+1,w
   732  0608  00E2               	movwf	main@ADC0_result_var+1
   733                           
   734                           ;Assignment 71.c: 152:         ADC0_result_var = (ADC0_result_var<<8) | ADRESL ;
   735  0609  0021               	movlb	1	; select bank1
   736  060A  081B               	movf	27,w	;volatile
   737  060B  0020               	movlb	0	; select bank0
   738  060C  00DB               	movwf	??_main
   739  060D  01DC               	clrf	??_main+1
   740  060E  0861               	movf	main@ADC0_result_var,w
   741  060F  00DE               	movwf	??_main+3
   742  0610  01DD               	clrf	??_main+2
   743  0611  085B               	movf	??_main,w
   744  0612  045D               	iorwf	??_main+2,w
   745  0613  00DF               	movwf	??_main+4
   746  0614  085C               	movf	??_main+1,w
   747  0615  045E               	iorwf	??_main+3,w
   748  0616  00E0               	movwf	??_main+5
   749  0617  085F               	movf	??_main+4,w
   750  0618  00E1               	movwf	main@ADC0_result_var
   751  0619  0860               	movf	??_main+5,w
   752  061A  00E2               	movwf	main@ADC0_result_var+1
   753  061B                     l1550:
   754                           
   755                           ;Assignment 71.c: 154:         if ((PORTAbits.RA1 == 0) && (S1_state == 0)) S1_state = 1
      +                          ;
   756  061B  188C               	btfsc	12,1	;volatile
   757  061C  2E1E               	goto	u2071
   758  061D  2E1F               	goto	u2070
   759  061E                     u2071:
   760  061E  2E26               	goto	l89
   761  061F                     u2070:
   762  061F                     l1552:
   763  061F  0869               	movf	main@S1_state,w
   764  0620  1D03               	btfss	3,2
   765  0621  2E23               	goto	u2081
   766  0622  2E24               	goto	u2080
   767  0623                     u2081:
   768  0623  2E26               	goto	l89
   769  0624                     u2080:
   770  0624                     l1554:
   771  0624  01E9               	clrf	main@S1_state
   772  0625  0AE9               	incf	main@S1_state,f
   773  0626                     l89:
   774                           
   775                           ;Assignment 71.c: 155:         if ((PORTAbits.RA1 == 1) && (S1_state == 1)) S1_state = 2
      +                          ;
   776  0626  1C8C               	btfss	12,1	;volatile
   777  0627  2E29               	goto	u2091
   778  0628  2E2A               	goto	u2090
   779  0629                     u2091:
   780  0629  2E33               	goto	l1560
   781  062A                     u2090:
   782  062A                     l1556:
   783  062A  0369               	decf	main@S1_state,w
   784  062B  1D03               	btfss	3,2
   785  062C  2E2E               	goto	u2101
   786  062D  2E2F               	goto	u2100
   787  062E                     u2101:
   788  062E  2E33               	goto	l1560
   789  062F                     u2100:
   790  062F                     l1558:
   791  062F  3002               	movlw	2
   792  0630  00DB               	movwf	??_main
   793  0631  085B               	movf	??_main,w
   794  0632  00E9               	movwf	main@S1_state
   795  0633                     l1560:
   796                           
   797                           ;Assignment 71.c: 156:         if ((PORTAbits.RA1 == 0) && (S1_state == 2)) S1_state = 3
      +                          ;
   798  0633  188C               	btfsc	12,1	;volatile
   799  0634  2E36               	goto	u2111
   800  0635  2E37               	goto	u2110
   801  0636                     u2111:
   802  0636  2E41               	goto	l1566
   803  0637                     u2110:
   804  0637                     l1562:
   805  0637  3002               	movlw	2
   806  0638  0669               	xorwf	main@S1_state,w
   807  0639  1D03               	btfss	3,2
   808  063A  2E3C               	goto	u2121
   809  063B  2E3D               	goto	u2120
   810  063C                     u2121:
   811  063C  2E41               	goto	l1566
   812  063D                     u2120:
   813  063D                     l1564:
   814  063D  3003               	movlw	3
   815  063E  00DB               	movwf	??_main
   816  063F  085B               	movf	??_main,w
   817  0640  00E9               	movwf	main@S1_state
   818  0641                     l1566:
   819                           
   820                           ;Assignment 71.c: 157:         if ((PORTAbits.RA1 == 1) && (S1_state == 3)) S1_state = 4
      +                          ;
   821  0641  1C8C               	btfss	12,1	;volatile
   822  0642  2E44               	goto	u2131
   823  0643  2E45               	goto	u2130
   824  0644                     u2131:
   825  0644  2E4F               	goto	l1572
   826  0645                     u2130:
   827  0645                     l1568:
   828  0645  3003               	movlw	3
   829  0646  0669               	xorwf	main@S1_state,w
   830  0647  1D03               	btfss	3,2
   831  0648  2E4A               	goto	u2141
   832  0649  2E4B               	goto	u2140
   833  064A                     u2141:
   834  064A  2E4F               	goto	l1572
   835  064B                     u2140:
   836  064B                     l1570:
   837  064B  3004               	movlw	4
   838  064C  00DB               	movwf	??_main
   839  064D  085B               	movf	??_main,w
   840  064E  00E9               	movwf	main@S1_state
   841  064F                     l1572:
   842                           
   843                           ;Assignment 71.c: 158:         if ((PORTAbits.RA1 == 0) && (S1_state == 4)) S1_state = 5
      +                          ;
   844  064F  188C               	btfsc	12,1	;volatile
   845  0650  2E52               	goto	u2151
   846  0651  2E53               	goto	u2150
   847  0652                     u2151:
   848  0652  2E5D               	goto	l1578
   849  0653                     u2150:
   850  0653                     l1574:
   851  0653  3004               	movlw	4
   852  0654  0669               	xorwf	main@S1_state,w
   853  0655  1D03               	btfss	3,2
   854  0656  2E58               	goto	u2161
   855  0657  2E59               	goto	u2160
   856  0658                     u2161:
   857  0658  2E5D               	goto	l1578
   858  0659                     u2160:
   859  0659                     l1576:
   860  0659  3005               	movlw	5
   861  065A  00DB               	movwf	??_main
   862  065B  085B               	movf	??_main,w
   863  065C  00E9               	movwf	main@S1_state
   864  065D                     l1578:
   865                           
   866                           ;Assignment 71.c: 159:         if ((PORTAbits.RA1 == 1) && (S1_state == 5)) S1_state = 6
      +                          ;
   867  065D  1C8C               	btfss	12,1	;volatile
   868  065E  2E60               	goto	u2171
   869  065F  2E61               	goto	u2170
   870  0660                     u2171:
   871  0660  2E6B               	goto	l1584
   872  0661                     u2170:
   873  0661                     l1580:
   874  0661  3005               	movlw	5
   875  0662  0669               	xorwf	main@S1_state,w
   876  0663  1D03               	btfss	3,2
   877  0664  2E66               	goto	u2181
   878  0665  2E67               	goto	u2180
   879  0666                     u2181:
   880  0666  2E6B               	goto	l1584
   881  0667                     u2180:
   882  0667                     l1582:
   883  0667  3006               	movlw	6
   884  0668  00DB               	movwf	??_main
   885  0669  085B               	movf	??_main,w
   886  066A  00E9               	movwf	main@S1_state
   887  066B                     l1584:
   888                           
   889                           ;Assignment 71.c: 160:         if ((PORTAbits.RA1 == 0) && (S1_state == 6)) S1_state = 7
      +                          ;
   890  066B  188C               	btfsc	12,1	;volatile
   891  066C  2E6E               	goto	u2191
   892  066D  2E6F               	goto	u2190
   893  066E                     u2191:
   894  066E  2E79               	goto	l1590
   895  066F                     u2190:
   896  066F                     l1586:
   897  066F  3006               	movlw	6
   898  0670  0669               	xorwf	main@S1_state,w
   899  0671  1D03               	btfss	3,2
   900  0672  2E74               	goto	u2201
   901  0673  2E75               	goto	u2200
   902  0674                     u2201:
   903  0674  2E79               	goto	l1590
   904  0675                     u2200:
   905  0675                     l1588:
   906  0675  3007               	movlw	7
   907  0676  00DB               	movwf	??_main
   908  0677  085B               	movf	??_main,w
   909  0678  00E9               	movwf	main@S1_state
   910  0679                     l1590:
   911                           
   912                           ;Assignment 71.c: 161:         if ((PORTAbits.RA1 == 1) && (S1_state == 7)) S1_state = 8
      +                          ;
   913  0679  1C8C               	btfss	12,1	;volatile
   914  067A  2E7C               	goto	u2211
   915  067B  2E7D               	goto	u2210
   916  067C                     u2211:
   917  067C  2E87               	goto	l1596
   918  067D                     u2210:
   919  067D                     l1592:
   920  067D  3007               	movlw	7
   921  067E  0669               	xorwf	main@S1_state,w
   922  067F  1D03               	btfss	3,2
   923  0680  2E82               	goto	u2221
   924  0681  2E83               	goto	u2220
   925  0682                     u2221:
   926  0682  2E87               	goto	l1596
   927  0683                     u2220:
   928  0683                     l1594:
   929  0683  3008               	movlw	8
   930  0684  00DB               	movwf	??_main
   931  0685  085B               	movf	??_main,w
   932  0686  00E9               	movwf	main@S1_state
   933  0687                     l1596:
   934                           
   935                           ;Assignment 71.c: 162:         if ((PORTAbits.RA1 == 0) && (S1_state == 8)) S1_state = 2
      +                          ;
   936  0687  188C               	btfsc	12,1	;volatile
   937  0688  2E8A               	goto	u2231
   938  0689  2E8B               	goto	u2230
   939  068A                     u2231:
   940  068A  2E95               	goto	l1602
   941  068B                     u2230:
   942  068B                     l1598:
   943  068B  3008               	movlw	8
   944  068C  0669               	xorwf	main@S1_state,w
   945  068D  1D03               	btfss	3,2
   946  068E  2E90               	goto	u2241
   947  068F  2E91               	goto	u2240
   948  0690                     u2241:
   949  0690  2E95               	goto	l1602
   950  0691                     u2240:
   951  0691                     l1600:
   952  0691  3002               	movlw	2
   953  0692  00DB               	movwf	??_main
   954  0693  085B               	movf	??_main,w
   955  0694  00E9               	movwf	main@S1_state
   956  0695                     l1602:
   957                           
   958                           ;Assignment 71.c: 164:         if (S1_state == 1){
   959  0695  0369               	decf	main@S1_state,w
   960  0696  1D03               	btfss	3,2
   961  0697  2E99               	goto	u2251
   962  0698  2E9A               	goto	u2250
   963  0699                     u2251:
   964  0699  2EE7               	goto	l1624
   965  069A                     u2250:
   966  069A                     l1604:
   967                           
   968                           ;Assignment 71.c: 165:             seconds = seconds + 1;
   969  069A  0863               	movf	main@seconds,w
   970  069B  3E01               	addlw	1
   971  069C  00E3               	movwf	main@seconds
   972  069D  3000               	movlw	0
   973  069E  3D64               	addwfc	main@seconds+1,w
   974  069F  00E4               	movwf	main@seconds+1
   975  06A0                     l1606:
   976                           
   977                           ;Assignment 71.c: 166:             enter_digit_total(seconds,minutes);
   978  06A0  0864               	movf	main@seconds+1,w
   979  06A1  00D0               	movwf	enter_digit_total@seconds+1
   980  06A2  0863               	movf	main@seconds,w
   981  06A3  00CF               	movwf	enter_digit_total@seconds
   982  06A4  0866               	movf	main@minutes+1,w
   983  06A5  00D2               	movwf	enter_digit_total@minutes+1
   984  06A6  0865               	movf	main@minutes,w
   985  06A7  00D1               	movwf	enter_digit_total@minutes
   986  06A8  3180  207E  3185   	fcall	_enter_digit_total
   987  06AB                     l1608:
   988                           
   989                           ;Assignment 71.c: 167:             if (seconds > 58){
   990  06AB  3000               	movlw	0
   991  06AC  0020               	movlb	0	; select bank0
   992  06AD  0264               	subwf	main@seconds+1,w
   993  06AE  303B               	movlw	59
   994  06AF  1903               	skipnz
   995  06B0  0263               	subwf	main@seconds,w
   996  06B1  1C03               	skipc
   997  06B2  2EB4               	goto	u2261
   998  06B3  2EB5               	goto	u2260
   999  06B4                     u2261:
  1000  06B4  2EE7               	goto	l1624
  1001  06B5                     u2260:
  1002  06B5                     l1610:
  1003                           
  1004                           ;Assignment 71.c: 168:                 seconds = 0;
  1005  06B5  01E3               	clrf	main@seconds
  1006  06B6  01E4               	clrf	main@seconds+1
  1007  06B7                     l1612:
  1008                           
  1009                           ;Assignment 71.c: 169:                 minutes = minutes + 1;
  1010  06B7  0865               	movf	main@minutes,w
  1011  06B8  3E01               	addlw	1
  1012  06B9  00E5               	movwf	main@minutes
  1013  06BA  3000               	movlw	0
  1014  06BB  3D66               	addwfc	main@minutes+1,w
  1015  06BC  00E6               	movwf	main@minutes+1
  1016  06BD                     l1614:
  1017                           
  1018                           ;Assignment 71.c: 170:                 if (minutes <= 59){
  1019  06BD  3000               	movlw	0
  1020  06BE  0266               	subwf	main@minutes+1,w
  1021  06BF  303C               	movlw	60
  1022  06C0  1903               	skipnz
  1023  06C1  0265               	subwf	main@minutes,w
  1024  06C2  1803               	skipnc
  1025  06C3  2EC5               	goto	u2271
  1026  06C4  2EC6               	goto	u2270
  1027  06C5                     u2271:
  1028  06C5  2ED0               	goto	l1618
  1029  06C6                     u2270:
  1030  06C6                     l1616:
  1031                           
  1032                           ;Assignment 71.c: 171:                     enter_digit_total(seconds,minutes);
  1033  06C6  3000               	movlw	0
  1034  06C7  00CF               	movwf	enter_digit_total@seconds
  1035  06C8  00D0               	movwf	enter_digit_total@seconds+1
  1036  06C9  0866               	movf	main@minutes+1,w
  1037  06CA  00D2               	movwf	enter_digit_total@minutes+1
  1038  06CB  0865               	movf	main@minutes,w
  1039  06CC  00D1               	movwf	enter_digit_total@minutes
  1040  06CD  3180  207E  3185   	fcall	_enter_digit_total
  1041  06D0                     l1618:
  1042                           
  1043                           ;Assignment 71.c: 173:                 if (minutes > 59 ){
  1044  06D0  3000               	movlw	0
  1045  06D1  0020               	movlb	0	; select bank0
  1046  06D2  0266               	subwf	main@minutes+1,w
  1047  06D3  303C               	movlw	60
  1048  06D4  1903               	skipnz
  1049  06D5  0265               	subwf	main@minutes,w
  1050  06D6  1C03               	skipc
  1051  06D7  2ED9               	goto	u2281
  1052  06D8  2EDA               	goto	u2280
  1053  06D9                     u2281:
  1054  06D9  2EE7               	goto	l1624
  1055  06DA                     u2280:
  1056  06DA                     l1620:
  1057                           
  1058                           ;Assignment 71.c: 174:                     minutes = 0;
  1059  06DA  01E5               	clrf	main@minutes
  1060  06DB  01E6               	clrf	main@minutes+1
  1061                           
  1062                           ;Assignment 71.c: 175:                     seconds = 0;
  1063  06DC  01E3               	clrf	main@seconds
  1064  06DD  01E4               	clrf	main@seconds+1
  1065  06DE                     l1622:
  1066                           
  1067                           ;Assignment 71.c: 176:                     enter_digit_total(seconds,minutes);
  1068  06DE  3000               	movlw	0
  1069  06DF  00CF               	movwf	enter_digit_total@seconds
  1070  06E0  00D0               	movwf	enter_digit_total@seconds+1
  1071  06E1  3000               	movlw	0
  1072  06E2  00D1               	movwf	enter_digit_total@minutes
  1073  06E3  00D2               	movwf	enter_digit_total@minutes+1
  1074  06E4  3180  207E  3185   	fcall	_enter_digit_total
  1075  06E7                     l1624:
  1076                           
  1077                           ;Assignment 71.c: 180:         if (S1_state == 2){
  1078  06E7  3002               	movlw	2
  1079  06E8  0020               	movlb	0	; select bank0
  1080  06E9  0669               	xorwf	main@S1_state,w
  1081  06EA  1D03               	btfss	3,2
  1082  06EB  2EED               	goto	u2291
  1083  06EC  2EEE               	goto	u2290
  1084  06ED                     u2291:
  1085  06ED  2EF4               	goto	l1628
  1086  06EE                     u2290:
  1087  06EE                     l1626:
  1088                           
  1089                           ;Assignment 71.c: 181:             enter_total_number(0);
  1090  06EE  3000               	movlw	0
  1091  06EF  00CF               	movwf	enter_total_number@n
  1092  06F0  00D0               	movwf	enter_total_number@n+1
  1093  06F1  3182  2244  3185   	fcall	_enter_total_number
  1094  06F4                     l1628:
  1095                           
  1096                           ;Assignment 71.c: 183:         if (S1_state == 3){
  1097  06F4  3003               	movlw	3
  1098  06F5  0020               	movlb	0	; select bank0
  1099  06F6  0669               	xorwf	main@S1_state,w
  1100  06F7  1D03               	btfss	3,2
  1101  06F8  2EFA               	goto	u2301
  1102  06F9  2EFB               	goto	u2300
  1103  06FA                     u2301:
  1104  06FA  2F4D               	goto	l1636
  1105  06FB                     u2300:
  1106  06FB                     l1630:
  1107                           
  1108                           ;Assignment 71.c: 184:             _delay((unsigned long)((25)*(1000000/4000.0)));
  1109  06FB  3009               	movlw	9
  1110  06FC  0020               	movlb	0	; select bank0
  1111  06FD  00DB               	movwf	??_main
  1112  06FE  301C               	movlw	28
  1113  06FF                     u2387:
  1114  06FF  0B89               	decfsz	9,f
  1115  0700  2EFF               	goto	u2387
  1116  0701  0BDB               	decfsz	??_main,f
  1117  0702  2EFF               	goto	u2387
  1118  0703  0000               	nop
  1119  0704                     l1632:
  1120                           
  1121                           ;Assignment 71.c: 185:             m = ((int)(ADC0_result_var/17.33)%100);
  1122  0704  3064               	movlw	100
  1123  0705  0020               	movlb	0	; select bank0
  1124  0706  00C5               	movwf	___awmod@divisor
  1125  0707  3000               	movlw	0
  1126  0708  00C6               	movwf	___awmod@divisor+1
  1127  0709  0861               	movf	main@ADC0_result_var,w
  1128  070A  00F0               	movwf	___xxtofl@val
  1129  070B  0862               	movf	main@ADC0_result_var+1,w
  1130  070C  00F1               	movwf	___xxtofl@val+1
  1131  070D  01F2               	clrf	___xxtofl@val+2
  1132  070E  01F3               	clrf	___xxtofl@val+3
  1133  070F  3000               	movlw	0
  1134  0710  3181  2198  3185   	fcall	___xxtofl
  1135  0713  0873               	movf	?___xxtofl+3,w
  1136  0714  0020               	movlb	0	; select bank0
  1137  0715  00A7               	movwf	___fldiv@b+3
  1138  0716  0872               	movf	?___xxtofl+2,w
  1139  0717  00A6               	movwf	___fldiv@b+2
  1140  0718  0871               	movf	?___xxtofl+1,w
  1141  0719  00A5               	movwf	___fldiv@b+1
  1142  071A  0870               	movf	?___xxtofl,w
  1143  071B  00A4               	movwf	___fldiv@b
  1144  071C  3041               	movlw	65
  1145  071D  00A3               	movwf	___fldiv@a+3
  1146  071E  308A               	movlw	138
  1147  071F  00A2               	movwf	___fldiv@a+2
  1148  0720  30A3               	movlw	163
  1149  0721  00A1               	movwf	___fldiv@a+1
  1150  0722  30D7               	movlw	215
  1151  0723  00A0               	movwf	___fldiv@a
  1152  0724  3184  2423  3185   	fcall	___fldiv
  1153  0727  0020               	movlb	0	; select bank0
  1154  0728  0823               	movf	?___fldiv+3,w
  1155  0729  00BD               	movwf	___fltol@f1+3
  1156  072A  0822               	movf	?___fldiv+2,w
  1157  072B  00BC               	movwf	___fltol@f1+2
  1158  072C  0821               	movf	?___fldiv+1,w
  1159  072D  00BB               	movwf	___fltol@f1+1
  1160  072E  0820               	movf	?___fldiv,w
  1161  072F  00BA               	movwf	___fltol@f1
  1162  0730  3181  2123  3185   	fcall	___fltol
  1163  0733  0020               	movlb	0	; select bank0
  1164  0734  083B               	movf	?___fltol+1,w
  1165  0735  00C8               	movwf	___awmod@dividend+1
  1166  0736  083A               	movf	?___fltol,w
  1167  0737  00C7               	movwf	___awmod@dividend
  1168  0738  3180  20CF  3185   	fcall	___awmod
  1169  073B  0020               	movlb	0	; select bank0
  1170  073C  0845               	movf	?___awmod,w
  1171  073D  00DB               	movwf	??_main
  1172  073E  085B               	movf	??_main,w
  1173  073F  00E8               	movwf	main@m
  1174  0740                     l1634:
  1175                           
  1176                           ;Assignment 71.c: 186:             enter_digit_total(0,m);
  1177  0740  3000               	movlw	0
  1178  0741  00CF               	movwf	enter_digit_total@seconds
  1179  0742  00D0               	movwf	enter_digit_total@seconds+1
  1180  0743  0868               	movf	main@m,w
  1181  0744  00DB               	movwf	??_main
  1182  0745  01DC               	clrf	??_main+1
  1183  0746  085B               	movf	??_main,w
  1184  0747  00D1               	movwf	enter_digit_total@minutes
  1185  0748  085C               	movf	??_main+1,w
  1186  0749  00D2               	movwf	enter_digit_total@minutes+1
  1187  074A  3180  207E  3185   	fcall	_enter_digit_total
  1188  074D                     l1636:
  1189                           
  1190                           ;Assignment 71.c: 189:         if (S1_state == 5){
  1191  074D  3005               	movlw	5
  1192  074E  0020               	movlb	0	; select bank0
  1193  074F  0669               	xorwf	main@S1_state,w
  1194  0750  1D03               	btfss	3,2
  1195  0751  2F53               	goto	u2311
  1196  0752  2F54               	goto	u2310
  1197  0753                     u2311:
  1198  0753  2FA0               	goto	l1640
  1199  0754                     u2310:
  1200  0754                     l1638:
  1201                           
  1202                           ;Assignment 71.c: 190:             h = ((int)(ADC0_result_var/17.33)%100);
  1203  0754  3064               	movlw	100
  1204  0755  00C5               	movwf	___awmod@divisor
  1205  0756  3000               	movlw	0
  1206  0757  00C6               	movwf	___awmod@divisor+1
  1207  0758  0861               	movf	main@ADC0_result_var,w
  1208  0759  00F0               	movwf	___xxtofl@val
  1209  075A  0862               	movf	main@ADC0_result_var+1,w
  1210  075B  00F1               	movwf	___xxtofl@val+1
  1211  075C  01F2               	clrf	___xxtofl@val+2
  1212  075D  01F3               	clrf	___xxtofl@val+3
  1213  075E  3000               	movlw	0
  1214  075F  3181  2198  3185   	fcall	___xxtofl
  1215  0762  0873               	movf	?___xxtofl+3,w
  1216  0763  0020               	movlb	0	; select bank0
  1217  0764  00A7               	movwf	___fldiv@b+3
  1218  0765  0872               	movf	?___xxtofl+2,w
  1219  0766  00A6               	movwf	___fldiv@b+2
  1220  0767  0871               	movf	?___xxtofl+1,w
  1221  0768  00A5               	movwf	___fldiv@b+1
  1222  0769  0870               	movf	?___xxtofl,w
  1223  076A  00A4               	movwf	___fldiv@b
  1224  076B  3041               	movlw	65
  1225  076C  00A3               	movwf	___fldiv@a+3
  1226  076D  308A               	movlw	138
  1227  076E  00A2               	movwf	___fldiv@a+2
  1228  076F  30A3               	movlw	163
  1229  0770  00A1               	movwf	___fldiv@a+1
  1230  0771  30D7               	movlw	215
  1231  0772  00A0               	movwf	___fldiv@a
  1232  0773  3184  2423  3185   	fcall	___fldiv
  1233  0776  0020               	movlb	0	; select bank0
  1234  0777  0823               	movf	?___fldiv+3,w
  1235  0778  00BD               	movwf	___fltol@f1+3
  1236  0779  0822               	movf	?___fldiv+2,w
  1237  077A  00BC               	movwf	___fltol@f1+2
  1238  077B  0821               	movf	?___fldiv+1,w
  1239  077C  00BB               	movwf	___fltol@f1+1
  1240  077D  0820               	movf	?___fldiv,w
  1241  077E  00BA               	movwf	___fltol@f1
  1242  077F  3181  2123  3185   	fcall	___fltol
  1243  0782  0020               	movlb	0	; select bank0
  1244  0783  083B               	movf	?___fltol+1,w
  1245  0784  00C8               	movwf	___awmod@dividend+1
  1246  0785  083A               	movf	?___fltol,w
  1247  0786  00C7               	movwf	___awmod@dividend
  1248  0787  3180  20CF  3185   	fcall	___awmod
  1249  078A  0020               	movlb	0	; select bank0
  1250  078B  0845               	movf	?___awmod,w
  1251  078C  00DB               	movwf	??_main
  1252  078D  085B               	movf	??_main,w
  1253  078E  00E7               	movwf	main@h
  1254                           
  1255                           ;Assignment 71.c: 191:             enter_digit_total(h,m);
  1256  078F  0867               	movf	main@h,w
  1257  0790  00DB               	movwf	??_main
  1258  0791  01DC               	clrf	??_main+1
  1259  0792  085B               	movf	??_main,w
  1260  0793  00CF               	movwf	enter_digit_total@seconds
  1261  0794  085C               	movf	??_main+1,w
  1262  0795  00D0               	movwf	enter_digit_total@seconds+1
  1263  0796  0868               	movf	main@m,w
  1264  0797  00DD               	movwf	??_main+2
  1265  0798  01DE               	clrf	??_main+3
  1266  0799  085D               	movf	??_main+2,w
  1267  079A  00D1               	movwf	enter_digit_total@minutes
  1268  079B  085E               	movf	??_main+3,w
  1269  079C  00D2               	movwf	enter_digit_total@minutes+1
  1270  079D  3180  207E  3185   	fcall	_enter_digit_total
  1271  07A0                     l1640:
  1272                           
  1273                           ;Assignment 71.c: 194:         if (S1_state == 7){
  1274  07A0  3007               	movlw	7
  1275  07A1  0020               	movlb	0	; select bank0
  1276  07A2  0669               	xorwf	main@S1_state,w
  1277  07A3  1D03               	btfss	3,2
  1278  07A4  2FA6               	goto	u2321
  1279  07A5  2FA7               	goto	u2320
  1280  07A6                     u2321:
  1281  07A6  2FEF               	goto	l1662
  1282  07A7                     u2320:
  1283  07A7                     l1642:
  1284                           
  1285                           ;Assignment 71.c: 195:             h = h + 1;
  1286  07A7  0867               	movf	main@h,w
  1287  07A8  3E01               	addlw	1
  1288  07A9  00DB               	movwf	??_main
  1289  07AA  085B               	movf	??_main,w
  1290  07AB  00E7               	movwf	main@h
  1291  07AC                     l1644:
  1292                           
  1293                           ;Assignment 71.c: 196:             enter_digit_total(h,m);
  1294  07AC  0867               	movf	main@h,w
  1295  07AD  00DB               	movwf	??_main
  1296  07AE  01DC               	clrf	??_main+1
  1297  07AF  085B               	movf	??_main,w
  1298  07B0  00CF               	movwf	enter_digit_total@seconds
  1299  07B1  085C               	movf	??_main+1,w
  1300  07B2  00D0               	movwf	enter_digit_total@seconds+1
  1301  07B3  0868               	movf	main@m,w
  1302  07B4  00DD               	movwf	??_main+2
  1303  07B5  01DE               	clrf	??_main+3
  1304  07B6  085D               	movf	??_main+2,w
  1305  07B7  00D1               	movwf	enter_digit_total@minutes
  1306  07B8  085E               	movf	??_main+3,w
  1307  07B9  00D2               	movwf	enter_digit_total@minutes+1
  1308  07BA  3180  207E  3185   	fcall	_enter_digit_total
  1309  07BD                     l1646:
  1310                           
  1311                           ;Assignment 71.c: 197:             if (h > 58){
  1312  07BD  303B               	movlw	59
  1313  07BE  0020               	movlb	0	; select bank0
  1314  07BF  0267               	subwf	main@h,w
  1315  07C0  1C03               	skipc
  1316  07C1  2FC3               	goto	u2331
  1317  07C2  2FC4               	goto	u2330
  1318  07C3                     u2331:
  1319  07C3  2FEF               	goto	l1662
  1320  07C4                     u2330:
  1321  07C4                     l1648:
  1322                           
  1323                           ;Assignment 71.c: 198:                 h = 0;
  1324  07C4  01E7               	clrf	main@h
  1325  07C5                     l1650:
  1326                           
  1327                           ;Assignment 71.c: 199:                 m = m + 1;
  1328  07C5  0868               	movf	main@m,w
  1329  07C6  3E01               	addlw	1
  1330  07C7  00DB               	movwf	??_main
  1331  07C8  085B               	movf	??_main,w
  1332  07C9  00E8               	movwf	main@m
  1333  07CA                     l1652:
  1334                           
  1335                           ;Assignment 71.c: 200:                 if (m <= 59){
  1336  07CA  303C               	movlw	60
  1337  07CB  0268               	subwf	main@m,w
  1338  07CC  1803               	skipnc
  1339  07CD  2FCF               	goto	u2341
  1340  07CE  2FD0               	goto	u2340
  1341  07CF                     u2341:
  1342  07CF  2FDD               	goto	l1656
  1343  07D0                     u2340:
  1344  07D0                     l1654:
  1345                           
  1346                           ;Assignment 71.c: 201:                     enter_digit_total(h,m);
  1347  07D0  3000               	movlw	0
  1348  07D1  00CF               	movwf	enter_digit_total@seconds
  1349  07D2  00D0               	movwf	enter_digit_total@seconds+1
  1350  07D3  0868               	movf	main@m,w
  1351  07D4  00DB               	movwf	??_main
  1352  07D5  01DC               	clrf	??_main+1
  1353  07D6  085B               	movf	??_main,w
  1354  07D7  00D1               	movwf	enter_digit_total@minutes
  1355  07D8  085C               	movf	??_main+1,w
  1356  07D9  00D2               	movwf	enter_digit_total@minutes+1
  1357  07DA  3180  207E  3185   	fcall	_enter_digit_total
  1358  07DD                     l1656:
  1359                           
  1360                           ;Assignment 71.c: 203:                 if (m > 59 ){
  1361  07DD  303C               	movlw	60
  1362  07DE  0020               	movlb	0	; select bank0
  1363  07DF  0268               	subwf	main@m,w
  1364  07E0  1C03               	skipc
  1365  07E1  2FE3               	goto	u2351
  1366  07E2  2FE4               	goto	u2350
  1367  07E3                     u2351:
  1368  07E3  2FEF               	goto	l1662
  1369  07E4                     u2350:
  1370  07E4                     l1658:
  1371                           
  1372                           ;Assignment 71.c: 204:                     m = 0;
  1373  07E4  01E8               	clrf	main@m
  1374                           
  1375                           ;Assignment 71.c: 205:                     h = 0;
  1376  07E5  01E7               	clrf	main@h
  1377  07E6                     l1660:
  1378                           
  1379                           ;Assignment 71.c: 206:                     enter_digit_total(h,m);
  1380  07E6  3000               	movlw	0
  1381  07E7  00CF               	movwf	enter_digit_total@seconds
  1382  07E8  00D0               	movwf	enter_digit_total@seconds+1
  1383  07E9  3000               	movlw	0
  1384  07EA  00D1               	movwf	enter_digit_total@minutes
  1385  07EB  00D2               	movwf	enter_digit_total@minutes+1
  1386  07EC  3180  207E  3185   	fcall	_enter_digit_total
  1387  07EF                     l1662:
  1388                           
  1389                           ;Assignment 71.c: 210:         if (PORTAbits.RA2 == 1){
  1390  07EF  0020               	movlb	0	; select bank0
  1391  07F0  1D0C               	btfss	12,2	;volatile
  1392  07F1  2FF3               	goto	u2361
  1393  07F2  2FF4               	goto	u2360
  1394  07F3                     u2361:
  1395  07F3  2DFB               	goto	l1546
  1396  07F4                     u2360:
  1397  07F4                     l1664:
  1398                           
  1399                           ;Assignment 71.c: 211:             seconds = 0;
  1400  07F4  01E3               	clrf	main@seconds
  1401  07F5  01E4               	clrf	main@seconds+1
  1402                           
  1403                           ;Assignment 71.c: 212:             minutes = 0;
  1404  07F6  01E5               	clrf	main@minutes
  1405  07F7  01E6               	clrf	main@minutes+1
  1406                           
  1407                           ;Assignment 71.c: 213:             h = 0 ;
  1408  07F8  01E7               	clrf	main@h
  1409                           
  1410                           ;Assignment 71.c: 214:             m = 0 ;
  1411  07F9  01E8               	clrf	main@m
  1412  07FA  2DFB               	goto	l1546
  1413  07FB  3180  2802         	ljmp	start
  1414  07FD                     __end_of_main:
  1415                           
  1416                           	psect	text1
  1417  0244                     __ptext1:	
  1418 ;; *************** function _enter_total_number *****************
  1419 ;; Defined at:
  1420 ;;		line 96 in file "Assignment 71.c"
  1421 ;; Parameters:    Size  Location     Type
  1422 ;;  n               2   47[BANK0 ] unsigned int 
  1423 ;; Auto vars:     Size  Location     Type
  1424 ;;  d               2   55[BANK0 ] int 
  1425 ;;  c               2   53[BANK0 ] int 
  1426 ;;  b               2   51[BANK0 ] int 
  1427 ;;  a               2   49[BANK0 ] int 
  1428 ;; Return value:  Size  Location     Type
  1429 ;;                  1    wreg      void 
  1430 ;; Registers used:
  1431 ;;		wreg, status,2, status,0, pclath, cstack
  1432 ;; Tracked objects:
  1433 ;;		On entry : 0/0
  1434 ;;		On exit  : 0/0
  1435 ;;		Unchanged: 0/0
  1436 ;; Data sizes:     COMMON   BANK0   BANK1   BANK2   BANK3   BANK4   BANK5   BANK6
  1437 ;;      Params:         0       2       0       0       0       0       0       0
  1438 ;;      Locals:         0      10       0       0       0       0       0       0
  1439 ;;      Temps:          0       0       0       0       0       0       0       0
  1440 ;;      Totals:         0      12       0       0       0       0       0       0
  1441 ;;Total ram usage:       12 bytes
  1442 ;; Hardware stack levels used: 1
  1443 ;; Hardware stack levels required when called: 4
  1444 ;; This function calls:
  1445 ;;		___awmod
  1446 ;;		___lwdiv
  1447 ;;		___lwmod
  1448 ;;		_enter_number_added
  1449 ;;		_enter_number_finish
  1450 ;; This function is called by:
  1451 ;;		_main
  1452 ;; This function uses a non-reentrant model
  1453 ;;
  1454                           
  1455  0244                     _enter_total_number:	
  1456                           ;psect for function _enter_total_number
  1457                           
  1458  0244                     l1300:	
  1459                           ;incstack = 0
  1460                           ; Regs used in _enter_total_number: [wreg+status,2+status,0+pclath+cstack]
  1461                           
  1462                           
  1463                           ;Assignment 71.c: 97:     int a = n/1000;
  1464  0244  30E8               	movlw	232
  1465  0245  00F0               	movwf	___lwdiv@divisor
  1466  0246  3003               	movlw	3
  1467  0247  00F1               	movwf	___lwdiv@divisor+1
  1468  0248  0020               	movlb	0	; select bank0
  1469  0249  0850               	movf	enter_total_number@n+1,w
  1470  024A  00F3               	movwf	___lwdiv@dividend+1
  1471  024B  084F               	movf	enter_total_number@n,w
  1472  024C  00F2               	movwf	___lwdiv@dividend
  1473  024D  3180  2042  3182   	fcall	___lwdiv
  1474  0250  0871               	movf	?___lwdiv+1,w
  1475  0251  0020               	movlb	0	; select bank0
  1476  0252  00D2               	movwf	enter_total_number@a+1
  1477  0253  0870               	movf	?___lwdiv,w
  1478  0254  00D1               	movwf	enter_total_number@a
  1479                           
  1480                           ;Assignment 71.c: 98:     int b = (n/100)%10;
  1481  0255  300A               	movlw	10
  1482  0256  00F8               	movwf	___lwmod@divisor
  1483  0257  3000               	movlw	0
  1484  0258  00F9               	movwf	___lwmod@divisor+1
  1485  0259  3064               	movlw	100
  1486  025A  00F0               	movwf	___lwdiv@divisor
  1487  025B  3000               	movlw	0
  1488  025C  00F1               	movwf	___lwdiv@divisor+1
  1489  025D  0850               	movf	enter_total_number@n+1,w
  1490  025E  00F3               	movwf	___lwdiv@dividend+1
  1491  025F  084F               	movf	enter_total_number@n,w
  1492  0260  00F2               	movwf	___lwdiv@dividend
  1493  0261  3180  2042  3182   	fcall	___lwdiv
  1494  0264  0871               	movf	?___lwdiv+1,w
  1495  0265  00FB               	movwf	___lwmod@dividend+1
  1496  0266  0870               	movf	?___lwdiv,w
  1497  0267  00FA               	movwf	___lwmod@dividend
  1498  0268  3180  200E  3182   	fcall	___lwmod
  1499  026B  0879               	movf	?___lwmod+1,w
  1500  026C  0020               	movlb	0	; select bank0
  1501  026D  00D4               	movwf	enter_total_number@b+1
  1502  026E  0878               	movf	?___lwmod,w
  1503  026F  00D3               	movwf	enter_total_number@b
  1504                           
  1505                           ;Assignment 71.c: 99:     int c = (n%100)/10;
  1506  0270  300A               	movlw	10
  1507  0271  00F0               	movwf	___lwdiv@divisor
  1508  0272  3000               	movlw	0
  1509  0273  00F1               	movwf	___lwdiv@divisor+1
  1510  0274  0850               	movf	enter_total_number@n+1,w
  1511  0275  00FB               	movwf	___lwmod@dividend+1
  1512  0276  084F               	movf	enter_total_number@n,w
  1513  0277  00FA               	movwf	___lwmod@dividend
  1514  0278  3064               	movlw	100
  1515  0279  00F8               	movwf	___lwmod@divisor
  1516  027A  3000               	movlw	0
  1517  027B  00F9               	movwf	___lwmod@divisor+1
  1518  027C  3180  200E  3182   	fcall	___lwmod
  1519  027F  0879               	movf	?___lwmod+1,w
  1520  0280  00F3               	movwf	___lwdiv@dividend+1
  1521  0281  0878               	movf	?___lwmod,w
  1522  0282  00F2               	movwf	___lwdiv@dividend
  1523  0283  3180  2042  3182   	fcall	___lwdiv
  1524  0286  0871               	movf	?___lwdiv+1,w
  1525  0287  0020               	movlb	0	; select bank0
  1526  0288  00D6               	movwf	enter_total_number@c+1
  1527  0289  0870               	movf	?___lwdiv,w
  1528  028A  00D5               	movwf	enter_total_number@c
  1529                           
  1530                           ;Assignment 71.c: 100:     int d = (n%100)%10;
  1531  028B  0850               	movf	enter_total_number@n+1,w
  1532  028C  00FB               	movwf	___lwmod@dividend+1
  1533  028D  084F               	movf	enter_total_number@n,w
  1534  028E  00FA               	movwf	___lwmod@dividend
  1535  028F  3064               	movlw	100
  1536  0290  00F8               	movwf	___lwmod@divisor
  1537  0291  3000               	movlw	0
  1538  0292  00F9               	movwf	___lwmod@divisor+1
  1539  0293  3180  200E  3182   	fcall	___lwmod
  1540  0296  0879               	movf	?___lwmod+1,w
  1541  0297  0020               	movlb	0	; select bank0
  1542  0298  00DA               	movwf	_enter_total_number$727+1
  1543  0299  0878               	movf	?___lwmod,w
  1544  029A  00D9               	movwf	_enter_total_number$727
  1545                           
  1546                           ;Assignment 71.c: 100:     int d = (n%100)%10;
  1547  029B  300A               	movlw	10
  1548  029C  00F8               	movwf	___lwmod@divisor
  1549  029D  3000               	movlw	0
  1550  029E  00F9               	movwf	___lwmod@divisor+1
  1551  029F  085A               	movf	_enter_total_number$727+1,w
  1552  02A0  00FB               	movwf	___lwmod@dividend+1
  1553  02A1  0859               	movf	_enter_total_number$727,w
  1554  02A2  00FA               	movwf	___lwmod@dividend
  1555  02A3  3180  200E  3182   	fcall	___lwmod
  1556  02A6  0879               	movf	?___lwmod+1,w
  1557  02A7  0020               	movlb	0	; select bank0
  1558  02A8  00D8               	movwf	enter_total_number@d+1
  1559  02A9  0878               	movf	?___lwmod,w
  1560  02AA  00D7               	movwf	enter_total_number@d
  1561                           
  1562                           ;Assignment 71.c: 102:     enter_number_added((unsigned int)(d%10));
  1563  02AB  300A               	movlw	10
  1564  02AC  00C5               	movwf	___awmod@divisor
  1565  02AD  3000               	movlw	0
  1566  02AE  00C6               	movwf	___awmod@divisor+1
  1567  02AF  0858               	movf	enter_total_number@d+1,w
  1568  02B0  00C8               	movwf	___awmod@dividend+1
  1569  02B1  0857               	movf	enter_total_number@d,w
  1570  02B2  00C7               	movwf	___awmod@dividend
  1571  02B3  3180  20CF  3182   	fcall	___awmod
  1572  02B6  0020               	movlb	0	; select bank0
  1573  02B7  0846               	movf	?___awmod+1,w
  1574  02B8  00CD               	movwf	enter_number_added@n+1
  1575  02B9  0845               	movf	?___awmod,w
  1576  02BA  00CC               	movwf	enter_number_added@n
  1577  02BB  318F  27AA  3182   	fcall	_enter_number_added
  1578                           
  1579                           ;Assignment 71.c: 103:     enter_number_added((unsigned int)(c%10));
  1580  02BE  300A               	movlw	10
  1581  02BF  0020               	movlb	0	; select bank0
  1582  02C0  00C5               	movwf	___awmod@divisor
  1583  02C1  3000               	movlw	0
  1584  02C2  00C6               	movwf	___awmod@divisor+1
  1585  02C3  0856               	movf	enter_total_number@c+1,w
  1586  02C4  00C8               	movwf	___awmod@dividend+1
  1587  02C5  0855               	movf	enter_total_number@c,w
  1588  02C6  00C7               	movwf	___awmod@dividend
  1589  02C7  3180  20CF  3182   	fcall	___awmod
  1590  02CA  0020               	movlb	0	; select bank0
  1591  02CB  0846               	movf	?___awmod+1,w
  1592  02CC  00CD               	movwf	enter_number_added@n+1
  1593  02CD  0845               	movf	?___awmod,w
  1594  02CE  00CC               	movwf	enter_number_added@n
  1595  02CF  318F  27AA  3182   	fcall	_enter_number_added
  1596                           
  1597                           ;Assignment 71.c: 104:     enter_number_added((unsigned int)(b%10));
  1598  02D2  300A               	movlw	10
  1599  02D3  0020               	movlb	0	; select bank0
  1600  02D4  00C5               	movwf	___awmod@divisor
  1601  02D5  3000               	movlw	0
  1602  02D6  00C6               	movwf	___awmod@divisor+1
  1603  02D7  0854               	movf	enter_total_number@b+1,w
  1604  02D8  00C8               	movwf	___awmod@dividend+1
  1605  02D9  0853               	movf	enter_total_number@b,w
  1606  02DA  00C7               	movwf	___awmod@dividend
  1607  02DB  3180  20CF  3182   	fcall	___awmod
  1608  02DE  0020               	movlb	0	; select bank0
  1609  02DF  0846               	movf	?___awmod+1,w
  1610  02E0  00CD               	movwf	enter_number_added@n+1
  1611  02E1  0845               	movf	?___awmod,w
  1612  02E2  00CC               	movwf	enter_number_added@n
  1613  02E3  318F  27AA  3182   	fcall	_enter_number_added
  1614                           
  1615                           ;Assignment 71.c: 105:     enter_number_finish((unsigned int)(a%10));
  1616  02E6  300A               	movlw	10
  1617  02E7  0020               	movlb	0	; select bank0
  1618  02E8  00C5               	movwf	___awmod@divisor
  1619  02E9  3000               	movlw	0
  1620  02EA  00C6               	movwf	___awmod@divisor+1
  1621  02EB  0852               	movf	enter_total_number@a+1,w
  1622  02EC  00C8               	movwf	___awmod@dividend+1
  1623  02ED  0851               	movf	enter_total_number@a,w
  1624  02EE  00C7               	movwf	___awmod@dividend
  1625  02EF  3180  20CF  3182   	fcall	___awmod
  1626  02F2  0020               	movlb	0	; select bank0
  1627  02F3  0846               	movf	?___awmod+1,w
  1628  02F4  00CD               	movwf	enter_number_finish@n+1
  1629  02F5  0845               	movf	?___awmod,w
  1630  02F6  00CC               	movwf	enter_number_finish@n
  1631  02F7  318F  27E8  3182   	fcall	_enter_number_finish
  1632  02FA                     l77:
  1633  02FA  0008               	return
  1634  02FB                     __end_of_enter_total_number:
  1635                           
  1636                           	psect	text2
  1637  00CF                     __ptext2:	
  1638 ;; *************** function ___awmod *****************
  1639 ;; Defined at:
  1640 ;;		line 5 in file "C:\Program Files\Microchip\xc8\v2.36\pic\sources\c99\common\awmod.c"
  1641 ;; Parameters:    Size  Location     Type
  1642 ;;  divisor         2   37[BANK0 ] int 
  1643 ;;  dividend        2   39[BANK0 ] int 
  1644 ;; Auto vars:     Size  Location     Type
  1645 ;;  sign            1   43[BANK0 ] unsigned char 
  1646 ;;  counter         1   42[BANK0 ] unsigned char 
  1647 ;; Return value:  Size  Location     Type
  1648 ;;                  2   37[BANK0 ] int 
  1649 ;; Registers used:
  1650 ;;		wreg, status,2, status,0
  1651 ;; Tracked objects:
  1652 ;;		On entry : 0/0
  1653 ;;		On exit  : 0/0
  1654 ;;		Unchanged: 0/0
  1655 ;; Data sizes:     COMMON   BANK0   BANK1   BANK2   BANK3   BANK4   BANK5   BANK6
  1656 ;;      Params:         0       4       0       0       0       0       0       0
  1657 ;;      Locals:         0       2       0       0       0       0       0       0
  1658 ;;      Temps:          0       1       0       0       0       0       0       0
  1659 ;;      Totals:         0       7       0       0       0       0       0       0
  1660 ;;Total ram usage:        7 bytes
  1661 ;; Hardware stack levels used: 1
  1662 ;; This function calls:
  1663 ;;		Nothing
  1664 ;; This function is called by:
  1665 ;;		_enter_total_number
  1666 ;;		_main
  1667 ;; This function uses a non-reentrant model
  1668 ;;
  1669                           
  1670  00CF                     ___awmod:	
  1671                           ;psect for function ___awmod
  1672                           
  1673  00CF                     l1214:	
  1674                           ;incstack = 0
  1675                           ; Regs used in ___awmod: [wreg+status,2+status,0]
  1676                           
  1677  00CF  0020               	movlb	0	; select bank0
  1678  00D0  01CB               	clrf	___awmod@sign
  1679  00D1                     l1216:
  1680  00D1  1FC8               	btfss	___awmod@dividend+1,7
  1681  00D2  28D4               	goto	u1311
  1682  00D3  28D5               	goto	u1310
  1683  00D4                     u1311:
  1684  00D4  28DC               	goto	l1222
  1685  00D5                     u1310:
  1686  00D5                     l1218:
  1687  00D5  09C7               	comf	___awmod@dividend,f
  1688  00D6  09C8               	comf	___awmod@dividend+1,f
  1689  00D7  0AC7               	incf	___awmod@dividend,f
  1690  00D8  1903               	skipnz
  1691  00D9  0AC8               	incf	___awmod@dividend+1,f
  1692  00DA                     l1220:
  1693  00DA  01CB               	clrf	___awmod@sign
  1694  00DB  0ACB               	incf	___awmod@sign,f
  1695  00DC                     l1222:
  1696  00DC  1FC6               	btfss	___awmod@divisor+1,7
  1697  00DD  28DF               	goto	u1321
  1698  00DE  28E0               	goto	u1320
  1699  00DF                     u1321:
  1700  00DF  28E5               	goto	l1226
  1701  00E0                     u1320:
  1702  00E0                     l1224:
  1703  00E0  09C5               	comf	___awmod@divisor,f
  1704  00E1  09C6               	comf	___awmod@divisor+1,f
  1705  00E2  0AC5               	incf	___awmod@divisor,f
  1706  00E3  1903               	skipnz
  1707  00E4  0AC6               	incf	___awmod@divisor+1,f
  1708  00E5                     l1226:
  1709  00E5  0845               	movf	___awmod@divisor,w
  1710  00E6  0446               	iorwf	___awmod@divisor+1,w
  1711  00E7  1903               	btfsc	3,2
  1712  00E8  28EA               	goto	u1331
  1713  00E9  28EB               	goto	u1330
  1714  00EA                     u1331:
  1715  00EA  2914               	goto	l1244
  1716  00EB                     u1330:
  1717  00EB                     l1228:
  1718  00EB  01CA               	clrf	___awmod@counter
  1719  00EC  0ACA               	incf	___awmod@counter,f
  1720  00ED  28F7               	goto	l1234
  1721  00EE                     l1230:
  1722  00EE  3001               	movlw	1
  1723  00EF                     u1345:
  1724  00EF  35C5               	lslf	___awmod@divisor,f
  1725  00F0  0DC6               	rlf	___awmod@divisor+1,f
  1726  00F1  0B89               	decfsz	9,f
  1727  00F2  28EF               	goto	u1345
  1728  00F3                     l1232:
  1729  00F3  3001               	movlw	1
  1730  00F4  00C9               	movwf	??___awmod
  1731  00F5  0849               	movf	??___awmod,w
  1732  00F6  07CA               	addwf	___awmod@counter,f
  1733  00F7                     l1234:
  1734  00F7  1FC6               	btfss	___awmod@divisor+1,7
  1735  00F8  28FA               	goto	u1351
  1736  00F9  28FB               	goto	u1350
  1737  00FA                     u1351:
  1738  00FA  28EE               	goto	l1230
  1739  00FB                     u1350:
  1740  00FB                     l1236:
  1741  00FB  0846               	movf	___awmod@divisor+1,w
  1742  00FC  0248               	subwf	___awmod@dividend+1,w
  1743  00FD  1D03               	skipz
  1744  00FE  2901               	goto	u1365
  1745  00FF  0845               	movf	___awmod@divisor,w
  1746  0100  0247               	subwf	___awmod@dividend,w
  1747  0101                     u1365:
  1748  0101  1C03               	skipc
  1749  0102  2904               	goto	u1361
  1750  0103  2905               	goto	u1360
  1751  0104                     u1361:
  1752  0104  2909               	goto	l1240
  1753  0105                     u1360:
  1754  0105                     l1238:
  1755  0105  0845               	movf	___awmod@divisor,w
  1756  0106  02C7               	subwf	___awmod@dividend,f
  1757  0107  0846               	movf	___awmod@divisor+1,w
  1758  0108  3BC8               	subwfb	___awmod@dividend+1,f
  1759  0109                     l1240:
  1760  0109  3001               	movlw	1
  1761  010A                     u1375:
  1762  010A  36C6               	lsrf	___awmod@divisor+1,f
  1763  010B  0CC5               	rrf	___awmod@divisor,f
  1764  010C  0B89               	decfsz	9,f
  1765  010D  290A               	goto	u1375
  1766  010E                     l1242:
  1767  010E  3001               	movlw	1
  1768  010F  02CA               	subwf	___awmod@counter,f
  1769  0110  1D03               	btfss	3,2
  1770  0111  2913               	goto	u1381
  1771  0112  2914               	goto	u1380
  1772  0113                     u1381:
  1773  0113  28FB               	goto	l1236
  1774  0114                     u1380:
  1775  0114                     l1244:
  1776  0114  084B               	movf	___awmod@sign,w
  1777  0115  1903               	btfsc	3,2
  1778  0116  2918               	goto	u1391
  1779  0117  2919               	goto	u1390
  1780  0118                     u1391:
  1781  0118  291E               	goto	l1248
  1782  0119                     u1390:
  1783  0119                     l1246:
  1784  0119  09C7               	comf	___awmod@dividend,f
  1785  011A  09C8               	comf	___awmod@dividend+1,f
  1786  011B  0AC7               	incf	___awmod@dividend,f
  1787  011C  1903               	skipnz
  1788  011D  0AC8               	incf	___awmod@dividend+1,f
  1789  011E                     l1248:
  1790  011E  0848               	movf	___awmod@dividend+1,w
  1791  011F  00C6               	movwf	?___awmod+1
  1792  0120  0847               	movf	___awmod@dividend,w
  1793  0121  00C5               	movwf	?___awmod
  1794  0122                     l346:
  1795  0122  0008               	return
  1796  0123                     __end_of___awmod:
  1797                           
  1798                           	psect	text3
  1799  007E                     __ptext3:	
  1800 ;; *************** function _enter_digit_total *****************
  1801 ;; Defined at:
  1802 ;;		line 108 in file "Assignment 71.c"
  1803 ;; Parameters:    Size  Location     Type
  1804 ;;  seconds         2   47[BANK0 ] unsigned int 
  1805 ;;  minutes         2   49[BANK0 ] unsigned int 
  1806 ;; Auto vars:     Size  Location     Type
  1807 ;;		None
  1808 ;; Return value:  Size  Location     Type
  1809 ;;                  1    wreg      void 
  1810 ;; Registers used:
  1811 ;;		wreg, status,2, status,0, pclath, cstack
  1812 ;; Tracked objects:
  1813 ;;		On entry : 0/0
  1814 ;;		On exit  : 0/0
  1815 ;;		Unchanged: 0/0
  1816 ;; Data sizes:     COMMON   BANK0   BANK1   BANK2   BANK3   BANK4   BANK5   BANK6
  1817 ;;      Params:         0       4       0       0       0       0       0       0
  1818 ;;      Locals:         0       0       0       0       0       0       0       0
  1819 ;;      Temps:          0       0       0       0       0       0       0       0
  1820 ;;      Totals:         0       4       0       0       0       0       0       0
  1821 ;;Total ram usage:        4 bytes
  1822 ;; Hardware stack levels used: 1
  1823 ;; Hardware stack levels required when called: 4
  1824 ;; This function calls:
  1825 ;;		___lwdiv
  1826 ;;		___lwmod
  1827 ;;		_enter_number_added
  1828 ;;		_enter_number_finish
  1829 ;; This function is called by:
  1830 ;;		_main
  1831 ;; This function uses a non-reentrant model
  1832 ;;
  1833                           
  1834  007E                     _enter_digit_total:	
  1835                           ;psect for function _enter_digit_total
  1836                           
  1837  007E                     l1302:	
  1838                           ;incstack = 0
  1839                           ; Regs used in _enter_digit_total: [wreg+status,2+status,0+pclath+cstack]
  1840                           
  1841                           
  1842                           ;Assignment 71.c: 109:     enter_number_added((unsigned int)(seconds%10));
  1843  007E  300A               	movlw	10
  1844  007F  00F8               	movwf	___lwmod@divisor
  1845  0080  3000               	movlw	0
  1846  0081  00F9               	movwf	___lwmod@divisor+1
  1847  0082  0020               	movlb	0	; select bank0
  1848  0083  0850               	movf	enter_digit_total@seconds+1,w
  1849  0084  00FB               	movwf	___lwmod@dividend+1
  1850  0085  084F               	movf	enter_digit_total@seconds,w
  1851  0086  00FA               	movwf	___lwmod@dividend
  1852  0087  3180  200E  3180   	fcall	___lwmod
  1853  008A  0879               	movf	?___lwmod+1,w
  1854  008B  0020               	movlb	0	; select bank0
  1855  008C  00CD               	movwf	enter_number_added@n+1
  1856  008D  0878               	movf	?___lwmod,w
  1857  008E  00CC               	movwf	enter_number_added@n
  1858  008F  318F  27AA  3180   	fcall	_enter_number_added
  1859                           
  1860                           ;Assignment 71.c: 110:     enter_number_added((unsigned int)(seconds/10));
  1861  0092  300A               	movlw	10
  1862  0093  00F0               	movwf	___lwdiv@divisor
  1863  0094  3000               	movlw	0
  1864  0095  00F1               	movwf	___lwdiv@divisor+1
  1865  0096  0020               	movlb	0	; select bank0
  1866  0097  0850               	movf	enter_digit_total@seconds+1,w
  1867  0098  00F3               	movwf	___lwdiv@dividend+1
  1868  0099  084F               	movf	enter_digit_total@seconds,w
  1869  009A  00F2               	movwf	___lwdiv@dividend
  1870  009B  3180  2042  3180   	fcall	___lwdiv
  1871  009E  0871               	movf	?___lwdiv+1,w
  1872  009F  0020               	movlb	0	; select bank0
  1873  00A0  00CD               	movwf	enter_number_added@n+1
  1874  00A1  0870               	movf	?___lwdiv,w
  1875  00A2  00CC               	movwf	enter_number_added@n
  1876  00A3  318F  27AA  3180   	fcall	_enter_number_added
  1877                           
  1878                           ;Assignment 71.c: 111:     enter_number_added((unsigned int)(minutes%10));
  1879  00A6  300A               	movlw	10
  1880  00A7  00F8               	movwf	___lwmod@divisor
  1881  00A8  3000               	movlw	0
  1882  00A9  00F9               	movwf	___lwmod@divisor+1
  1883  00AA  0020               	movlb	0	; select bank0
  1884  00AB  0852               	movf	enter_digit_total@minutes+1,w
  1885  00AC  00FB               	movwf	___lwmod@dividend+1
  1886  00AD  0851               	movf	enter_digit_total@minutes,w
  1887  00AE  00FA               	movwf	___lwmod@dividend
  1888  00AF  3180  200E  3180   	fcall	___lwmod
  1889  00B2  0879               	movf	?___lwmod+1,w
  1890  00B3  0020               	movlb	0	; select bank0
  1891  00B4  00CD               	movwf	enter_number_added@n+1
  1892  00B5  0878               	movf	?___lwmod,w
  1893  00B6  00CC               	movwf	enter_number_added@n
  1894  00B7  318F  27AA  3180   	fcall	_enter_number_added
  1895                           
  1896                           ;Assignment 71.c: 112:     enter_number_finish((unsigned int)(minutes/10));
  1897  00BA  300A               	movlw	10
  1898  00BB  00F0               	movwf	___lwdiv@divisor
  1899  00BC  3000               	movlw	0
  1900  00BD  00F1               	movwf	___lwdiv@divisor+1
  1901  00BE  0020               	movlb	0	; select bank0
  1902  00BF  0852               	movf	enter_digit_total@minutes+1,w
  1903  00C0  00F3               	movwf	___lwdiv@dividend+1
  1904  00C1  0851               	movf	enter_digit_total@minutes,w
  1905  00C2  00F2               	movwf	___lwdiv@dividend
  1906  00C3  3180  2042  3180   	fcall	___lwdiv
  1907  00C6  0871               	movf	?___lwdiv+1,w
  1908  00C7  0020               	movlb	0	; select bank0
  1909  00C8  00CD               	movwf	enter_number_finish@n+1
  1910  00C9  0870               	movf	?___lwdiv,w
  1911  00CA  00CC               	movwf	enter_number_finish@n
  1912  00CB  318F  27E8  3180   	fcall	_enter_number_finish
  1913  00CE                     l80:
  1914  00CE  0008               	return
  1915  00CF                     __end_of_enter_digit_total:
  1916                           
  1917                           	psect	text4
  1918  0FE8                     __ptext4:	
  1919 ;; *************** function _enter_number_finish *****************
  1920 ;; Defined at:
  1921 ;;		line 90 in file "Assignment 71.c"
  1922 ;; Parameters:    Size  Location     Type
  1923 ;;  n               2   44[BANK0 ] unsigned int 
  1924 ;; Auto vars:     Size  Location     Type
  1925 ;;		None
  1926 ;; Return value:  Size  Location     Type
  1927 ;;                  1    wreg      void 
  1928 ;; Registers used:
  1929 ;;		wreg, status,2, status,0, pclath, cstack
  1930 ;; Tracked objects:
  1931 ;;		On entry : 0/0
  1932 ;;		On exit  : 0/0
  1933 ;;		Unchanged: 0/0
  1934 ;; Data sizes:     COMMON   BANK0   BANK1   BANK2   BANK3   BANK4   BANK5   BANK6
  1935 ;;      Params:         0       2       0       0       0       0       0       0
  1936 ;;      Locals:         0       0       0       0       0       0       0       0
  1937 ;;      Temps:          0       1       0       0       0       0       0       0
  1938 ;;      Totals:         0       3       0       0       0       0       0       0
  1939 ;;Total ram usage:        3 bytes
  1940 ;; Hardware stack levels used: 1
  1941 ;; Hardware stack levels required when called: 3
  1942 ;; This function calls:
  1943 ;;		_display_7segment
  1944 ;;		_latch_pulse
  1945 ;; This function is called by:
  1946 ;;		_enter_total_number
  1947 ;;		_enter_digit_total
  1948 ;; This function uses a non-reentrant model
  1949 ;;
  1950                           
  1951  0FE8                     _enter_number_finish:	
  1952                           ;psect for function _enter_number_finish
  1953                           
  1954  0FE8                     l1210:	
  1955                           ;incstack = 0
  1956                           ; Regs used in _enter_number_finish: [wreg+status,2+status,0+pclath+cstack]
  1957                           
  1958                           
  1959                           ;Assignment 71.c: 91:     display_7segment(n);
  1960  0FE8  0020               	movlb	0	; select bank0
  1961  0FE9  084D               	movf	enter_number_finish@n+1,w
  1962  0FEA  00F7               	movwf	display_7segment@n+1
  1963  0FEB  084C               	movf	enter_number_finish@n,w
  1964  0FEC  00F6               	movwf	display_7segment@n
  1965  0FED  3182  22FB  318F   	fcall	_display_7segment
  1966                           
  1967                           ;Assignment 71.c: 92:     latch_pulse(1);
  1968  0FF0  3001               	movlw	1
  1969  0FF1  00F0               	movwf	latch_pulse@n
  1970  0FF2  3000               	movlw	0
  1971  0FF3  00F1               	movwf	latch_pulse@n+1
  1972  0FF4  318F  27D1  318F   	fcall	_latch_pulse
  1973  0FF7                     l1212:
  1974                           
  1975                           ;Assignment 71.c: 93:     _delay((unsigned long)((70)*(1000000/4000.0)));
  1976  0FF7  3017               	movlw	23
  1977  0FF8  0020               	movlb	0	; select bank0
  1978  0FF9  00CE               	movwf	??_enter_number_finish
  1979  0FFA  30B9               	movlw	185
  1980  0FFB                     u2397:
  1981  0FFB  0B89               	decfsz	9,f
  1982  0FFC  2FFB               	goto	u2397
  1983  0FFD  0BCE               	decfsz	??_enter_number_finish,f
  1984  0FFE  2FFB               	goto	u2397
  1985  0FFF                     l74:
  1986  0FFF  0008               	return
  1987  1000                     __end_of_enter_number_finish:
  1988                           
  1989                           	psect	text5
  1990  0FD1                     __ptext5:	
  1991 ;; *************** function _latch_pulse *****************
  1992 ;; Defined at:
  1993 ;;		line 13 in file "Assignment 71.c"
  1994 ;; Parameters:    Size  Location     Type
  1995 ;;  n               2    0[COMMON] unsigned int 
  1996 ;; Auto vars:     Size  Location     Type
  1997 ;;  i               2    2[COMMON] unsigned int 
  1998 ;; Return value:  Size  Location     Type
  1999 ;;                  1    wreg      void 
  2000 ;; Registers used:
  2001 ;;		wreg, status,2
  2002 ;; Tracked objects:
  2003 ;;		On entry : 0/0
  2004 ;;		On exit  : 0/0
  2005 ;;		Unchanged: 0/0
  2006 ;; Data sizes:     COMMON   BANK0   BANK1   BANK2   BANK3   BANK4   BANK5   BANK6
  2007 ;;      Params:         2       0       0       0       0       0       0       0
  2008 ;;      Locals:         2       0       0       0       0       0       0       0
  2009 ;;      Temps:          0       0       0       0       0       0       0       0
  2010 ;;      Totals:         4       0       0       0       0       0       0       0
  2011 ;;Total ram usage:        4 bytes
  2012 ;; Hardware stack levels used: 1
  2013 ;; This function calls:
  2014 ;;		Nothing
  2015 ;; This function is called by:
  2016 ;;		_enter_number_finish
  2017 ;; This function uses a non-reentrant model
  2018 ;;
  2019                           
  2020  0FD1                     _latch_pulse:	
  2021                           ;psect for function _latch_pulse
  2022                           
  2023  0FD1                     l1164:	
  2024                           ;incstack = 0
  2025                           ; Regs used in _latch_pulse: [wreg+status,2]
  2026                           
  2027                           
  2028                           ;Assignment 71.c: 14:     unsigned int i=0;
  2029  0FD1  01F2               	clrf	latch_pulse@i
  2030  0FD2  01F3               	clrf	latch_pulse@i+1
  2031                           
  2032                           ;Assignment 71.c: 15:     for (i=0 ; i<n ; i++){
  2033  0FD3  01F2               	clrf	latch_pulse@i
  2034  0FD4  01F3               	clrf	latch_pulse@i+1
  2035  0FD5  2FDD               	goto	l37
  2036  0FD6                     l38:
  2037                           
  2038                           ;Assignment 71.c: 16:         LATCbits.LATC2 = 1;
  2039  0FD6  0022               	movlb	2	; select bank2
  2040  0FD7  150E               	bsf	14,2	;volatile
  2041                           
  2042                           ;Assignment 71.c: 17:         LATCbits.LATC2 = 0;
  2043  0FD8  110E               	bcf	14,2	;volatile
  2044  0FD9                     l1166:
  2045                           
  2046                           ;Assignment 71.c: 18:     }
  2047  0FD9  3001               	movlw	1
  2048  0FDA  07F2               	addwf	latch_pulse@i,f
  2049  0FDB  3000               	movlw	0
  2050  0FDC  3DF3               	addwfc	latch_pulse@i+1,f
  2051  0FDD                     l37:
  2052  0FDD  0871               	movf	latch_pulse@n+1,w
  2053  0FDE  0273               	subwf	latch_pulse@i+1,w
  2054  0FDF  1D03               	skipz
  2055  0FE0  2FE3               	goto	u1205
  2056  0FE1  0870               	movf	latch_pulse@n,w
  2057  0FE2  0272               	subwf	latch_pulse@i,w
  2058  0FE3                     u1205:
  2059  0FE3  1C03               	skipc
  2060  0FE4  2FE6               	goto	u1201
  2061  0FE5  2FE7               	goto	u1200
  2062  0FE6                     u1201:
  2063  0FE6  2FD6               	goto	l38
  2064  0FE7                     u1200:
  2065  0FE7                     l40:
  2066  0FE7  0008               	return
  2067  0FE8                     __end_of_latch_pulse:
  2068                           
  2069                           	psect	text6
  2070  0FAA                     __ptext6:	
  2071 ;; *************** function _enter_number_added *****************
  2072 ;; Defined at:
  2073 ;;		line 85 in file "Assignment 71.c"
  2074 ;; Parameters:    Size  Location     Type
  2075 ;;  n               2   44[BANK0 ] unsigned int 
  2076 ;; Auto vars:     Size  Location     Type
  2077 ;;		None
  2078 ;; Return value:  Size  Location     Type
  2079 ;;                  1    wreg      void 
  2080 ;; Registers used:
  2081 ;;		wreg, status,2, status,0, pclath, cstack
  2082 ;; Tracked objects:
  2083 ;;		On entry : 0/0
  2084 ;;		On exit  : 0/0
  2085 ;;		Unchanged: 0/0
  2086 ;; Data sizes:     COMMON   BANK0   BANK1   BANK2   BANK3   BANK4   BANK5   BANK6
  2087 ;;      Params:         0       2       0       0       0       0       0       0
  2088 ;;      Locals:         0       0       0       0       0       0       0       0
  2089 ;;      Temps:          0       0       0       0       0       0       0       0
  2090 ;;      Totals:         0       2       0       0       0       0       0       0
  2091 ;;Total ram usage:        2 bytes
  2092 ;; Hardware stack levels used: 1
  2093 ;; Hardware stack levels required when called: 3
  2094 ;; This function calls:
  2095 ;;		_clk_pulse
  2096 ;;		_display_7segment
  2097 ;; This function is called by:
  2098 ;;		_enter_total_number
  2099 ;;		_enter_digit_total
  2100 ;; This function uses a non-reentrant model
  2101 ;;
  2102                           
  2103  0FAA                     _enter_number_added:	
  2104                           ;psect for function _enter_number_added
  2105                           
  2106  0FAA                     l1208:	
  2107                           ;incstack = 0
  2108                           ; Regs used in _enter_number_added: [wreg+status,2+status,0+pclath+cstack]
  2109                           
  2110                           
  2111                           ;Assignment 71.c: 86:     display_7segment(n);
  2112  0FAA  0020               	movlb	0	; select bank0
  2113  0FAB  084D               	movf	enter_number_added@n+1,w
  2114  0FAC  00F7               	movwf	display_7segment@n+1
  2115  0FAD  084C               	movf	enter_number_added@n,w
  2116  0FAE  00F6               	movwf	display_7segment@n
  2117  0FAF  3182  22FB  318F   	fcall	_display_7segment
  2118                           
  2119                           ;Assignment 71.c: 87:     clk_pulse(1);
  2120  0FB2  3001               	movlw	1
  2121  0FB3  00F0               	movwf	clk_pulse@n
  2122  0FB4  3000               	movlw	0
  2123  0FB5  00F1               	movwf	clk_pulse@n+1
  2124  0FB6  318F  27BA  318F   	fcall	_clk_pulse
  2125  0FB9                     l71:
  2126  0FB9  0008               	return
  2127  0FBA                     __end_of_enter_number_added:
  2128                           
  2129                           	psect	text7
  2130  02FB                     __ptext7:	
  2131 ;; *************** function _display_7segment *****************
  2132 ;; Defined at:
  2133 ;;		line 31 in file "Assignment 71.c"
  2134 ;; Parameters:    Size  Location     Type
  2135 ;;  n               2    6[COMMON] unsigned int 
  2136 ;; Auto vars:     Size  Location     Type
  2137 ;;		None
  2138 ;; Return value:  Size  Location     Type
  2139 ;;                  1    wreg      void 
  2140 ;; Registers used:
  2141 ;;		wreg, status,2, status,0, pclath, cstack
  2142 ;; Tracked objects:
  2143 ;;		On entry : 0/0
  2144 ;;		On exit  : 0/0
  2145 ;;		Unchanged: 0/0
  2146 ;; Data sizes:     COMMON   BANK0   BANK1   BANK2   BANK3   BANK4   BANK5   BANK6
  2147 ;;      Params:         2       0       0       0       0       0       0       0
  2148 ;;      Locals:         0       0       0       0       0       0       0       0
  2149 ;;      Temps:          0       0       0       0       0       0       0       0
  2150 ;;      Totals:         2       0       0       0       0       0       0       0
  2151 ;;Total ram usage:        2 bytes
  2152 ;; Hardware stack levels used: 1
  2153 ;; Hardware stack levels required when called: 2
  2154 ;; This function calls:
  2155 ;;		_Data_pulse_with_0
  2156 ;;		_Data_pulse_with_1
  2157 ;; This function is called by:
  2158 ;;		_enter_number_added
  2159 ;;		_enter_number_finish
  2160 ;; This function uses a non-reentrant model
  2161 ;;
  2162                           
  2163  02FB                     _display_7segment:	
  2164                           ;psect for function _display_7segment
  2165                           
  2166  02FB                     l1168:	
  2167                           ;incstack = 0
  2168                           ; Regs used in _display_7segment: [wreg+status,2+status,0+pclath+cstack]
  2169                           
  2170                           
  2171                           ;Assignment 71.c: 32:     if (n==0){
  2172  02FB  0876               	movf	display_7segment@n,w
  2173  02FC  0477               	iorwf	display_7segment@n+1,w
  2174  02FD  1D03               	btfss	3,2
  2175  02FE  2B00               	goto	u1211
  2176  02FF  2B01               	goto	u1210
  2177  0300                     u1211:
  2178  0300  2B10               	goto	l1172
  2179  0301                     u1210:
  2180  0301                     l1170:
  2181                           
  2182                           ;Assignment 71.c: 33:         Data_pulse_with_1(1);
  2183  0301  3001               	movlw	1
  2184  0302  00F4               	movwf	Data_pulse_with_1@n
  2185  0303  3000               	movlw	0
  2186  0304  00F5               	movwf	Data_pulse_with_1@n+1
  2187  0305  3180  2004  3182   	fcall	_Data_pulse_with_1
  2188                           
  2189                           ;Assignment 71.c: 34:         Data_pulse_with_0(6);
  2190  0308  3006               	movlw	6
  2191  0309  00F4               	movwf	Data_pulse_with_0@n
  2192  030A  3000               	movlw	0
  2193  030B  00F5               	movwf	Data_pulse_with_0@n+1
  2194  030C  318F  27A0  3182   	fcall	_Data_pulse_with_0
  2195                           
  2196                           ;Assignment 71.c: 35:     }
  2197  030F  2C22               	goto	l68
  2198  0310                     l1172:
  2199  0310  0376               	decf	display_7segment@n,w
  2200  0311  0477               	iorwf	display_7segment@n+1,w
  2201  0312  1D03               	btfss	3,2
  2202  0313  2B15               	goto	u1221
  2203  0314  2B16               	goto	u1220
  2204  0315                     u1221:
  2205  0315  2B2C               	goto	l1176
  2206  0316                     u1220:
  2207  0316                     l1174:
  2208                           
  2209                           ;Assignment 71.c: 37:         Data_pulse_with_1(4);
  2210  0316  3004               	movlw	4
  2211  0317  00F4               	movwf	Data_pulse_with_1@n
  2212  0318  3000               	movlw	0
  2213  0319  00F5               	movwf	Data_pulse_with_1@n+1
  2214  031A  3180  2004  3182   	fcall	_Data_pulse_with_1
  2215                           
  2216                           ;Assignment 71.c: 38:         Data_pulse_with_0(2);
  2217  031D  3002               	movlw	2
  2218  031E  00F4               	movwf	Data_pulse_with_0@n
  2219  031F  3000               	movlw	0
  2220  0320  00F5               	movwf	Data_pulse_with_0@n+1
  2221  0321  318F  27A0  3182   	fcall	_Data_pulse_with_0
  2222                           
  2223                           ;Assignment 71.c: 39:         Data_pulse_with_1(1);
  2224  0324  3001               	movlw	1
  2225  0325  00F4               	movwf	Data_pulse_with_1@n
  2226  0326  3000               	movlw	0
  2227  0327  00F5               	movwf	Data_pulse_with_1@n+1
  2228  0328  3180  2004  3182   	fcall	_Data_pulse_with_1
  2229                           
  2230                           ;Assignment 71.c: 40:     }
  2231  032B  2C22               	goto	l68
  2232  032C                     l1176:
  2233  032C  3002               	movlw	2
  2234  032D  0676               	xorwf	display_7segment@n,w
  2235  032E  0477               	iorwf	display_7segment@n+1,w
  2236  032F  1D03               	btfss	3,2
  2237  0330  2B32               	goto	u1231
  2238  0331  2B33               	goto	u1230
  2239  0332                     u1231:
  2240  0332  2B57               	goto	l1180
  2241  0333                     u1230:
  2242  0333                     l1178:
  2243                           
  2244                           ;Assignment 71.c: 42:         Data_pulse_with_0(1);
  2245  0333  3001               	movlw	1
  2246  0334  00F4               	movwf	Data_pulse_with_0@n
  2247  0335  3000               	movlw	0
  2248  0336  00F5               	movwf	Data_pulse_with_0@n+1
  2249  0337  318F  27A0  3182   	fcall	_Data_pulse_with_0
  2250                           
  2251                           ;Assignment 71.c: 43:         Data_pulse_with_1(1);
  2252  033A  3001               	movlw	1
  2253  033B  00F4               	movwf	Data_pulse_with_1@n
  2254  033C  3000               	movlw	0
  2255  033D  00F5               	movwf	Data_pulse_with_1@n+1
  2256  033E  3180  2004  3182   	fcall	_Data_pulse_with_1
  2257                           
  2258                           ;Assignment 71.c: 44:         Data_pulse_with_0(2);
  2259  0341  3002               	movlw	2
  2260  0342  00F4               	movwf	Data_pulse_with_0@n
  2261  0343  3000               	movlw	0
  2262  0344  00F5               	movwf	Data_pulse_with_0@n+1
  2263  0345  318F  27A0  3182   	fcall	_Data_pulse_with_0
  2264                           
  2265                           ;Assignment 71.c: 45:         Data_pulse_with_1(1);
  2266  0348  3001               	movlw	1
  2267  0349  00F4               	movwf	Data_pulse_with_1@n
  2268  034A  3000               	movlw	0
  2269  034B  00F5               	movwf	Data_pulse_with_1@n+1
  2270  034C  3180  2004  3182   	fcall	_Data_pulse_with_1
  2271                           
  2272                           ;Assignment 71.c: 46:         Data_pulse_with_0(2);
  2273  034F  3002               	movlw	2
  2274  0350  00F4               	movwf	Data_pulse_with_0@n
  2275  0351  3000               	movlw	0
  2276  0352  00F5               	movwf	Data_pulse_with_0@n+1
  2277  0353  318F  27A0  3182   	fcall	_Data_pulse_with_0
  2278                           
  2279                           ;Assignment 71.c: 47:     }
  2280  0356  2C22               	goto	l68
  2281  0357                     l1180:
  2282  0357  3003               	movlw	3
  2283  0358  0676               	xorwf	display_7segment@n,w
  2284  0359  0477               	iorwf	display_7segment@n+1,w
  2285  035A  1D03               	btfss	3,2
  2286  035B  2B5D               	goto	u1241
  2287  035C  2B5E               	goto	u1240
  2288  035D                     u1241:
  2289  035D  2B74               	goto	l1184
  2290  035E                     u1240:
  2291  035E                     l1182:
  2292                           
  2293                           ;Assignment 71.c: 49:         Data_pulse_with_0(1);
  2294  035E  3001               	movlw	1
  2295  035F  00F4               	movwf	Data_pulse_with_0@n
  2296  0360  3000               	movlw	0
  2297  0361  00F5               	movwf	Data_pulse_with_0@n+1
  2298  0362  318F  27A0  3182   	fcall	_Data_pulse_with_0
  2299                           
  2300                           ;Assignment 71.c: 50:         Data_pulse_with_1(2);
  2301  0365  3002               	movlw	2
  2302  0366  00F4               	movwf	Data_pulse_with_1@n
  2303  0367  3000               	movlw	0
  2304  0368  00F5               	movwf	Data_pulse_with_1@n+1
  2305  0369  3180  2004  3182   	fcall	_Data_pulse_with_1
  2306                           
  2307                           ;Assignment 71.c: 51:         Data_pulse_with_0(4);
  2308  036C  3004               	movlw	4
  2309  036D  00F4               	movwf	Data_pulse_with_0@n
  2310  036E  3000               	movlw	0
  2311  036F  00F5               	movwf	Data_pulse_with_0@n+1
  2312  0370  318F  27A0  3182   	fcall	_Data_pulse_with_0
  2313                           
  2314                           ;Assignment 71.c: 52:     }
  2315  0373  2C22               	goto	l68
  2316  0374                     l1184:
  2317  0374  3004               	movlw	4
  2318  0375  0676               	xorwf	display_7segment@n,w
  2319  0376  0477               	iorwf	display_7segment@n+1,w
  2320  0377  1D03               	btfss	3,2
  2321  0378  2B7A               	goto	u1251
  2322  0379  2B7B               	goto	u1250
  2323  037A                     u1251:
  2324  037A  2B98               	goto	l1188
  2325  037B                     u1250:
  2326  037B                     l1186:
  2327                           
  2328                           ;Assignment 71.c: 54:         Data_pulse_with_0(2);
  2329  037B  3002               	movlw	2
  2330  037C  00F4               	movwf	Data_pulse_with_0@n
  2331  037D  3000               	movlw	0
  2332  037E  00F5               	movwf	Data_pulse_with_0@n+1
  2333  037F  318F  27A0  3182   	fcall	_Data_pulse_with_0
  2334                           
  2335                           ;Assignment 71.c: 55:         Data_pulse_with_1(2);
  2336  0382  3002               	movlw	2
  2337  0383  00F4               	movwf	Data_pulse_with_1@n
  2338  0384  3000               	movlw	0
  2339  0385  00F5               	movwf	Data_pulse_with_1@n+1
  2340  0386  3180  2004  3182   	fcall	_Data_pulse_with_1
  2341                           
  2342                           ;Assignment 71.c: 56:         Data_pulse_with_0(2);
  2343  0389  3002               	movlw	2
  2344  038A  00F4               	movwf	Data_pulse_with_0@n
  2345  038B  3000               	movlw	0
  2346  038C  00F5               	movwf	Data_pulse_with_0@n+1
  2347  038D  318F  27A0  3182   	fcall	_Data_pulse_with_0
  2348                           
  2349                           ;Assignment 71.c: 57:         Data_pulse_with_1(1);
  2350  0390  3001               	movlw	1
  2351  0391  00F4               	movwf	Data_pulse_with_1@n
  2352  0392  3000               	movlw	0
  2353  0393  00F5               	movwf	Data_pulse_with_1@n+1
  2354  0394  3180  2004  3182   	fcall	_Data_pulse_with_1
  2355                           
  2356                           ;Assignment 71.c: 58:     }
  2357  0397  2C22               	goto	l68
  2358  0398                     l1188:
  2359  0398  3005               	movlw	5
  2360  0399  0676               	xorwf	display_7segment@n,w
  2361  039A  0477               	iorwf	display_7segment@n+1,w
  2362  039B  1D03               	btfss	3,2
  2363  039C  2B9E               	goto	u1261
  2364  039D  2B9F               	goto	u1260
  2365  039E                     u1261:
  2366  039E  2BC3               	goto	l1192
  2367  039F                     u1260:
  2368  039F                     l1190:
  2369                           
  2370                           ;Assignment 71.c: 60:         Data_pulse_with_0(2);
  2371  039F  3002               	movlw	2
  2372  03A0  00F4               	movwf	Data_pulse_with_0@n
  2373  03A1  3000               	movlw	0
  2374  03A2  00F5               	movwf	Data_pulse_with_0@n+1
  2375  03A3  318F  27A0  3182   	fcall	_Data_pulse_with_0
  2376                           
  2377                           ;Assignment 71.c: 61:         Data_pulse_with_1(1);
  2378  03A6  3001               	movlw	1
  2379  03A7  00F4               	movwf	Data_pulse_with_1@n
  2380  03A8  3000               	movlw	0
  2381  03A9  00F5               	movwf	Data_pulse_with_1@n+1
  2382  03AA  3180  2004  3182   	fcall	_Data_pulse_with_1
  2383                           
  2384                           ;Assignment 71.c: 62:         Data_pulse_with_0(2);
  2385  03AD  3002               	movlw	2
  2386  03AE  00F4               	movwf	Data_pulse_with_0@n
  2387  03AF  3000               	movlw	0
  2388  03B0  00F5               	movwf	Data_pulse_with_0@n+1
  2389  03B1  318F  27A0  3182   	fcall	_Data_pulse_with_0
  2390                           
  2391                           ;Assignment 71.c: 63:         Data_pulse_with_1(1);
  2392  03B4  3001               	movlw	1
  2393  03B5  00F4               	movwf	Data_pulse_with_1@n
  2394  03B6  3000               	movlw	0
  2395  03B7  00F5               	movwf	Data_pulse_with_1@n+1
  2396  03B8  3180  2004  3182   	fcall	_Data_pulse_with_1
  2397                           
  2398                           ;Assignment 71.c: 64:         Data_pulse_with_0(1);
  2399  03BB  3001               	movlw	1
  2400  03BC  00F4               	movwf	Data_pulse_with_0@n
  2401  03BD  3000               	movlw	0
  2402  03BE  00F5               	movwf	Data_pulse_with_0@n+1
  2403  03BF  318F  27A0  3182   	fcall	_Data_pulse_with_0
  2404                           
  2405                           ;Assignment 71.c: 65:     }
  2406  03C2  2C22               	goto	l68
  2407  03C3                     l1192:
  2408  03C3  3006               	movlw	6
  2409  03C4  0676               	xorwf	display_7segment@n,w
  2410  03C5  0477               	iorwf	display_7segment@n+1,w
  2411  03C6  1D03               	btfss	3,2
  2412  03C7  2BC9               	goto	u1271
  2413  03C8  2BCA               	goto	u1270
  2414  03C9                     u1271:
  2415  03C9  2BE0               	goto	l1196
  2416  03CA                     u1270:
  2417  03CA                     l1194:
  2418                           
  2419                           ;Assignment 71.c: 67:         Data_pulse_with_0(5);
  2420  03CA  3005               	movlw	5
  2421  03CB  00F4               	movwf	Data_pulse_with_0@n
  2422  03CC  3000               	movlw	0
  2423  03CD  00F5               	movwf	Data_pulse_with_0@n+1
  2424  03CE  318F  27A0  3182   	fcall	_Data_pulse_with_0
  2425                           
  2426                           ;Assignment 71.c: 68:         Data_pulse_with_1(1);
  2427  03D1  3001               	movlw	1
  2428  03D2  00F4               	movwf	Data_pulse_with_1@n
  2429  03D3  3000               	movlw	0
  2430  03D4  00F5               	movwf	Data_pulse_with_1@n+1
  2431  03D5  3180  2004  3182   	fcall	_Data_pulse_with_1
  2432                           
  2433                           ;Assignment 71.c: 69:         Data_pulse_with_0(1);
  2434  03D8  3001               	movlw	1
  2435  03D9  00F4               	movwf	Data_pulse_with_0@n
  2436  03DA  3000               	movlw	0
  2437  03DB  00F5               	movwf	Data_pulse_with_0@n+1
  2438  03DC  318F  27A0  3182   	fcall	_Data_pulse_with_0
  2439                           
  2440                           ;Assignment 71.c: 70:     }
  2441  03DF  2C22               	goto	l68
  2442  03E0                     l1196:
  2443  03E0  3007               	movlw	7
  2444  03E1  0676               	xorwf	display_7segment@n,w
  2445  03E2  0477               	iorwf	display_7segment@n+1,w
  2446  03E3  1D03               	btfss	3,2
  2447  03E4  2BE6               	goto	u1281
  2448  03E5  2BE7               	goto	u1280
  2449  03E6                     u1281:
  2450  03E6  2BF6               	goto	l1200
  2451  03E7                     u1280:
  2452  03E7                     l1198:
  2453                           
  2454                           ;Assignment 71.c: 72:         Data_pulse_with_1(4);
  2455  03E7  3004               	movlw	4
  2456  03E8  00F4               	movwf	Data_pulse_with_1@n
  2457  03E9  3000               	movlw	0
  2458  03EA  00F5               	movwf	Data_pulse_with_1@n+1
  2459  03EB  3180  2004  3182   	fcall	_Data_pulse_with_1
  2460                           
  2461                           ;Assignment 71.c: 73:         Data_pulse_with_0(3);
  2462  03EE  3003               	movlw	3
  2463  03EF  00F4               	movwf	Data_pulse_with_0@n
  2464  03F0  3000               	movlw	0
  2465  03F1  00F5               	movwf	Data_pulse_with_0@n+1
  2466  03F2  318F  27A0  3182   	fcall	_Data_pulse_with_0
  2467                           
  2468                           ;Assignment 71.c: 74:     }
  2469  03F5  2C22               	goto	l68
  2470  03F6                     l1200:
  2471  03F6  3008               	movlw	8
  2472  03F7  0676               	xorwf	display_7segment@n,w
  2473  03F8  0477               	iorwf	display_7segment@n+1,w
  2474  03F9  1D03               	btfss	3,2
  2475  03FA  2BFC               	goto	u1291
  2476  03FB  2BFD               	goto	u1290
  2477  03FC                     u1291:
  2478  03FC  2C05               	goto	l1204
  2479  03FD                     u1290:
  2480  03FD                     l1202:
  2481                           
  2482                           ;Assignment 71.c: 76:         Data_pulse_with_0(7);
  2483  03FD  3007               	movlw	7
  2484  03FE  00F4               	movwf	Data_pulse_with_0@n
  2485  03FF  3000               	movlw	0
  2486  0400  00F5               	movwf	Data_pulse_with_0@n+1
  2487  0401  318F  27A0  3182   	fcall	_Data_pulse_with_0
  2488                           
  2489                           ;Assignment 71.c: 77:     }
  2490  0404  2C22               	goto	l68
  2491  0405                     l1204:
  2492  0405  3009               	movlw	9
  2493  0406  0676               	xorwf	display_7segment@n,w
  2494  0407  0477               	iorwf	display_7segment@n+1,w
  2495  0408  1D03               	btfss	3,2
  2496  0409  2C0B               	goto	u1301
  2497  040A  2C0C               	goto	u1300
  2498  040B                     u1301:
  2499  040B  2C22               	goto	l62
  2500  040C                     u1300:
  2501  040C                     l1206:
  2502                           
  2503                           ;Assignment 71.c: 79:         Data_pulse_with_0(2);
  2504  040C  3002               	movlw	2
  2505  040D  00F4               	movwf	Data_pulse_with_0@n
  2506  040E  3000               	movlw	0
  2507  040F  00F5               	movwf	Data_pulse_with_0@n+1
  2508  0410  318F  27A0  3182   	fcall	_Data_pulse_with_0
  2509                           
  2510                           ;Assignment 71.c: 80:         Data_pulse_with_1(1);
  2511  0413  3001               	movlw	1
  2512  0414  00F4               	movwf	Data_pulse_with_1@n
  2513  0415  3000               	movlw	0
  2514  0416  00F5               	movwf	Data_pulse_with_1@n+1
  2515  0417  3180  2004  3182   	fcall	_Data_pulse_with_1
  2516                           
  2517                           ;Assignment 71.c: 81:         Data_pulse_with_0(4);
  2518  041A  3004               	movlw	4
  2519  041B  00F4               	movwf	Data_pulse_with_0@n
  2520  041C  3000               	movlw	0
  2521  041D  00F5               	movwf	Data_pulse_with_0@n+1
  2522  041E  318F  27A0  3182   	fcall	_Data_pulse_with_0
  2523  0421  2C22               	goto	l68
  2524  0422                     l62:
  2525  0422                     l68:
  2526  0422  0008               	return
  2527  0423                     __end_of_display_7segment:
  2528                           
  2529                           	psect	text8
  2530  0004                     __ptext8:	
  2531 ;; *************** function _Data_pulse_with_1 *****************
  2532 ;; Defined at:
  2533 ;;		line 21 in file "Assignment 71.c"
  2534 ;; Parameters:    Size  Location     Type
  2535 ;;  n               2    4[COMMON] unsigned int 
  2536 ;; Auto vars:     Size  Location     Type
  2537 ;;		None
  2538 ;; Return value:  Size  Location     Type
  2539 ;;                  1    wreg      void 
  2540 ;; Registers used:
  2541 ;;		wreg, status,2, status,0, pclath, cstack
  2542 ;; Tracked objects:
  2543 ;;		On entry : 0/0
  2544 ;;		On exit  : 0/0
  2545 ;;		Unchanged: 0/0
  2546 ;; Data sizes:     COMMON   BANK0   BANK1   BANK2   BANK3   BANK4   BANK5   BANK6
  2547 ;;      Params:         2       0       0       0       0       0       0       0
  2548 ;;      Locals:         0       0       0       0       0       0       0       0
  2549 ;;      Temps:          0       0       0       0       0       0       0       0
  2550 ;;      Totals:         2       0       0       0       0       0       0       0
  2551 ;;Total ram usage:        2 bytes
  2552 ;; Hardware stack levels used: 1
  2553 ;; Hardware stack levels required when called: 1
  2554 ;; This function calls:
  2555 ;;		_clk_pulse
  2556 ;; This function is called by:
  2557 ;;		_display_7segment
  2558 ;; This function uses a non-reentrant model
  2559 ;;
  2560                           
  2561  0004                     _Data_pulse_with_1:	
  2562                           ;psect for function _Data_pulse_with_1
  2563                           
  2564  0004                     l1156:	
  2565                           ;incstack = 0
  2566                           ; Regs used in _Data_pulse_with_1: [wreg+status,2+status,0+pclath+cstack]
  2567                           
  2568                           
  2569                           ;Assignment 71.c: 22:     LATCbits.LATC1 = 1;
  2570  0004  0022               	movlb	2	; select bank2
  2571  0005  148E               	bsf	14,1	;volatile
  2572  0006                     l1158:
  2573                           
  2574                           ;Assignment 71.c: 23:     clk_pulse(n);
  2575  0006  0875               	movf	Data_pulse_with_1@n+1,w
  2576  0007  00F1               	movwf	clk_pulse@n+1
  2577  0008  0874               	movf	Data_pulse_with_1@n,w
  2578  0009  00F0               	movwf	clk_pulse@n
  2579  000A  318F  27BA  3180   	fcall	_clk_pulse
  2580  000D                     l43:
  2581  000D  0008               	return
  2582  000E                     __end_of_Data_pulse_with_1:
  2583                           
  2584                           	psect	text9
  2585  0FA0                     __ptext9:	
  2586 ;; *************** function _Data_pulse_with_0 *****************
  2587 ;; Defined at:
  2588 ;;		line 26 in file "Assignment 71.c"
  2589 ;; Parameters:    Size  Location     Type
  2590 ;;  n               2    4[COMMON] unsigned int 
  2591 ;; Auto vars:     Size  Location     Type
  2592 ;;		None
  2593 ;; Return value:  Size  Location     Type
  2594 ;;                  1    wreg      void 
  2595 ;; Registers used:
  2596 ;;		wreg, status,2, status,0, pclath, cstack
  2597 ;; Tracked objects:
  2598 ;;		On entry : 0/0
  2599 ;;		On exit  : 0/0
  2600 ;;		Unchanged: 0/0
  2601 ;; Data sizes:     COMMON   BANK0   BANK1   BANK2   BANK3   BANK4   BANK5   BANK6
  2602 ;;      Params:         2       0       0       0       0       0       0       0
  2603 ;;      Locals:         0       0       0       0       0       0       0       0
  2604 ;;      Temps:          0       0       0       0       0       0       0       0
  2605 ;;      Totals:         2       0       0       0       0       0       0       0
  2606 ;;Total ram usage:        2 bytes
  2607 ;; Hardware stack levels used: 1
  2608 ;; Hardware stack levels required when called: 1
  2609 ;; This function calls:
  2610 ;;		_clk_pulse
  2611 ;; This function is called by:
  2612 ;;		_display_7segment
  2613 ;; This function uses a non-reentrant model
  2614 ;;
  2615                           
  2616  0FA0                     _Data_pulse_with_0:	
  2617                           ;psect for function _Data_pulse_with_0
  2618                           
  2619  0FA0                     l1160:	
  2620                           ;incstack = 0
  2621                           ; Regs used in _Data_pulse_with_0: [wreg+status,2+status,0+pclath+cstack]
  2622                           
  2623                           
  2624                           ;Assignment 71.c: 27:     LATCbits.LATC1 = 0;
  2625  0FA0  0022               	movlb	2	; select bank2
  2626  0FA1  108E               	bcf	14,1	;volatile
  2627  0FA2                     l1162:
  2628                           
  2629                           ;Assignment 71.c: 28:     clk_pulse(n);
  2630  0FA2  0875               	movf	Data_pulse_with_0@n+1,w
  2631  0FA3  00F1               	movwf	clk_pulse@n+1
  2632  0FA4  0874               	movf	Data_pulse_with_0@n,w
  2633  0FA5  00F0               	movwf	clk_pulse@n
  2634  0FA6  318F  27BA  318F   	fcall	_clk_pulse
  2635  0FA9                     l46:
  2636  0FA9  0008               	return
  2637  0FAA                     __end_of_Data_pulse_with_0:
  2638                           
  2639                           	psect	text10
  2640  0FBA                     __ptext10:	
  2641 ;; *************** function _clk_pulse *****************
  2642 ;; Defined at:
  2643 ;;		line 5 in file "Assignment 71.c"
  2644 ;; Parameters:    Size  Location     Type
  2645 ;;  n               2    0[COMMON] unsigned int 
  2646 ;; Auto vars:     Size  Location     Type
  2647 ;;  i               2    2[COMMON] unsigned int 
  2648 ;; Return value:  Size  Location     Type
  2649 ;;                  1    wreg      void 
  2650 ;; Registers used:
  2651 ;;		wreg, status,2
  2652 ;; Tracked objects:
  2653 ;;		On entry : 0/0
  2654 ;;		On exit  : 0/0
  2655 ;;		Unchanged: 0/0
  2656 ;; Data sizes:     COMMON   BANK0   BANK1   BANK2   BANK3   BANK4   BANK5   BANK6
  2657 ;;      Params:         2       0       0       0       0       0       0       0
  2658 ;;      Locals:         2       0       0       0       0       0       0       0
  2659 ;;      Temps:          0       0       0       0       0       0       0       0
  2660 ;;      Totals:         4       0       0       0       0       0       0       0
  2661 ;;Total ram usage:        4 bytes
  2662 ;; Hardware stack levels used: 1
  2663 ;; This function calls:
  2664 ;;		Nothing
  2665 ;; This function is called by:
  2666 ;;		_Data_pulse_with_1
  2667 ;;		_Data_pulse_with_0
  2668 ;;		_enter_number_added
  2669 ;; This function uses a non-reentrant model
  2670 ;;
  2671                           
  2672  0FBA                     _clk_pulse:	
  2673                           ;psect for function _clk_pulse
  2674                           
  2675  0FBA                     l1152:	
  2676                           ;incstack = 0
  2677                           ; Regs used in _clk_pulse: [wreg+status,2]
  2678                           
  2679                           
  2680                           ;Assignment 71.c: 6:     unsigned int i=0;
  2681  0FBA  01F2               	clrf	clk_pulse@i
  2682  0FBB  01F3               	clrf	clk_pulse@i+1
  2683                           
  2684                           ;Assignment 71.c: 7:     for (i=0 ; i<n ; i++){
  2685  0FBC  01F2               	clrf	clk_pulse@i
  2686  0FBD  01F3               	clrf	clk_pulse@i+1
  2687  0FBE  2FC6               	goto	l31
  2688  0FBF                     l32:
  2689                           
  2690                           ;Assignment 71.c: 8:         LATCbits.LATC0 = 1;
  2691  0FBF  0022               	movlb	2	; select bank2
  2692  0FC0  140E               	bsf	14,0	;volatile
  2693                           
  2694                           ;Assignment 71.c: 9:         LATCbits.LATC0 = 0;
  2695  0FC1  100E               	bcf	14,0	;volatile
  2696  0FC2                     l1154:
  2697                           
  2698                           ;Assignment 71.c: 10:     }
  2699  0FC2  3001               	movlw	1
  2700  0FC3  07F2               	addwf	clk_pulse@i,f
  2701  0FC4  3000               	movlw	0
  2702  0FC5  3DF3               	addwfc	clk_pulse@i+1,f
  2703  0FC6                     l31:
  2704  0FC6  0871               	movf	clk_pulse@n+1,w
  2705  0FC7  0273               	subwf	clk_pulse@i+1,w
  2706  0FC8  1D03               	skipz
  2707  0FC9  2FCC               	goto	u1195
  2708  0FCA  0870               	movf	clk_pulse@n,w
  2709  0FCB  0272               	subwf	clk_pulse@i,w
  2710  0FCC                     u1195:
  2711  0FCC  1C03               	skipc
  2712  0FCD  2FCF               	goto	u1191
  2713  0FCE  2FD0               	goto	u1190
  2714  0FCF                     u1191:
  2715  0FCF  2FBF               	goto	l32
  2716  0FD0                     u1190:
  2717  0FD0                     l34:
  2718  0FD0  0008               	return
  2719  0FD1                     __end_of_clk_pulse:
  2720                           
  2721                           	psect	text11
  2722  000E                     __ptext11:	
  2723 ;; *************** function ___lwmod *****************
  2724 ;; Defined at:
  2725 ;;		line 5 in file "C:\Program Files\Microchip\xc8\v2.36\pic\sources\c99\common\lwmod.c"
  2726 ;; Parameters:    Size  Location     Type
  2727 ;;  divisor         2    8[COMMON] unsigned int 
  2728 ;;  dividend        2   10[COMMON] unsigned int 
  2729 ;; Auto vars:     Size  Location     Type
  2730 ;;  counter         1   13[COMMON] unsigned char 
  2731 ;; Return value:  Size  Location     Type
  2732 ;;                  2    8[COMMON] unsigned int 
  2733 ;; Registers used:
  2734 ;;		wreg, status,2, status,0
  2735 ;; Tracked objects:
  2736 ;;		On entry : 0/0
  2737 ;;		On exit  : 0/0
  2738 ;;		Unchanged: 0/0
  2739 ;; Data sizes:     COMMON   BANK0   BANK1   BANK2   BANK3   BANK4   BANK5   BANK6
  2740 ;;      Params:         4       0       0       0       0       0       0       0
  2741 ;;      Locals:         1       0       0       0       0       0       0       0
  2742 ;;      Temps:          1       0       0       0       0       0       0       0
  2743 ;;      Totals:         6       0       0       0       0       0       0       0
  2744 ;;Total ram usage:        6 bytes
  2745 ;; Hardware stack levels used: 1
  2746 ;; This function calls:
  2747 ;;		Nothing
  2748 ;; This function is called by:
  2749 ;;		_enter_total_number
  2750 ;;		_enter_digit_total
  2751 ;; This function uses a non-reentrant model
  2752 ;;
  2753                           
  2754  000E                     ___lwmod:	
  2755                           ;psect for function ___lwmod
  2756                           
  2757  000E                     l1278:	
  2758                           ;incstack = 0
  2759                           ; Regs used in ___lwmod: [wreg+status,2+status,0]
  2760                           
  2761  000E  0878               	movf	___lwmod@divisor,w
  2762  000F  0479               	iorwf	___lwmod@divisor+1,w
  2763  0010  1903               	btfsc	3,2
  2764  0011  2813               	goto	u1471
  2765  0012  2814               	goto	u1470
  2766  0013                     u1471:
  2767  0013  283D               	goto	l1296
  2768  0014                     u1470:
  2769  0014                     l1280:
  2770  0014  01FD               	clrf	___lwmod@counter
  2771  0015  0AFD               	incf	___lwmod@counter,f
  2772  0016  2820               	goto	l1286
  2773  0017                     l1282:
  2774  0017  3001               	movlw	1
  2775  0018                     u1485:
  2776  0018  35F8               	lslf	___lwmod@divisor,f
  2777  0019  0DF9               	rlf	___lwmod@divisor+1,f
  2778  001A  0B89               	decfsz	9,f
  2779  001B  2818               	goto	u1485
  2780  001C                     l1284:
  2781  001C  3001               	movlw	1
  2782  001D  00FC               	movwf	??___lwmod
  2783  001E  087C               	movf	??___lwmod,w
  2784  001F  07FD               	addwf	___lwmod@counter,f
  2785  0020                     l1286:
  2786  0020  1FF9               	btfss	___lwmod@divisor+1,7
  2787  0021  2823               	goto	u1491
  2788  0022  2824               	goto	u1490
  2789  0023                     u1491:
  2790  0023  2817               	goto	l1282
  2791  0024                     u1490:
  2792  0024                     l1288:
  2793  0024  0879               	movf	___lwmod@divisor+1,w
  2794  0025  027B               	subwf	___lwmod@dividend+1,w
  2795  0026  1D03               	skipz
  2796  0027  282A               	goto	u1505
  2797  0028  0878               	movf	___lwmod@divisor,w
  2798  0029  027A               	subwf	___lwmod@dividend,w
  2799  002A                     u1505:
  2800  002A  1C03               	skipc
  2801  002B  282D               	goto	u1501
  2802  002C  282E               	goto	u1500
  2803  002D                     u1501:
  2804  002D  2832               	goto	l1292
  2805  002E                     u1500:
  2806  002E                     l1290:
  2807  002E  0878               	movf	___lwmod@divisor,w
  2808  002F  02FA               	subwf	___lwmod@dividend,f
  2809  0030  0879               	movf	___lwmod@divisor+1,w
  2810  0031  3BFB               	subwfb	___lwmod@dividend+1,f
  2811  0032                     l1292:
  2812  0032  3001               	movlw	1
  2813  0033                     u1515:
  2814  0033  36F9               	lsrf	___lwmod@divisor+1,f
  2815  0034  0CF8               	rrf	___lwmod@divisor,f
  2816  0035  0B89               	decfsz	9,f
  2817  0036  2833               	goto	u1515
  2818  0037                     l1294:
  2819  0037  3001               	movlw	1
  2820  0038  02FD               	subwf	___lwmod@counter,f
  2821  0039  1D03               	btfss	3,2
  2822  003A  283C               	goto	u1521
  2823  003B  283D               	goto	u1520
  2824  003C                     u1521:
  2825  003C  2824               	goto	l1288
  2826  003D                     u1520:
  2827  003D                     l1296:
  2828  003D  087B               	movf	___lwmod@dividend+1,w
  2829  003E  00F9               	movwf	?___lwmod+1
  2830  003F  087A               	movf	___lwmod@dividend,w
  2831  0040  00F8               	movwf	?___lwmod
  2832  0041                     l470:
  2833  0041  0008               	return
  2834  0042                     __end_of___lwmod:
  2835                           
  2836                           	psect	text12
  2837  0042                     __ptext12:	
  2838 ;; *************** function ___lwdiv *****************
  2839 ;; Defined at:
  2840 ;;		line 5 in file "C:\Program Files\Microchip\xc8\v2.36\pic\sources\c99\common\lwdiv.c"
  2841 ;; Parameters:    Size  Location     Type
  2842 ;;  divisor         2    0[COMMON] unsigned int 
  2843 ;;  dividend        2    2[COMMON] unsigned int 
  2844 ;; Auto vars:     Size  Location     Type
  2845 ;;  quotient        2    5[COMMON] unsigned int 
  2846 ;;  counter         1    7[COMMON] unsigned char 
  2847 ;; Return value:  Size  Location     Type
  2848 ;;                  2    0[COMMON] unsigned int 
  2849 ;; Registers used:
  2850 ;;		wreg, status,2, status,0
  2851 ;; Tracked objects:
  2852 ;;		On entry : 0/0
  2853 ;;		On exit  : 0/0
  2854 ;;		Unchanged: 0/0
  2855 ;; Data sizes:     COMMON   BANK0   BANK1   BANK2   BANK3   BANK4   BANK5   BANK6
  2856 ;;      Params:         4       0       0       0       0       0       0       0
  2857 ;;      Locals:         3       0       0       0       0       0       0       0
  2858 ;;      Temps:          1       0       0       0       0       0       0       0
  2859 ;;      Totals:         8       0       0       0       0       0       0       0
  2860 ;;Total ram usage:        8 bytes
  2861 ;; Hardware stack levels used: 1
  2862 ;; This function calls:
  2863 ;;		Nothing
  2864 ;; This function is called by:
  2865 ;;		_enter_total_number
  2866 ;;		_enter_digit_total
  2867 ;; This function uses a non-reentrant model
  2868 ;;
  2869                           
  2870  0042                     ___lwdiv:	
  2871                           ;psect for function ___lwdiv
  2872                           
  2873  0042                     l1252:	
  2874                           ;incstack = 0
  2875                           ; Regs used in ___lwdiv: [wreg+status,2+status,0]
  2876                           
  2877  0042  01F5               	clrf	___lwdiv@quotient
  2878  0043  01F6               	clrf	___lwdiv@quotient+1
  2879  0044                     l1254:
  2880  0044  0870               	movf	___lwdiv@divisor,w
  2881  0045  0471               	iorwf	___lwdiv@divisor+1,w
  2882  0046  1903               	btfsc	3,2
  2883  0047  2849               	goto	u1401
  2884  0048  284A               	goto	u1400
  2885  0049                     u1401:
  2886  0049  2879               	goto	l1274
  2887  004A                     u1400:
  2888  004A                     l1256:
  2889  004A  01F7               	clrf	___lwdiv@counter
  2890  004B  0AF7               	incf	___lwdiv@counter,f
  2891  004C  2856               	goto	l1262
  2892  004D                     l1258:
  2893  004D  3001               	movlw	1
  2894  004E                     u1415:
  2895  004E  35F0               	lslf	___lwdiv@divisor,f
  2896  004F  0DF1               	rlf	___lwdiv@divisor+1,f
  2897  0050  0B89               	decfsz	9,f
  2898  0051  284E               	goto	u1415
  2899  0052                     l1260:
  2900  0052  3001               	movlw	1
  2901  0053  00F4               	movwf	??___lwdiv
  2902  0054  0874               	movf	??___lwdiv,w
  2903  0055  07F7               	addwf	___lwdiv@counter,f
  2904  0056                     l1262:
  2905  0056  1FF1               	btfss	___lwdiv@divisor+1,7
  2906  0057  2859               	goto	u1421
  2907  0058  285A               	goto	u1420
  2908  0059                     u1421:
  2909  0059  284D               	goto	l1258
  2910  005A                     u1420:
  2911  005A                     l1264:
  2912  005A  3001               	movlw	1
  2913  005B                     u1435:
  2914  005B  35F5               	lslf	___lwdiv@quotient,f
  2915  005C  0DF6               	rlf	___lwdiv@quotient+1,f
  2916  005D  0B89               	decfsz	9,f
  2917  005E  285B               	goto	u1435
  2918  005F  0871               	movf	___lwdiv@divisor+1,w
  2919  0060  0273               	subwf	___lwdiv@dividend+1,w
  2920  0061  1D03               	skipz
  2921  0062  2865               	goto	u1445
  2922  0063  0870               	movf	___lwdiv@divisor,w
  2923  0064  0272               	subwf	___lwdiv@dividend,w
  2924  0065                     u1445:
  2925  0065  1C03               	skipc
  2926  0066  2868               	goto	u1441
  2927  0067  2869               	goto	u1440
  2928  0068                     u1441:
  2929  0068  286E               	goto	l1270
  2930  0069                     u1440:
  2931  0069                     l1266:
  2932  0069  0870               	movf	___lwdiv@divisor,w
  2933  006A  02F2               	subwf	___lwdiv@dividend,f
  2934  006B  0871               	movf	___lwdiv@divisor+1,w
  2935  006C  3BF3               	subwfb	___lwdiv@dividend+1,f
  2936  006D                     l1268:
  2937  006D  1475               	bsf	___lwdiv@quotient,0
  2938  006E                     l1270:
  2939  006E  3001               	movlw	1
  2940  006F                     u1455:
  2941  006F  36F1               	lsrf	___lwdiv@divisor+1,f
  2942  0070  0CF0               	rrf	___lwdiv@divisor,f
  2943  0071  0B89               	decfsz	9,f
  2944  0072  286F               	goto	u1455
  2945  0073                     l1272:
  2946  0073  3001               	movlw	1
  2947  0074  02F7               	subwf	___lwdiv@counter,f
  2948  0075  1D03               	btfss	3,2
  2949  0076  2878               	goto	u1461
  2950  0077  2879               	goto	u1460
  2951  0078                     u1461:
  2952  0078  285A               	goto	l1264
  2953  0079                     u1460:
  2954  0079                     l1274:
  2955  0079  0876               	movf	___lwdiv@quotient+1,w
  2956  007A  00F1               	movwf	?___lwdiv+1
  2957  007B  0875               	movf	___lwdiv@quotient,w
  2958  007C  00F0               	movwf	?___lwdiv
  2959  007D                     l460:
  2960  007D  0008               	return
  2961  007E                     __end_of___lwdiv:
  2962                           
  2963                           	psect	text13
  2964  0198                     __ptext13:	
  2965 ;; *************** function ___xxtofl *****************
  2966 ;; Defined at:
  2967 ;;		line 10 in file "C:\Program Files\Microchip\xc8\v2.36\pic\sources\c99\common\xxtofl.c"
  2968 ;; Parameters:    Size  Location     Type
  2969 ;;  sign            1    wreg     unsigned char 
  2970 ;;  val             4    0[COMMON] long 
  2971 ;; Auto vars:     Size  Location     Type
  2972 ;;  sign            1    8[COMMON] unsigned char 
  2973 ;;  arg             4   10[COMMON] unsigned long 
  2974 ;;  exp             1    9[COMMON] unsigned char 
  2975 ;; Return value:  Size  Location     Type
  2976 ;;                  4    0[COMMON] unsigned char 
  2977 ;; Registers used:
  2978 ;;		wreg, status,2, status,0
  2979 ;; Tracked objects:
  2980 ;;		On entry : 0/0
  2981 ;;		On exit  : 0/0
  2982 ;;		Unchanged: 0/0
  2983 ;; Data sizes:     COMMON   BANK0   BANK1   BANK2   BANK3   BANK4   BANK5   BANK6
  2984 ;;      Params:         4       0       0       0       0       0       0       0
  2985 ;;      Locals:         6       0       0       0       0       0       0       0
  2986 ;;      Temps:          4       0       0       0       0       0       0       0
  2987 ;;      Totals:        14       0       0       0       0       0       0       0
  2988 ;;Total ram usage:       14 bytes
  2989 ;; Hardware stack levels used: 1
  2990 ;; This function calls:
  2991 ;;		Nothing
  2992 ;; This function is called by:
  2993 ;;		_main
  2994 ;; This function uses a non-reentrant model
  2995 ;;
  2996                           
  2997  0198                     ___xxtofl:	
  2998                           ;psect for function ___xxtofl
  2999                           
  3000                           
  3001                           ;incstack = 0
  3002                           ; Regs used in ___xxtofl: [wreg+status,2+status,0]
  3003                           ;___xxtofl@sign stored from wreg
  3004  0198  00F8               	movwf	___xxtofl@sign
  3005  0199                     l1480:
  3006  0199  0878               	movf	___xxtofl@sign,w
  3007  019A  1903               	btfsc	3,2
  3008  019B  299D               	goto	u1921
  3009  019C  299E               	goto	u1920
  3010  019D                     u1921:
  3011  019D  29B2               	goto	l1486
  3012  019E                     u1920:
  3013  019E                     l1482:
  3014  019E  1FF3               	btfss	___xxtofl@val+3,7
  3015  019F  29A1               	goto	u1931
  3016  01A0  29A2               	goto	u1930
  3017  01A1                     u1931:
  3018  01A1  29B2               	goto	l1486
  3019  01A2                     u1930:
  3020  01A2                     l1484:
  3021  01A2  0970               	comf	___xxtofl@val,w
  3022  01A3  00FA               	movwf	___xxtofl@arg
  3023  01A4  0971               	comf	___xxtofl@val+1,w
  3024  01A5  00FB               	movwf	___xxtofl@arg+1
  3025  01A6  0972               	comf	___xxtofl@val+2,w
  3026  01A7  00FC               	movwf	___xxtofl@arg+2
  3027  01A8  0973               	comf	___xxtofl@val+3,w
  3028  01A9  00FD               	movwf	___xxtofl@arg+3
  3029  01AA  0AFA               	incf	___xxtofl@arg,f
  3030  01AB  1903               	skipnz
  3031  01AC  0AFB               	incf	___xxtofl@arg+1,f
  3032  01AD  1903               	skipnz
  3033  01AE  0AFC               	incf	___xxtofl@arg+2,f
  3034  01AF  1903               	skipnz
  3035  01B0  0AFD               	incf	___xxtofl@arg+3,f
  3036  01B1  29BA               	goto	l621
  3037  01B2                     l1486:
  3038  01B2  0873               	movf	___xxtofl@val+3,w
  3039  01B3  00FD               	movwf	___xxtofl@arg+3
  3040  01B4  0872               	movf	___xxtofl@val+2,w
  3041  01B5  00FC               	movwf	___xxtofl@arg+2
  3042  01B6  0871               	movf	___xxtofl@val+1,w
  3043  01B7  00FB               	movwf	___xxtofl@arg+1
  3044  01B8  0870               	movf	___xxtofl@val,w
  3045  01B9  00FA               	movwf	___xxtofl@arg
  3046  01BA                     l621:
  3047  01BA  0873               	movf	___xxtofl@val+3,w
  3048  01BB  0472               	iorwf	___xxtofl@val+2,w
  3049  01BC  0471               	iorwf	___xxtofl@val+1,w
  3050  01BD  0470               	iorwf	___xxtofl@val,w
  3051  01BE  1D03               	skipz
  3052  01BF  29C1               	goto	u1941
  3053  01C0  29C2               	goto	u1940
  3054  01C1                     u1941:
  3055  01C1  29CB               	goto	l1492
  3056  01C2                     u1940:
  3057  01C2                     l1488:
  3058  01C2  3000               	movlw	0
  3059  01C3  00F3               	movwf	?___xxtofl+3
  3060  01C4  3000               	movlw	0
  3061  01C5  00F2               	movwf	?___xxtofl+2
  3062  01C6  3000               	movlw	0
  3063  01C7  00F1               	movwf	?___xxtofl+1
  3064  01C8  3000               	movlw	0
  3065  01C9  00F0               	movwf	?___xxtofl
  3066  01CA  2A43               	goto	l623
  3067  01CB                     l1492:
  3068  01CB  3096               	movlw	150
  3069  01CC  00F4               	movwf	??___xxtofl
  3070  01CD  0874               	movf	??___xxtofl,w
  3071  01CE  00F9               	movwf	___xxtofl@exp
  3072  01CF  29DB               	goto	l1496
  3073  01D0                     l1494:
  3074  01D0  3001               	movlw	1
  3075  01D1  00F4               	movwf	??___xxtofl
  3076  01D2  0874               	movf	??___xxtofl,w
  3077  01D3  07F9               	addwf	___xxtofl@exp,f
  3078  01D4  3001               	movlw	1
  3079  01D5                     u1955:
  3080  01D5  36FD               	lsrf	___xxtofl@arg+3,f
  3081  01D6  0CFC               	rrf	___xxtofl@arg+2,f
  3082  01D7  0CFB               	rrf	___xxtofl@arg+1,f
  3083  01D8  0CFA               	rrf	___xxtofl@arg,f
  3084  01D9  0B89               	decfsz	9,f
  3085  01DA  29D5               	goto	u1955
  3086  01DB                     l1496:
  3087  01DB  30FE               	movlw	254
  3088  01DC  057D               	andwf	___xxtofl@arg+3,w
  3089  01DD  1D03               	btfss	3,2
  3090  01DE  29E0               	goto	u1961
  3091  01DF  29E1               	goto	u1960
  3092  01E0                     u1961:
  3093  01E0  29D0               	goto	l1494
  3094  01E1                     u1960:
  3095  01E1  29F5               	goto	l627
  3096  01E2                     l1498:
  3097  01E2  3001               	movlw	1
  3098  01E3  00F4               	movwf	??___xxtofl
  3099  01E4  0874               	movf	??___xxtofl,w
  3100  01E5  07F9               	addwf	___xxtofl@exp,f
  3101  01E6                     l1500:
  3102  01E6  3001               	movlw	1
  3103  01E7  07FA               	addwf	___xxtofl@arg,f
  3104  01E8  3000               	movlw	0
  3105  01E9  3DFB               	addwfc	___xxtofl@arg+1,f
  3106  01EA  3000               	movlw	0
  3107  01EB  3DFC               	addwfc	___xxtofl@arg+2,f
  3108  01EC  3000               	movlw	0
  3109  01ED  3DFD               	addwfc	___xxtofl@arg+3,f
  3110  01EE                     l1502:
  3111  01EE  3001               	movlw	1
  3112  01EF                     u1975:
  3113  01EF  36FD               	lsrf	___xxtofl@arg+3,f
  3114  01F0  0CFC               	rrf	___xxtofl@arg+2,f
  3115  01F1  0CFB               	rrf	___xxtofl@arg+1,f
  3116  01F2  0CFA               	rrf	___xxtofl@arg,f
  3117  01F3  0B89               	decfsz	9,f
  3118  01F4  29EF               	goto	u1975
  3119  01F5                     l627:
  3120  01F5  30FF               	movlw	255
  3121  01F6  057D               	andwf	___xxtofl@arg+3,w
  3122  01F7  1D03               	btfss	3,2
  3123  01F8  29FA               	goto	u1981
  3124  01F9  29FB               	goto	u1980
  3125  01FA                     u1981:
  3126  01FA  29E2               	goto	l1498
  3127  01FB                     u1980:
  3128  01FB  2A05               	goto	l1506
  3129  01FC                     l1504:
  3130  01FC  3001               	movlw	1
  3131  01FD  02F9               	subwf	___xxtofl@exp,f
  3132  01FE  3001               	movlw	1
  3133  01FF                     u1995:
  3134  01FF  35FA               	lslf	___xxtofl@arg,f
  3135  0200  0DFB               	rlf	___xxtofl@arg+1,f
  3136  0201  0DFC               	rlf	___xxtofl@arg+2,f
  3137  0202  0DFD               	rlf	___xxtofl@arg+3,f
  3138  0203  0B89               	decfsz	9,f
  3139  0204  29FF               	goto	u1995
  3140  0205                     l1506:
  3141  0205  1BFC               	btfsc	___xxtofl@arg+2,7
  3142  0206  2A08               	goto	u2001
  3143  0207  2A09               	goto	u2000
  3144  0208                     u2001:
  3145  0208  2A0F               	goto	l634
  3146  0209                     u2000:
  3147  0209                     l1508:
  3148  0209  3002               	movlw	2
  3149  020A  0279               	subwf	___xxtofl@exp,w
  3150  020B  1803               	skipnc
  3151  020C  2A0E               	goto	u2011
  3152  020D  2A0F               	goto	u2010
  3153  020E                     u2011:
  3154  020E  29FC               	goto	l1504
  3155  020F                     u2010:
  3156  020F                     l634:
  3157  020F  1879               	btfsc	___xxtofl@exp,0
  3158  0210  2A12               	goto	u2021
  3159  0211  2A13               	goto	u2020
  3160  0212                     u2021:
  3161  0212  2A1B               	goto	l635
  3162  0213                     u2020:
  3163  0213                     l1510:
  3164  0213  30FF               	movlw	255
  3165  0214  05FA               	andwf	___xxtofl@arg,f
  3166  0215  30FF               	movlw	255
  3167  0216  05FB               	andwf	___xxtofl@arg+1,f
  3168  0217  307F               	movlw	127
  3169  0218  05FC               	andwf	___xxtofl@arg+2,f
  3170  0219  30FF               	movlw	255
  3171  021A  05FD               	andwf	___xxtofl@arg+3,f
  3172  021B                     l635:
  3173  021B  1003               	clrc
  3174  021C  0CF9               	rrf	___xxtofl@exp,f
  3175  021D                     l1512:
  3176  021D  0879               	movf	___xxtofl@exp,w
  3177  021E  00F4               	movwf	??___xxtofl
  3178  021F  01F5               	clrf	??___xxtofl+1
  3179  0220  01F6               	clrf	??___xxtofl+2
  3180  0221  01F7               	clrf	??___xxtofl+3
  3181  0222  3018               	movlw	24
  3182  0223                     u2035:
  3183  0223  35F4               	lslf	??___xxtofl,f
  3184  0224  0DF5               	rlf	??___xxtofl+1,f
  3185  0225  0DF6               	rlf	??___xxtofl+2,f
  3186  0226  0DF7               	rlf	??___xxtofl+3,f
  3187  0227                     u2030:
  3188  0227  0B89               	decfsz	9,f
  3189  0228  2A23               	goto	u2035
  3190  0229  0874               	movf	??___xxtofl,w
  3191  022A  04FA               	iorwf	___xxtofl@arg,f
  3192  022B  0875               	movf	??___xxtofl+1,w
  3193  022C  04FB               	iorwf	___xxtofl@arg+1,f
  3194  022D  0876               	movf	??___xxtofl+2,w
  3195  022E  04FC               	iorwf	___xxtofl@arg+2,f
  3196  022F  0877               	movf	??___xxtofl+3,w
  3197  0230  04FD               	iorwf	___xxtofl@arg+3,f
  3198  0231                     l1514:
  3199  0231  0878               	movf	___xxtofl@sign,w
  3200  0232  1903               	btfsc	3,2
  3201  0233  2A35               	goto	u2041
  3202  0234  2A36               	goto	u2040
  3203  0235                     u2041:
  3204  0235  2A3B               	goto	l1520
  3205  0236                     u2040:
  3206  0236                     l1516:
  3207  0236  1FF3               	btfss	___xxtofl@val+3,7
  3208  0237  2A39               	goto	u2051
  3209  0238  2A3A               	goto	u2050
  3210  0239                     u2051:
  3211  0239  2A3B               	goto	l1520
  3212  023A                     u2050:
  3213  023A                     l1518:
  3214  023A  17FD               	bsf	___xxtofl@arg+3,7
  3215  023B                     l1520:
  3216  023B  087D               	movf	___xxtofl@arg+3,w
  3217  023C  00F3               	movwf	?___xxtofl+3
  3218  023D  087C               	movf	___xxtofl@arg+2,w
  3219  023E  00F2               	movwf	?___xxtofl+2
  3220  023F  087B               	movf	___xxtofl@arg+1,w
  3221  0240  00F1               	movwf	?___xxtofl+1
  3222  0241  087A               	movf	___xxtofl@arg,w
  3223  0242  00F0               	movwf	?___xxtofl
  3224  0243                     l623:
  3225  0243  0008               	return
  3226  0244                     __end_of___xxtofl:
  3227                           
  3228                           	psect	text14
  3229  0123                     __ptext14:	
  3230 ;; *************** function ___fltol *****************
  3231 ;; Defined at:
  3232 ;;		line 43 in file "C:\Program Files\Microchip\xc8\v2.36\pic\sources\c99\common\fltol.c"
  3233 ;; Parameters:    Size  Location     Type
  3234 ;;  f1              4   26[BANK0 ] unsigned char 
  3235 ;; Auto vars:     Size  Location     Type
  3236 ;;  exp1            1   36[BANK0 ] unsigned char 
  3237 ;;  sign1           1   35[BANK0 ] unsigned char 
  3238 ;; Return value:  Size  Location     Type
  3239 ;;                  4   26[BANK0 ] long 
  3240 ;; Registers used:
  3241 ;;		wreg, status,2, status,0
  3242 ;; Tracked objects:
  3243 ;;		On entry : 0/0
  3244 ;;		On exit  : 0/0
  3245 ;;		Unchanged: 0/0
  3246 ;; Data sizes:     COMMON   BANK0   BANK1   BANK2   BANK3   BANK4   BANK5   BANK6
  3247 ;;      Params:         0       4       0       0       0       0       0       0
  3248 ;;      Locals:         0       2       0       0       0       0       0       0
  3249 ;;      Temps:          0       5       0       0       0       0       0       0
  3250 ;;      Totals:         0      11       0       0       0       0       0       0
  3251 ;;Total ram usage:       11 bytes
  3252 ;; Hardware stack levels used: 1
  3253 ;; This function calls:
  3254 ;;		Nothing
  3255 ;; This function is called by:
  3256 ;;		_main
  3257 ;; This function uses a non-reentrant model
  3258 ;;
  3259                           
  3260  0123                     ___fltol:	
  3261                           ;psect for function ___fltol
  3262                           
  3263  0123                     l1304:	
  3264                           ;incstack = 0
  3265                           ; Regs used in ___fltol: [wreg+status,2+status,0]
  3266                           
  3267  0123  1003               	clrc
  3268  0124  0020               	movlb	0	; select bank0
  3269  0125  0D3C               	rlf	___fltol@f1+2,w
  3270  0126  0D3D               	rlf	___fltol@f1+3,w
  3271  0127  00BE               	movwf	??___fltol
  3272  0128  083E               	movf	??___fltol,w
  3273  0129  00C4               	movwf	___fltol@exp1
  3274  012A  0844               	movf	___fltol@exp1,w
  3275  012B  1D03               	btfss	3,2
  3276  012C  292E               	goto	u1531
  3277  012D  292F               	goto	u1530
  3278  012E                     u1531:
  3279  012E  2938               	goto	l1310
  3280  012F                     u1530:
  3281  012F                     l1306:
  3282  012F  3000               	movlw	0
  3283  0130  00BD               	movwf	?___fltol+3
  3284  0131  3000               	movlw	0
  3285  0132  00BC               	movwf	?___fltol+2
  3286  0133  3000               	movlw	0
  3287  0134  00BB               	movwf	?___fltol+1
  3288  0135  3000               	movlw	0
  3289  0136  00BA               	movwf	?___fltol
  3290  0137  2997               	goto	l374
  3291  0138                     l1310:
  3292  0138  083A               	movf	___fltol@f1,w
  3293  0139  00BE               	movwf	??___fltol
  3294  013A  083B               	movf	___fltol@f1+1,w
  3295  013B  00BF               	movwf	??___fltol+1
  3296  013C  083C               	movf	___fltol@f1+2,w
  3297  013D  00C0               	movwf	??___fltol+2
  3298  013E  083D               	movf	___fltol@f1+3,w
  3299  013F  00C1               	movwf	??___fltol+3
  3300  0140  301F               	movlw	31
  3301  0141                     u1545:
  3302  0141  36C1               	lsrf	??___fltol+3,f
  3303  0142  0CC0               	rrf	??___fltol+2,f
  3304  0143  0CBF               	rrf	??___fltol+1,f
  3305  0144  0CBE               	rrf	??___fltol,f
  3306  0145                     u1540:
  3307  0145  0B89               	decfsz	9,f
  3308  0146  2941               	goto	u1545
  3309  0147  083E               	movf	??___fltol,w
  3310  0148  00C2               	movwf	??___fltol+4
  3311  0149  0842               	movf	??___fltol+4,w
  3312  014A  00C3               	movwf	___fltol@sign1
  3313  014B                     l1312:
  3314  014B  17BC               	bsf	___fltol@f1+2,7
  3315  014C                     l1314:
  3316  014C  30FF               	movlw	255
  3317  014D  05BA               	andwf	___fltol@f1,f
  3318  014E  30FF               	movlw	255
  3319  014F  05BB               	andwf	___fltol@f1+1,f
  3320  0150  30FF               	movlw	255
  3321  0151  05BC               	andwf	___fltol@f1+2,f
  3322  0152  3000               	movlw	0
  3323  0153  05BD               	andwf	___fltol@f1+3,f
  3324  0154                     l1316:
  3325  0154  3096               	movlw	150
  3326  0155  02C4               	subwf	___fltol@exp1,f
  3327  0156                     l1318:
  3328  0156  1FC4               	btfss	___fltol@exp1,7
  3329  0157  2959               	goto	u1551
  3330  0158  295A               	goto	u1550
  3331  0159                     u1551:
  3332  0159  2972               	goto	l1328
  3333  015A                     u1550:
  3334  015A                     l1320:
  3335  015A  0844               	movf	___fltol@exp1,w
  3336  015B  3A80               	xorlw	128
  3337  015C  3E97               	addlw	151
  3338  015D  1803               	skipnc
  3339  015E  2960               	goto	u1561
  3340  015F  2961               	goto	u1560
  3341  0160                     u1561:
  3342  0160  2962               	goto	l1326
  3343  0161                     u1560:
  3344  0161  292F               	goto	l1306
  3345  0162                     l1326:
  3346  0162  3001               	movlw	1
  3347  0163                     u1575:
  3348  0163  36BD               	lsrf	___fltol@f1+3,f
  3349  0164  0CBC               	rrf	___fltol@f1+2,f
  3350  0165  0CBB               	rrf	___fltol@f1+1,f
  3351  0166  0CBA               	rrf	___fltol@f1,f
  3352  0167  0B89               	decfsz	9,f
  3353  0168  2963               	goto	u1575
  3354  0169  3001               	movlw	1
  3355  016A  00BE               	movwf	??___fltol
  3356  016B  083E               	movf	??___fltol,w
  3357  016C  07C4               	addwf	___fltol@exp1,f
  3358  016D  1D03               	btfss	3,2
  3359  016E  2970               	goto	u1581
  3360  016F  2971               	goto	u1580
  3361  0170                     u1581:
  3362  0170  2962               	goto	l1326
  3363  0171                     u1580:
  3364  0171  2987               	goto	l1336
  3365  0172                     l1328:
  3366  0172  3020               	movlw	32
  3367  0173  0244               	subwf	___fltol@exp1,w
  3368  0174  1C03               	skipc
  3369  0175  2977               	goto	u1591
  3370  0176  2978               	goto	u1590
  3371  0177                     u1591:
  3372  0177  2982               	goto	l381
  3373  0178                     u1590:
  3374  0178  292F               	goto	l1306
  3375  0179                     l1334:
  3376  0179  3001               	movlw	1
  3377  017A                     u1605:
  3378  017A  35BA               	lslf	___fltol@f1,f
  3379  017B  0DBB               	rlf	___fltol@f1+1,f
  3380  017C  0DBC               	rlf	___fltol@f1+2,f
  3381  017D  0DBD               	rlf	___fltol@f1+3,f
  3382  017E  0B89               	decfsz	9,f
  3383  017F  297A               	goto	u1605
  3384  0180  3001               	movlw	1
  3385  0181  02C4               	subwf	___fltol@exp1,f
  3386  0182                     l381:
  3387  0182  0844               	movf	___fltol@exp1,w
  3388  0183  1D03               	btfss	3,2
  3389  0184  2986               	goto	u1611
  3390  0185  2987               	goto	u1610
  3391  0186                     u1611:
  3392  0186  2979               	goto	l1334
  3393  0187                     u1610:
  3394  0187                     l1336:
  3395  0187  0843               	movf	___fltol@sign1,w
  3396  0188  1903               	btfsc	3,2
  3397  0189  298B               	goto	u1621
  3398  018A  298C               	goto	u1620
  3399  018B                     u1621:
  3400  018B  2997               	goto	l384
  3401  018C                     u1620:
  3402  018C                     l1338:
  3403  018C  09BA               	comf	___fltol@f1,f
  3404  018D  09BB               	comf	___fltol@f1+1,f
  3405  018E  09BC               	comf	___fltol@f1+2,f
  3406  018F  09BD               	comf	___fltol@f1+3,f
  3407  0190  0ABA               	incf	___fltol@f1,f
  3408  0191  1903               	skipnz
  3409  0192  0ABB               	incf	___fltol@f1+1,f
  3410  0193  1903               	skipnz
  3411  0194  0ABC               	incf	___fltol@f1+2,f
  3412  0195  1903               	skipnz
  3413  0196  0ABD               	incf	___fltol@f1+3,f
  3414  0197                     l384:
  3415  0197                     l374:
  3416  0197  0008               	return
  3417  0198                     __end_of___fltol:
  3418                           
  3419                           	psect	text15
  3420  0423                     __ptext15:	
  3421 ;; *************** function ___fldiv *****************
  3422 ;; Defined at:
  3423 ;;		line 8 in file "C:\Program Files\Microchip\xc8\v2.36\pic\sources\c99\common\sprcdiv.c"
  3424 ;; Parameters:    Size  Location     Type
  3425 ;;  a               4    0[BANK0 ] long 
  3426 ;;  b               4    4[BANK0 ] long 
  3427 ;; Auto vars:     Size  Location     Type
  3428 ;;  grs             4   20[BANK0 ] unsigned long 
  3429 ;;  rem             4   13[BANK0 ] unsigned long 
  3430 ;;  new_exp         2   18[BANK0 ] int 
  3431 ;;  aexp            1   25[BANK0 ] unsigned char 
  3432 ;;  bexp            1   24[BANK0 ] unsigned char 
  3433 ;;  sign            1   17[BANK0 ] unsigned char 
  3434 ;; Return value:  Size  Location     Type
  3435 ;;                  4    0[BANK0 ] unsigned char 
  3436 ;; Registers used:
  3437 ;;		wreg, status,2, status,0
  3438 ;; Tracked objects:
  3439 ;;		On entry : 0/0
  3440 ;;		On exit  : 0/0
  3441 ;;		Unchanged: 0/0
  3442 ;; Data sizes:     COMMON   BANK0   BANK1   BANK2   BANK3   BANK4   BANK5   BANK6
  3443 ;;      Params:         0       8       0       0       0       0       0       0
  3444 ;;      Locals:         0      13       0       0       0       0       0       0
  3445 ;;      Temps:          0       5       0       0       0       0       0       0
  3446 ;;      Totals:         0      26       0       0       0       0       0       0
  3447 ;;Total ram usage:       26 bytes
  3448 ;; Hardware stack levels used: 1
  3449 ;; This function calls:
  3450 ;;		Nothing
  3451 ;; This function is called by:
  3452 ;;		_main
  3453 ;; This function uses a non-reentrant model
  3454 ;;
  3455                           
  3456  0423                     ___fldiv:	
  3457                           ;psect for function ___fldiv
  3458                           
  3459  0423                     l1340:	
  3460                           ;incstack = 0
  3461                           ; Regs used in ___fldiv: [wreg+status,2+status,0]
  3462                           
  3463  0423  0020               	movlb	0	; select bank0
  3464  0424  0827               	movf	___fldiv@b+3,w
  3465  0425  3980               	andlw	128
  3466  0426  00A8               	movwf	??___fldiv
  3467  0427  0828               	movf	??___fldiv,w
  3468  0428  00B1               	movwf	___fldiv@sign
  3469  0429                     l1342:
  3470  0429  3527               	lslf	___fldiv@b+3,w
  3471  042A  00A8               	movwf	??___fldiv
  3472  042B  0828               	movf	??___fldiv,w
  3473  042C  00B8               	movwf	___fldiv@bexp
  3474  042D                     l1344:
  3475  042D  1FA6               	btfss	___fldiv@b+2,7
  3476  042E  2C30               	goto	u1631
  3477  042F  2C31               	goto	u1630
  3478  0430                     u1631:
  3479  0430  2C32               	goto	l1348
  3480  0431                     u1630:
  3481  0431                     l1346:
  3482  0431  1438               	bsf	___fldiv@bexp,0
  3483  0432                     l1348:
  3484  0432  0838               	movf	___fldiv@bexp,w
  3485  0433  1903               	btfsc	3,2
  3486  0434  2C36               	goto	u1641
  3487  0435  2C37               	goto	u1640
  3488  0436                     u1641:
  3489  0436  2C47               	goto	l1358
  3490  0437                     u1640:
  3491  0437                     l1350:
  3492  0437  0A38               	incf	___fldiv@bexp,w
  3493  0438  1D03               	btfss	3,2
  3494  0439  2C3B               	goto	u1651
  3495  043A  2C3C               	goto	u1650
  3496  043B                     u1651:
  3497  043B  2C44               	goto	l1354
  3498  043C                     u1650:
  3499  043C                     l1352:
  3500  043C  3000               	movlw	0
  3501  043D  00A7               	movwf	___fldiv@b+3
  3502  043E  3000               	movlw	0
  3503  043F  00A6               	movwf	___fldiv@b+2
  3504  0440  3000               	movlw	0
  3505  0441  00A5               	movwf	___fldiv@b+1
  3506  0442  3000               	movlw	0
  3507  0443  00A4               	movwf	___fldiv@b
  3508  0444                     l1354:
  3509  0444  17A6               	bsf	___fldiv@b+2,7
  3510  0445                     l1356:
  3511  0445  01A7               	clrf	___fldiv@b+3
  3512  0446  2C4F               	goto	l1360
  3513  0447                     l1358:
  3514  0447  3000               	movlw	0
  3515  0448  00A7               	movwf	___fldiv@b+3
  3516  0449  3000               	movlw	0
  3517  044A  00A6               	movwf	___fldiv@b+2
  3518  044B  3000               	movlw	0
  3519  044C  00A5               	movwf	___fldiv@b+1
  3520  044D  3000               	movlw	0
  3521  044E  00A4               	movwf	___fldiv@b
  3522  044F                     l1360:
  3523  044F  0823               	movf	___fldiv@a+3,w
  3524  0450  3980               	andlw	128
  3525  0451  00A8               	movwf	??___fldiv
  3526  0452  0828               	movf	??___fldiv,w
  3527  0453  06B1               	xorwf	___fldiv@sign,f
  3528  0454                     l1362:
  3529  0454  3523               	lslf	___fldiv@a+3,w
  3530  0455  00A8               	movwf	??___fldiv
  3531  0456  0828               	movf	??___fldiv,w
  3532  0457  00B9               	movwf	___fldiv@aexp
  3533  0458                     l1364:
  3534  0458  1FA2               	btfss	___fldiv@a+2,7
  3535  0459  2C5B               	goto	u1661
  3536  045A  2C5C               	goto	u1660
  3537  045B                     u1661:
  3538  045B  2C5D               	goto	l1368
  3539  045C                     u1660:
  3540  045C                     l1366:
  3541  045C  1439               	bsf	___fldiv@aexp,0
  3542  045D                     l1368:
  3543  045D  0839               	movf	___fldiv@aexp,w
  3544  045E  1903               	btfsc	3,2
  3545  045F  2C61               	goto	u1671
  3546  0460  2C62               	goto	u1670
  3547  0461                     u1671:
  3548  0461  2C72               	goto	l1378
  3549  0462                     u1670:
  3550  0462                     l1370:
  3551  0462  0A39               	incf	___fldiv@aexp,w
  3552  0463  1D03               	btfss	3,2
  3553  0464  2C66               	goto	u1681
  3554  0465  2C67               	goto	u1680
  3555  0466                     u1681:
  3556  0466  2C6F               	goto	l1374
  3557  0467                     u1680:
  3558  0467                     l1372:
  3559  0467  3000               	movlw	0
  3560  0468  00A3               	movwf	___fldiv@a+3
  3561  0469  3000               	movlw	0
  3562  046A  00A2               	movwf	___fldiv@a+2
  3563  046B  3000               	movlw	0
  3564  046C  00A1               	movwf	___fldiv@a+1
  3565  046D  3000               	movlw	0
  3566  046E  00A0               	movwf	___fldiv@a
  3567  046F                     l1374:
  3568  046F  17A2               	bsf	___fldiv@a+2,7
  3569  0470                     l1376:
  3570  0470  01A3               	clrf	___fldiv@a+3
  3571  0471  2C7A               	goto	l537
  3572  0472                     l1378:
  3573  0472  3000               	movlw	0
  3574  0473  00A3               	movwf	___fldiv@a+3
  3575  0474  3000               	movlw	0
  3576  0475  00A2               	movwf	___fldiv@a+2
  3577  0476  3000               	movlw	0
  3578  0477  00A1               	movwf	___fldiv@a+1
  3579  0478  3000               	movlw	0
  3580  0479  00A0               	movwf	___fldiv@a
  3581  047A                     l537:
  3582  047A  0823               	movf	___fldiv@a+3,w
  3583  047B  0422               	iorwf	___fldiv@a+2,w
  3584  047C  0421               	iorwf	___fldiv@a+1,w
  3585  047D  0420               	iorwf	___fldiv@a,w
  3586  047E  1D03               	skipz
  3587  047F  2C81               	goto	u1691
  3588  0480  2C82               	goto	u1690
  3589  0481                     u1691:
  3590  0481  2C9B               	goto	l1388
  3591  0482                     u1690:
  3592  0482                     l1380:
  3593  0482  3000               	movlw	0
  3594  0483  00A7               	movwf	___fldiv@b+3
  3595  0484  3000               	movlw	0
  3596  0485  00A6               	movwf	___fldiv@b+2
  3597  0486  3000               	movlw	0
  3598  0487  00A5               	movwf	___fldiv@b+1
  3599  0488  3000               	movlw	0
  3600  0489  00A4               	movwf	___fldiv@b
  3601  048A  3080               	movlw	128
  3602  048B  04A6               	iorwf	___fldiv@b+2,f
  3603  048C  307F               	movlw	127
  3604  048D  04A7               	iorwf	___fldiv@b+3,f
  3605  048E                     l1382:
  3606  048E  0831               	movf	___fldiv@sign,w
  3607  048F  00A8               	movwf	??___fldiv
  3608  0490  0828               	movf	??___fldiv,w
  3609  0491  04A7               	iorwf	___fldiv@b+3,f
  3610  0492                     l1384:
  3611  0492  0827               	movf	___fldiv@b+3,w
  3612  0493  00A3               	movwf	?___fldiv+3
  3613  0494  0826               	movf	___fldiv@b+2,w
  3614  0495  00A2               	movwf	?___fldiv+2
  3615  0496  0825               	movf	___fldiv@b+1,w
  3616  0497  00A1               	movwf	?___fldiv+1
  3617  0498  0824               	movf	___fldiv@b,w
  3618  0499  00A0               	movwf	?___fldiv
  3619  049A  2DD6               	goto	l539
  3620  049B                     l1388:
  3621  049B  0838               	movf	___fldiv@bexp,w
  3622  049C  1D03               	btfss	3,2
  3623  049D  2C9F               	goto	u1701
  3624  049E  2CA0               	goto	u1700
  3625  049F                     u1701:
  3626  049F  2CA9               	goto	l1394
  3627  04A0                     u1700:
  3628  04A0                     l1390:
  3629  04A0  3000               	movlw	0
  3630  04A1  00A3               	movwf	?___fldiv+3
  3631  04A2  3000               	movlw	0
  3632  04A3  00A2               	movwf	?___fldiv+2
  3633  04A4  3000               	movlw	0
  3634  04A5  00A1               	movwf	?___fldiv+1
  3635  04A6  3000               	movlw	0
  3636  04A7  00A0               	movwf	?___fldiv
  3637  04A8  2DD6               	goto	l539
  3638  04A9                     l1394:
  3639  04A9  0838               	movf	___fldiv@bexp,w
  3640  04AA  00A8               	movwf	??___fldiv
  3641  04AB  01A9               	clrf	??___fldiv+1
  3642  04AC  0829               	movf	??___fldiv+1,w
  3643  04AD  00AB               	movwf	??___fldiv+3
  3644  04AE  0839               	movf	___fldiv@aexp,w
  3645  04AF  0228               	subwf	??___fldiv,w
  3646  04B0  00AA               	movwf	??___fldiv+2
  3647  04B1  1C03               	skipc
  3648  04B2  03AB               	decf	??___fldiv+3,f
  3649  04B3  082A               	movf	??___fldiv+2,w
  3650  04B4  3E7F               	addlw	127
  3651  04B5  00B2               	movwf	___fldiv@new_exp
  3652  04B6  3000               	movlw	0
  3653  04B7  3D2B               	addwfc	??___fldiv+3,w
  3654  04B8  00B3               	movwf	___fldiv@new_exp+1
  3655  04B9                     l1396:
  3656  04B9  0827               	movf	___fldiv@b+3,w
  3657  04BA  00B0               	movwf	___fldiv@rem+3
  3658  04BB  0826               	movf	___fldiv@b+2,w
  3659  04BC  00AF               	movwf	___fldiv@rem+2
  3660  04BD  0825               	movf	___fldiv@b+1,w
  3661  04BE  00AE               	movwf	___fldiv@rem+1
  3662  04BF  0824               	movf	___fldiv@b,w
  3663  04C0  00AD               	movwf	___fldiv@rem
  3664  04C1                     l1398:
  3665  04C1  3000               	movlw	0
  3666  04C2  00A7               	movwf	___fldiv@b+3
  3667  04C3  3000               	movlw	0
  3668  04C4  00A6               	movwf	___fldiv@b+2
  3669  04C5  3000               	movlw	0
  3670  04C6  00A5               	movwf	___fldiv@b+1
  3671  04C7  3000               	movlw	0
  3672  04C8  00A4               	movwf	___fldiv@b
  3673  04C9                     l1400:
  3674  04C9  3000               	movlw	0
  3675  04CA  00B7               	movwf	___fldiv@grs+3
  3676  04CB  3000               	movlw	0
  3677  04CC  00B6               	movwf	___fldiv@grs+2
  3678  04CD  3000               	movlw	0
  3679  04CE  00B5               	movwf	___fldiv@grs+1
  3680  04CF  3000               	movlw	0
  3681  04D0  00B4               	movwf	___fldiv@grs
  3682  04D1                     l1402:
  3683  04D1  01B9               	clrf	___fldiv@aexp
  3684  04D2  2D11               	goto	l1422
  3685  04D3                     l1404:
  3686  04D3  0839               	movf	___fldiv@aexp,w
  3687  04D4  1903               	btfsc	3,2
  3688  04D5  2CD7               	goto	u1711
  3689  04D6  2CD8               	goto	u1710
  3690  04D7                     u1711:
  3691  04D7  2CF2               	goto	l1414
  3692  04D8                     u1710:
  3693  04D8                     l1406:
  3694  04D8  3001               	movlw	1
  3695  04D9                     u1725:
  3696  04D9  35AD               	lslf	___fldiv@rem,f
  3697  04DA  0DAE               	rlf	___fldiv@rem+1,f
  3698  04DB  0DAF               	rlf	___fldiv@rem+2,f
  3699  04DC  0DB0               	rlf	___fldiv@rem+3,f
  3700  04DD  0B89               	decfsz	9,f
  3701  04DE  2CD9               	goto	u1725
  3702  04DF  3001               	movlw	1
  3703  04E0                     u1735:
  3704  04E0  35A4               	lslf	___fldiv@b,f
  3705  04E1  0DA5               	rlf	___fldiv@b+1,f
  3706  04E2  0DA6               	rlf	___fldiv@b+2,f
  3707  04E3  0DA7               	rlf	___fldiv@b+3,f
  3708  04E4  0B89               	decfsz	9,f
  3709  04E5  2CE0               	goto	u1735
  3710  04E6                     l1408:
  3711  04E6  1FB7               	btfss	___fldiv@grs+3,7
  3712  04E7  2CE9               	goto	u1741
  3713  04E8  2CEA               	goto	u1740
  3714  04E9                     u1741:
  3715  04E9  2CEB               	goto	l1412
  3716  04EA                     u1740:
  3717  04EA                     l1410:
  3718  04EA  1424               	bsf	___fldiv@b,0
  3719  04EB                     l1412:
  3720  04EB  3001               	movlw	1
  3721  04EC                     u1755:
  3722  04EC  35B4               	lslf	___fldiv@grs,f
  3723  04ED  0DB5               	rlf	___fldiv@grs+1,f
  3724  04EE  0DB6               	rlf	___fldiv@grs+2,f
  3725  04EF  0DB7               	rlf	___fldiv@grs+3,f
  3726  04F0  0B89               	decfsz	9,f
  3727  04F1  2CEC               	goto	u1755
  3728  04F2                     l1414:
  3729  04F2  0823               	movf	___fldiv@a+3,w
  3730  04F3  0230               	subwf	___fldiv@rem+3,w
  3731  04F4  1D03               	skipz
  3732  04F5  2D00               	goto	u1765
  3733  04F6  0822               	movf	___fldiv@a+2,w
  3734  04F7  022F               	subwf	___fldiv@rem+2,w
  3735  04F8  1D03               	skipz
  3736  04F9  2D00               	goto	u1765
  3737  04FA  0821               	movf	___fldiv@a+1,w
  3738  04FB  022E               	subwf	___fldiv@rem+1,w
  3739  04FC  1D03               	skipz
  3740  04FD  2D00               	goto	u1765
  3741  04FE  0820               	movf	___fldiv@a,w
  3742  04FF  022D               	subwf	___fldiv@rem,w
  3743  0500                     u1765:
  3744  0500  1C03               	skipc
  3745  0501  2D03               	goto	u1761
  3746  0502  2D04               	goto	u1760
  3747  0503                     u1761:
  3748  0503  2D0D               	goto	l1420
  3749  0504                     u1760:
  3750  0504                     l1416:
  3751  0504  1737               	bsf	___fldiv@grs+3,6
  3752  0505                     l1418:
  3753  0505  0820               	movf	___fldiv@a,w
  3754  0506  02AD               	subwf	___fldiv@rem,f
  3755  0507  0821               	movf	___fldiv@a+1,w
  3756  0508  3BAE               	subwfb	___fldiv@rem+1,f
  3757  0509  0822               	movf	___fldiv@a+2,w
  3758  050A  3BAF               	subwfb	___fldiv@rem+2,f
  3759  050B  0823               	movf	___fldiv@a+3,w
  3760  050C  3BB0               	subwfb	___fldiv@rem+3,f
  3761  050D                     l1420:
  3762  050D  3001               	movlw	1
  3763  050E  00A8               	movwf	??___fldiv
  3764  050F  0828               	movf	??___fldiv,w
  3765  0510  07B9               	addwf	___fldiv@aexp,f
  3766  0511                     l1422:
  3767  0511  301A               	movlw	26
  3768  0512  0239               	subwf	___fldiv@aexp,w
  3769  0513  1C03               	skipc
  3770  0514  2D16               	goto	u1771
  3771  0515  2D17               	goto	u1770
  3772  0516                     u1771:
  3773  0516  2CD3               	goto	l1404
  3774  0517                     u1770:
  3775  0517                     l1424:
  3776  0517  0830               	movf	___fldiv@rem+3,w
  3777  0518  042F               	iorwf	___fldiv@rem+2,w
  3778  0519  042E               	iorwf	___fldiv@rem+1,w
  3779  051A  042D               	iorwf	___fldiv@rem,w
  3780  051B  1903               	skipnz
  3781  051C  2D1E               	goto	u1781
  3782  051D  2D1F               	goto	u1780
  3783  051E                     u1781:
  3784  051E  2D38               	goto	l1438
  3785  051F                     u1780:
  3786  051F                     l1426:
  3787  051F  1434               	bsf	___fldiv@grs,0
  3788  0520  2D38               	goto	l1438
  3789  0521                     l1428:
  3790  0521  3001               	movlw	1
  3791  0522                     u1795:
  3792  0522  35A4               	lslf	___fldiv@b,f
  3793  0523  0DA5               	rlf	___fldiv@b+1,f
  3794  0524  0DA6               	rlf	___fldiv@b+2,f
  3795  0525  0DA7               	rlf	___fldiv@b+3,f
  3796  0526  0B89               	decfsz	9,f
  3797  0527  2D22               	goto	u1795
  3798  0528                     l1430:
  3799  0528  1FB7               	btfss	___fldiv@grs+3,7
  3800  0529  2D2B               	goto	u1801
  3801  052A  2D2C               	goto	u1800
  3802  052B                     u1801:
  3803  052B  2D2D               	goto	l1434
  3804  052C                     u1800:
  3805  052C                     l1432:
  3806  052C  1424               	bsf	___fldiv@b,0
  3807  052D                     l1434:
  3808  052D  3001               	movlw	1
  3809  052E                     u1815:
  3810  052E  35B4               	lslf	___fldiv@grs,f
  3811  052F  0DB5               	rlf	___fldiv@grs+1,f
  3812  0530  0DB6               	rlf	___fldiv@grs+2,f
  3813  0531  0DB7               	rlf	___fldiv@grs+3,f
  3814  0532  0B89               	decfsz	9,f
  3815  0533  2D2E               	goto	u1815
  3816  0534                     l1436:
  3817  0534  30FF               	movlw	255
  3818  0535  07B2               	addwf	___fldiv@new_exp,f
  3819  0536  30FF               	movlw	255
  3820  0537  3DB3               	addwfc	___fldiv@new_exp+1,f
  3821  0538                     l1438:
  3822  0538  1FA6               	btfss	___fldiv@b+2,7
  3823  0539  2D3B               	goto	u1821
  3824  053A  2D3C               	goto	u1820
  3825  053B                     u1821:
  3826  053B  2D21               	goto	l1428
  3827  053C                     u1820:
  3828  053C                     l1440:
  3829  053C  01B9               	clrf	___fldiv@aexp
  3830  053D                     l1442:
  3831  053D  1FB7               	btfss	___fldiv@grs+3,7
  3832  053E  2D40               	goto	u1831
  3833  053F  2D41               	goto	u1830
  3834  0540                     u1831:
  3835  0540  2D5D               	goto	l1450
  3836  0541                     u1830:
  3837  0541                     l1444:
  3838  0541  30FF               	movlw	255
  3839  0542  0534               	andwf	___fldiv@grs,w
  3840  0543  00A8               	movwf	??___fldiv
  3841  0544  30FF               	movlw	255
  3842  0545  0535               	andwf	___fldiv@grs+1,w
  3843  0546  00A9               	movwf	??___fldiv+1
  3844  0547  30FF               	movlw	255
  3845  0548  0536               	andwf	___fldiv@grs+2,w
  3846  0549  00AA               	movwf	??___fldiv+2
  3847  054A  307F               	movlw	127
  3848  054B  0537               	andwf	___fldiv@grs+3,w
  3849  054C  00AB               	movwf	??___fldiv+3
  3850  054D  082B               	movf	??___fldiv+3,w
  3851  054E  042A               	iorwf	??___fldiv+2,w
  3852  054F  0429               	iorwf	??___fldiv+1,w
  3853  0550  0428               	iorwf	??___fldiv,w
  3854  0551  1903               	skipnz
  3855  0552  2D54               	goto	u1841
  3856  0553  2D55               	goto	u1840
  3857  0554                     u1841:
  3858  0554  2D58               	goto	l553
  3859  0555                     u1840:
  3860  0555                     l1446:
  3861  0555  01B9               	clrf	___fldiv@aexp
  3862  0556  0AB9               	incf	___fldiv@aexp,f
  3863  0557  2D5D               	goto	l1450
  3864  0558                     l553:
  3865  0558  1C24               	btfss	___fldiv@b,0
  3866  0559  2D5B               	goto	u1851
  3867  055A  2D5C               	goto	u1850
  3868  055B                     u1851:
  3869  055B  2D5D               	goto	l1450
  3870  055C                     u1850:
  3871  055C  2D55               	goto	l1446
  3872  055D                     l1450:
  3873  055D  0839               	movf	___fldiv@aexp,w
  3874  055E  1903               	btfsc	3,2
  3875  055F  2D61               	goto	u1861
  3876  0560  2D62               	goto	u1860
  3877  0561                     u1861:
  3878  0561  2D8A               	goto	l1460
  3879  0562                     u1860:
  3880  0562                     l1452:
  3881  0562  3001               	movlw	1
  3882  0563  07A4               	addwf	___fldiv@b,f
  3883  0564  3000               	movlw	0
  3884  0565  3DA5               	addwfc	___fldiv@b+1,f
  3885  0566  3000               	movlw	0
  3886  0567  3DA6               	addwfc	___fldiv@b+2,f
  3887  0568  3000               	movlw	0
  3888  0569  3DA7               	addwfc	___fldiv@b+3,f
  3889  056A                     l1454:
  3890  056A  1C27               	btfss	___fldiv@b+3,0
  3891  056B  2D6D               	goto	u1871
  3892  056C  2D6E               	goto	u1870
  3893  056D                     u1871:
  3894  056D  2D8A               	goto	l1460
  3895  056E                     u1870:
  3896  056E                     l1456:
  3897  056E  0824               	movf	___fldiv@b,w
  3898  056F  00A8               	movwf	??___fldiv
  3899  0570  0825               	movf	___fldiv@b+1,w
  3900  0571  00A9               	movwf	??___fldiv+1
  3901  0572  0826               	movf	___fldiv@b+2,w
  3902  0573  00AA               	movwf	??___fldiv+2
  3903  0574  0827               	movf	___fldiv@b+3,w
  3904  0575  00AB               	movwf	??___fldiv+3
  3905  0576  3001               	movlw	1
  3906  0577  00AC               	movwf	??___fldiv+4
  3907  0578                     u1885:
  3908  0578  37AB               	asrf	??___fldiv+3,f
  3909  0579  0CAA               	rrf	??___fldiv+2,f
  3910  057A  0CA9               	rrf	??___fldiv+1,f
  3911  057B  0CA8               	rrf	??___fldiv,f
  3912  057C                     u1880:
  3913  057C  0BAC               	decfsz	??___fldiv+4,f
  3914  057D  2D78               	goto	u1885
  3915  057E  082B               	movf	??___fldiv+3,w
  3916  057F  00A7               	movwf	___fldiv@b+3
  3917  0580  082A               	movf	??___fldiv+2,w
  3918  0581  00A6               	movwf	___fldiv@b+2
  3919  0582  0829               	movf	??___fldiv+1,w
  3920  0583  00A5               	movwf	___fldiv@b+1
  3921  0584  0828               	movf	??___fldiv,w
  3922  0585  00A4               	movwf	___fldiv@b
  3923  0586                     l1458:
  3924  0586  3001               	movlw	1
  3925  0587  07B2               	addwf	___fldiv@new_exp,f
  3926  0588  3000               	movlw	0
  3927  0589  3DB3               	addwfc	___fldiv@new_exp+1,f
  3928  058A                     l1460:
  3929  058A  0833               	movf	___fldiv@new_exp+1,w
  3930  058B  3A80               	xorlw	128
  3931  058C  00A8               	movwf	??___fldiv
  3932  058D  3080               	movlw	128
  3933  058E  0228               	subwf	??___fldiv,w
  3934  058F  1D03               	skipz
  3935  0590  2D93               	goto	u1895
  3936  0591  30FF               	movlw	255
  3937  0592  0232               	subwf	___fldiv@new_exp,w
  3938  0593                     u1895:
  3939  0593  1C03               	skipc
  3940  0594  2D96               	goto	u1891
  3941  0595  2D97               	goto	u1890
  3942  0596                     u1891:
  3943  0596  2DA4               	goto	l558
  3944  0597                     u1890:
  3945  0597                     l1462:
  3946  0597  30FF               	movlw	255
  3947  0598  0020               	movlb	0	; select bank0
  3948  0599  00B2               	movwf	___fldiv@new_exp
  3949  059A  3000               	movlw	0
  3950  059B  00B3               	movwf	___fldiv@new_exp+1
  3951  059C  3000               	movlw	0
  3952  059D  00A7               	movwf	___fldiv@b+3
  3953  059E  3000               	movlw	0
  3954  059F  00A6               	movwf	___fldiv@b+2
  3955  05A0  3000               	movlw	0
  3956  05A1  00A5               	movwf	___fldiv@b+1
  3957  05A2  3000               	movlw	0
  3958  05A3  00A4               	movwf	___fldiv@b
  3959  05A4                     l558:
  3960  05A4  0020               	movlb	0	; select bank0
  3961  05A5  0833               	movf	___fldiv@new_exp+1,w
  3962  05A6  3A80               	xorlw	128
  3963  05A7  00A8               	movwf	??___fldiv
  3964  05A8  3080               	movlw	128
  3965  05A9  0228               	subwf	??___fldiv,w
  3966  05AA  1D03               	skipz
  3967  05AB  2DAE               	goto	u1905
  3968  05AC  3001               	movlw	1
  3969  05AD  0232               	subwf	___fldiv@new_exp,w
  3970  05AE                     u1905:
  3971  05AE  1803               	skipnc
  3972  05AF  2DB1               	goto	u1901
  3973  05B0  2DB2               	goto	u1900
  3974  05B1                     u1901:
  3975  05B1  2DBE               	goto	l559
  3976  05B2                     u1900:
  3977  05B2                     l1464:
  3978  05B2  0020               	movlb	0	; select bank0
  3979  05B3  01B2               	clrf	___fldiv@new_exp
  3980  05B4  01B3               	clrf	___fldiv@new_exp+1
  3981  05B5                     l1466:
  3982  05B5  3000               	movlw	0
  3983  05B6  00A7               	movwf	___fldiv@b+3
  3984  05B7  3000               	movlw	0
  3985  05B8  00A6               	movwf	___fldiv@b+2
  3986  05B9  3000               	movlw	0
  3987  05BA  00A5               	movwf	___fldiv@b+1
  3988  05BB  3000               	movlw	0
  3989  05BC  00A4               	movwf	___fldiv@b
  3990  05BD                     l1468:
  3991  05BD  01B1               	clrf	___fldiv@sign
  3992  05BE                     l559:
  3993  05BE  0020               	movlb	0	; select bank0
  3994  05BF  0832               	movf	___fldiv@new_exp,w
  3995  05C0  00A8               	movwf	??___fldiv
  3996  05C1  0828               	movf	??___fldiv,w
  3997  05C2  00B8               	movwf	___fldiv@bexp
  3998  05C3                     l1470:
  3999  05C3  1C38               	btfss	___fldiv@bexp,0
  4000  05C4  2DC6               	goto	u1911
  4001  05C5  2DC7               	goto	u1910
  4002  05C6                     u1911:
  4003  05C6  2DC9               	goto	l1474
  4004  05C7                     u1910:
  4005  05C7                     l1472:
  4006  05C7  17A6               	bsf	___fldiv@b+2,7
  4007  05C8  2DCD               	goto	l561
  4008  05C9                     l1474:
  4009  05C9  307F               	movlw	127
  4010  05CA  00A8               	movwf	??___fldiv
  4011  05CB  0828               	movf	??___fldiv,w
  4012  05CC  05A6               	andwf	___fldiv@b+2,f
  4013  05CD                     l561:
  4014  05CD  3638               	lsrf	___fldiv@bexp,w
  4015  05CE  00A8               	movwf	??___fldiv
  4016  05CF  0828               	movf	??___fldiv,w
  4017  05D0  00A7               	movwf	___fldiv@b+3
  4018  05D1  0831               	movf	___fldiv@sign,w
  4019  05D2  00A8               	movwf	??___fldiv
  4020  05D3  0828               	movf	??___fldiv,w
  4021  05D4  04A7               	iorwf	___fldiv@b+3,f
  4022  05D5  2C92               	goto	l1384
  4023  05D6                     l539:
  4024  05D6  0008               	return
  4025  05D7                     __end_of___fldiv:
  4026  007E                     btemp	set	126	;btemp
  4027  007E                     wtemp0	set	126
  4028                           
  4029                           	psect	idloc
  4030                           
  4031                           ;Config register IDLOC0 @ 0x8000
  4032                           ;	unspecified, using default values
  4033  8000                     	org	32768
  4034  8000  3FFF               	dw	16383
  4035                           
  4036                           ;Config register IDLOC1 @ 0x8001
  4037                           ;	unspecified, using default values
  4038  8001                     	org	32769
  4039  8001  3FFF               	dw	16383
  4040                           
  4041                           ;Config register IDLOC2 @ 0x8002
  4042                           ;	unspecified, using default values
  4043  8002                     	org	32770
  4044  8002  3FFF               	dw	16383
  4045                           
  4046                           ;Config register IDLOC3 @ 0x8003
  4047                           ;	unspecified, using default values
  4048  8003                     	org	32771
  4049  8003  3FFF               	dw	16383
  4050                           
  4051                           	psect	config
  4052                           
  4053                           ;Config register CONFIG1 @ 0x8007
  4054                           ;	Oscillator Selection Bits
  4055                           ;	FOSC = INTOSC, INTOSC oscillator: I/O function on CLKIN pin
  4056                           ;	Watchdog Timer Enable
  4057                           ;	WDTE = OFF, WDT disabled
  4058                           ;	Power-up Timer Enable
  4059                           ;	PWRTE = OFF, PWRT disabled
  4060                           ;	MCLR Pin Function Select
  4061                           ;	MCLRE = OFF, MCLR/VPP pin function is digital input
  4062                           ;	Flash Program Memory Code Protection
  4063                           ;	CP = OFF, Program memory code protection is disabled
  4064                           ;	Brown-out Reset Enable
  4065                           ;	BOREN = OFF, Brown-out Reset disabled
  4066                           ;	Clock Out Enable
  4067                           ;	CLKOUTEN = OFF, CLKOUT function is disabled. I/O or oscillator function on the CLKOUT 
      +                          pin
  4068                           ;	Internal/External Switchover Mode
  4069                           ;	IESO = OFF, Internal/External Switchover Mode is disabled
  4070                           ;	Fail-Safe Clock Monitor Enable
  4071                           ;	FCMEN = OFF, Fail-Safe Clock Monitor is disabled
  4072  8007                     	org	32775
  4073  8007  09A4               	dw	2468
  4074                           
  4075                           ;Config register CONFIG2 @ 0x8008
  4076                           ;	Flash Memory Self-Write Protection
  4077                           ;	WRT = OFF, Write protection off
  4078                           ;	Stack Overflow/Underflow Reset Enable
  4079                           ;	STVREN = OFF, Stack Overflow or Underflow will not cause a Reset
  4080                           ;	Brown-out Reset Voltage Selection
  4081                           ;	BORV = LO, Brown-out Reset Voltage (Vbor), low trip point selected.
  4082                           ;	Low-Power Brown Out Reset
  4083                           ;	LPBOR = OFF, Low-Power BOR is disabled
  4084                           ;	Low-Voltage Programming Enable
  4085                           ;	LVP = OFF, High-voltage on MCLR/VPP must be used for programming
  4086  8008                     	org	32776
  4087  8008  1DFF               	dw	7679

Data Sizes:
    Strings     0
    Constant    0
    Data        0
    BSS         0
    Persistent  32
    Stack       0

Auto Spaces:
    Space          Size  Autos    Used
    COMMON           14     14      14
    BANK0            80     74      74
    BANK1            80      0       0
    BANK2            80      0       0
    BANK3            80      0       0
    BANK4            80      0       0
    BANK5            80      0       0
    BANK6            16      0       0

Pointer List with Targets:

    None.

Critical Paths under _main in COMMON

    _main->___xxtofl
    _enter_total_number->___lwmod
    ___awmod->___xxtofl
    _enter_digit_total->___lwmod
    _enter_number_added->___lwmod
    _display_7segment->_Data_pulse_with_0
    _display_7segment->_Data_pulse_with_1
    _Data_pulse_with_1->_clk_pulse
    _Data_pulse_with_0->_clk_pulse
    ___lwmod->___lwdiv
    ___fltol->___xxtofl
    ___fldiv->___xxtofl

Critical Paths under _main in BANK0

    _main->_enter_total_number
    _enter_total_number->_enter_number_finish
    ___awmod->___fltol
    _enter_digit_total->_enter_number_finish
    _enter_number_finish->___awmod
    _enter_number_added->___awmod
    ___fltol->___fldiv

Critical Paths under _main in BANK1

    None.

Critical Paths under _main in BANK2

    None.

Critical Paths under _main in BANK3

    None.

Critical Paths under _main in BANK4

    None.

Critical Paths under _main in BANK5

    None.

Critical Paths under _main in BANK6

    None.

Call Graph Tables:

 ---------------------------------------------------------------------------------
 (Depth) Function   	        Calls       Base Space   Used Autos Params    Refs
 ---------------------------------------------------------------------------------
 (0) _main                                                15    15      0   26608
                                             59 BANK0     15    15      0
                            ___awmod
                            ___fldiv
                            ___fltol
                           ___xxtofl
                  _enter_digit_total
                 _enter_total_number
 ---------------------------------------------------------------------------------
 (1) _enter_total_number                                  12    10      2   11174
                                             47 BANK0     12    10      2
                            ___awmod
                            ___lwdiv
                            ___lwmod
                 _enter_number_added
                _enter_number_finish
 ---------------------------------------------------------------------------------
 (2) ___awmod                                              7     3      4    1208
                                             37 BANK0      7     3      4
                            ___fldiv (ARG)
                            ___fltol (ARG)
                           ___xxtofl (ARG)
 ---------------------------------------------------------------------------------
 (1) _enter_digit_total                                    4     0      4   10991
                                             47 BANK0      4     0      4
                            ___lwdiv
                            ___lwmod
                 _enter_number_added
                _enter_number_finish
 ---------------------------------------------------------------------------------
 (2) _enter_number_finish                                  3     1      2    3619
                                             44 BANK0      3     1      2
                            ___awmod (ARG)
                            ___lwdiv (ARG)
                   _display_7segment
                        _latch_pulse
 ---------------------------------------------------------------------------------
 (3) _latch_pulse                                          4     2      2     123
                                              0 COMMON     4     2      2
 ---------------------------------------------------------------------------------
 (2) _enter_number_added                                   2     0      2    4075
                                             44 BANK0      2     0      2
                            ___awmod (ARG)
                            ___lwdiv (ARG)
                            ___lwmod (ARG)
                          _clk_pulse
                   _display_7segment
 ---------------------------------------------------------------------------------
 (3) _display_7segment                                     2     0      2    3322
                                              6 COMMON     2     0      2
                  _Data_pulse_with_0
                  _Data_pulse_with_1
 ---------------------------------------------------------------------------------
 (4) _Data_pulse_with_1                                    2     0      2    1285
                                              4 COMMON     2     0      2
                          _clk_pulse
 ---------------------------------------------------------------------------------
 (4) _Data_pulse_with_0                                    2     0      2    1665
                                              4 COMMON     2     0      2
                          _clk_pulse
 ---------------------------------------------------------------------------------
 (5) _clk_pulse                                            4     2      2     275
                                              0 COMMON     4     2      2
 ---------------------------------------------------------------------------------
 (2) ___lwmod                                              6     2      4    1071
                                              8 COMMON     6     2      4
                            ___lwdiv (ARG)
 ---------------------------------------------------------------------------------
 (2) ___lwdiv                                              8     4      4     922
                                              0 COMMON     8     4      4
 ---------------------------------------------------------------------------------
 (1) ___xxtofl                                            14    10      4     474
                                              0 COMMON    14    10      4
 ---------------------------------------------------------------------------------
 (1) ___fltol                                             11     7      4     381
                                             26 BANK0     11     7      4
                            ___fldiv (ARG)
                           ___xxtofl (ARG)
 ---------------------------------------------------------------------------------
 (1) ___fldiv                                             26    18      8    1425
                                              0 BANK0     26    18      8
                           ___xxtofl (ARG)
 ---------------------------------------------------------------------------------
 Estimated maximum stack depth 5
 ---------------------------------------------------------------------------------

 Call Graph Graphs:

 _main (ROOT)
   ___awmod
     ___fldiv (ARG)
       ___xxtofl (ARG)
     ___fltol (ARG)
       ___fldiv (ARG)
       ___xxtofl (ARG)
     ___xxtofl (ARG)
   ___fldiv
   ___fltol
   ___xxtofl
   _enter_digit_total
     ___lwdiv
     ___lwmod
       ___lwdiv (ARG)
     _enter_number_added
       ___awmod (ARG)
       ___lwdiv (ARG)
       ___lwmod (ARG)
       _clk_pulse (ARG)
       _display_7segment (ARG)
         _Data_pulse_with_0
           _clk_pulse
         _Data_pulse_with_1
           _clk_pulse
     _enter_number_finish
       ___awmod (ARG)
       ___lwdiv (ARG)
       _display_7segment (ARG)
       _latch_pulse (ARG)
   _enter_total_number
     ___awmod
     ___lwdiv
     ___lwmod
     _enter_number_added
     _enter_number_finish

 Address spaces:
Name               Size   Autos  Total    Cost      Usage
BIGRAM             1F0      0       0       0        0.0%
NULL                 0      0       0       0        0.0%
CODE                 0      0       0       0        0.0%
BITCOMMON            E      0       0       1        0.0%
BITSFR0              0      0       0       1        0.0%
SFR0                 0      0       0       1        0.0%
COMMON               E      E       E       2      100.0%
BITSFR1              0      0       0       2        0.0%
SFR1                 0      0       0       2        0.0%
BITSFR2              0      0       0       3        0.0%
SFR2                 0      0       0       3        0.0%
STACK                0      0       0       3        0.0%
BITSFR3              0      0       0       4        0.0%
SFR3                 0      0       0       4        0.0%
ABS                  0      0       0       4        0.0%
BITBANK0            50      0       0       5        0.0%
BITSFR4              0      0       0       5        0.0%
SFR4                 0      0       0       5        0.0%
BANK0               50     4A      4A       6       92.5%
BITSFR5              0      0       0       6        0.0%
SFR5                 0      0       0       6        0.0%
BITBANK1            50      0       0       7        0.0%
BITSFR6              0      0       0       7        0.0%
SFR6                 0      0       0       7        0.0%
BANK1               50      0       0       8        0.0%
BITSFR7              0      0       0       8        0.0%
SFR7                 0      0       0       8        0.0%
BITBANK2            50      0       0       9        0.0%
BITSFR8              0      0       0       9        0.0%
SFR8                 0      0       0       9        0.0%
BANK2               50      0       0      10        0.0%
BITSFR9              0      0       0      10        0.0%
SFR9                 0      0       0      10        0.0%
BITBANK3            50      0       0      11        0.0%
BITSFR10             0      0       0      11        0.0%
SFR10                0      0       0      11        0.0%
BANK3               50      0       0      12        0.0%
BITSFR11             0      0       0      12        0.0%
SFR11                0      0       0      12        0.0%
BITBANK4            50      0       0      13        0.0%
BITSFR12             0      0       0      13        0.0%
SFR12                0      0       0      13        0.0%
BANK4               50      0       0      14        0.0%
BITSFR13             0      0       0      14        0.0%
SFR13                0      0       0      14        0.0%
BITBANK5            50      0       0      15        0.0%
BITSFR14             0      0       0      15        0.0%
SFR14                0      0       0      15        0.0%
BANK5               50      0       0      16        0.0%
BITSFR15             0      0       0      16        0.0%
SFR15                0      0       0      16        0.0%
BITBANK6            10      0       0      17        0.0%
BITSFR16             0      0       0      17        0.0%
SFR16                0      0       0      17        0.0%
BANK6               10      0       0      18        0.0%
BITSFR17             0      0       0      18        0.0%
SFR17                0      0       0      18        0.0%
BITSFR18             0      0       0      19        0.0%
SFR18                0      0       0      19        0.0%
DATA                 0      0       0      19        0.0%
BITSFR19             0      0       0      20        0.0%
SFR19                0      0       0      20        0.0%
BITSFR20             0      0       0      21        0.0%
SFR20                0      0       0      21        0.0%
BITSFR21             0      0       0      22        0.0%
SFR21                0      0       0      22        0.0%
BITSFR22             0      0       0      23        0.0%
SFR22                0      0       0      23        0.0%
BITSFR23             0      0       0      24        0.0%
SFR23                0      0       0      24        0.0%
BITSFR24             0      0       0      25        0.0%
SFR24                0      0       0      25        0.0%
BITSFR25             0      0       0      26        0.0%
SFR25                0      0       0      26        0.0%
BITSFR26             0      0       0      27        0.0%
SFR26                0      0       0      27        0.0%
BITSFR27             0      0       0      28        0.0%
SFR27                0      0       0      28        0.0%
BITSFR28             0      0       0      29        0.0%
SFR28                0      0       0      29        0.0%
BITSFR29             0      0       0      30        0.0%
SFR29                0      0       0      30        0.0%
BITSFR30             0      0       0      31        0.0%
SFR30                0      0       0      31        0.0%
BITSFR31             0      0       0      32        0.0%
SFR31                0      0       0      32        0.0%


Microchip Technology PIC Macro Assembler V2.36 build 20220127204148 
Symbol Table                                                                                   Fri May 06 00:55:11 2022

               ___fldiv@aexp 0039                 ___fldiv@bexp 0038                 ___fldiv@sign 0031  
                         l31 0FC6                           l32 0FBF                           l40 0FE7  
                         l34 0FD0                           l43 000D                           l37 0FDD  
                         l46 0FA9                           l62 0422                           l38 0FD6  
                         l71 0FB9                           l80 00CE                           l74 0FFF  
                         l68 0422                           l77 02FA                           l86 05FD  
                         l89 0626                          l346 0122                          l460 007D  
                        l381 0182                          l621 01BA                          l374 0197  
                        l470 0041                          l623 0243                          l384 0197  
                        l561 05CD                          l553 0558                          l537 047A  
                        l634 020F                          l539 05D6                          l635 021B  
                        l627 01F5                          l558 05A4                          l559 05BE  
               ___awmod@sign 004B                          wreg 0009                 ___fltol@exp1 0044  
                       l1200 03F6                         l1202 03FD                         l1210 0FE8  
                       l1204 0405                         l1212 0FF7                         l1220 00DA  
                       l1300 0244                         l1310 0138                         l1206 040C  
                       l1302 007E                         l1230 00EE                         l1222 00DC  
                       l1214 00CF                         l1400 04C9                         l1320 015A  
                       l1312 014B                         l1304 0123                         l1152 0FBA  
                       l1160 0FA0                         l1208 0FAA                         l1240 0109  
                       l1232 00F3                         l1224 00E0                         l1216 00D1  
                       l1410 04EA                         l1402 04D1                         l1314 014C  
                       l1306 012F                         l1154 0FC2                         l1162 0FA2  
                       l1170 0301                         l1242 010E                         l1234 00F7  
                       l1226 00E5                         l1218 00D5                         l1420 050D  
                       l1412 04EB                         l1404 04D3                         l1340 0423  
                       l1316 0154                         l1500 01E6                         l1260 0052  
                       l1252 0042                         l1156 0004                         l1180 0357  
                       l1172 0310                         l1164 0FD1                         l1236 00FB  
                       l1228 00EB                         l1244 0114                         l1430 0528  
                       l1406 04D8                         l1414 04F2                         l1422 0511  
                       l1350 0437                         l1342 0429                         l1334 0179  
                       l1326 0162                         l1318 0156                         l1510 0213  
                       l1502 01EE                         l1270 006E                         l1262 0056  
                       l1254 0044                         l1158 0006                         l1190 039F  
                       l1182 035E                         l1174 0316                         l1166 0FD9  
                       l1246 0119                         l1238 0105                         l1440 053C  
                       l1432 052C                         l1424 0517                         l1416 0504  
                       l1408 04E6                         l1360 044F                         l1352 043C  
                       l1344 042D                         l1336 0187                         l1328 0172  
                       l1520 023B                         l1512 021D                         l1504 01FC  
                       l1272 0073                         l1264 005A                         l1256 004A  
                       l1280 0014                         l1192 03C3                         l1184 0374  
                       l1176 032C                         l1168 02FB                         l1248 011E  
                       l1600 0691                         l1450 055D                         l1442 053D  
                       l1434 052D                         l1426 051F                         l1418 0505  
                       l1370 0462                         l1362 0454                         l1354 0444  
                       l1346 0431                         l1338 018C                         l1514 0231  
                       l1506 0205                         l1266 0069                         l1258 004D  
                       l1274 0079                         l1290 002E                         l1282 0017  
                       l1194 03CA                         l1186 037B                         l1178 0333  
                       l1610 06B5                         l1602 0695                         l1530 05E7  
                       l1452 0562                         l1460 058A                         l1444 0541  
                       l1436 0534                         l1428 0521                         l1380 0482  
                       l1372 0467                         l1364 0458                         l1356 0445  
                       l1348 0432                         l1516 0236                         l1508 0209  
                       l1268 006D                         l1292 0032                         l1284 001C  
                       l1196 03E0                         l1188 0398                         l1620 06DA  
                       l1612 06B7                         l1604 069A                         l1540 05F5  
                       l1532 05E9                         l1524 05D7                         l1470 05C3  
                       l1462 0597                         l1454 056A                         l1446 0555  
                       l1438 0538                         l1390 04A0                         l1382 048E  
                       l1374 046F                         l1366 045C                         l1358 0447  
                       l1518 023A                         l1294 0037                         l1286 0020  
                       l1278 000E                         l1198 03E7                         l1630 06FB  
                       l1622 06DE                         l1614 06BD                         l1606 06A0  
                       l1550 061B                         l1542 05F7                         l1534 05EB  
                       l1526 05E4                         l1472 05C7                         l1464 05B2  
                       l1456 056E                         l1384 0492                         l1376 0470  
                       l1368 045D                         l1480 0199                         l1288 0024  
                       l1296 003D                         l1640 07A0                         l1632 0704  
                       l1616 06C6                         l1608 06AB                         l1624 06E7  
                       l1560 0633                         l1552 061F                         l1544 05F9  
                       l1536 05ED                         l1528 05E5                         l1474 05C9  
                       l1466 05B5                         l1458 0586                         l1394 04A9  
                       l1378 0472                         l1482 019E                         l1650 07C5  
                       l1642 07A7                         l1634 0740                         l1626 06EE  
                       l1618 06D0                         l1570 064B                         l1562 0637  
                       l1554 0624                         l1546 05FB                         l1538 05F0  
                       l1468 05BD                         l1396 04B9                         l1388 049B  
                       l1492 01CB                         l1484 01A2                         l1660 07E6  
                       l1652 07CA                         l1644 07AC                         l1636 074D  
                       l1628 06F4                         l1580 0661                         l1572 064F  
                       l1564 063D                         l1556 062A                         l1548 0601  
                       l1398 04C1                         l1494 01D0                         l1486 01B2  
                       l1654 07D0                         l1646 07BD                         l1662 07EF  
                       l1638 0754                         l1590 0679                         l1582 0667  
                       l1574 0653                         l1566 0641                         l1558 062F  
                       l1496 01DB                         l1488 01C2                         l1664 07F4  
                       l1656 07DD                         l1648 07C4                         l1592 067D  
                       l1584 066B                         l1576 0659                         l1568 0645  
                       l1498 01E2                         l1658 07E4                         l1594 0683  
                       l1586 066F                         l1578 065D                         l1596 0687  
                       l1588 0675                         l1598 068B                         u2000 0209  
                       u1200 0FE7                         u2001 0208                         u1201 0FE6  
                       u2010 020F                         u1210 0301                         u2011 020E  
                       u1211 0300                         u2020 0213                         u1300 040C  
                       u1220 0316                         u2100 062F                         u2021 0212  
                       u1301 040B                         u1221 0315                         u1205 0FE3  
                       u2101 062E                         u2030 0227                         u1230 0333  
                       u1310 00D5                         u2110 0637                         u1231 0332  
                       u1311 00D4                         u2111 0636                         u2040 0236  
                       u1400 004A                         u1240 035E                         u1320 00E0  
                       u2200 0675                         u2120 063D                         u2041 0235  
                       u1401 0049                         u1241 035D                         u1321 00DF  
                       u2201 0674                         u2121 063C                         u2050 023A  
                       u1250 037B                         u1330 00EB                         u2210 067D  
                       u2130 0645                         u2051 0239                         u2035 0223  
                       u1251 037A                         u1331 00EA                         u2211 067C  
                       u2131 0644                         u1420 005A                         u1500 002E  
                       u1260 039F                         u2300 06FB                         u2220 0683  
                       u2140 064B                         u2060 0601                         u1421 0059  
                       u1501 002D                         u1261 039E                         u2301 06FA  
                       u2221 0682                         u2141 064A                         u2061 0600  
                       u1190 0FD0                         u1270 03CA                         u1350 00FB  
                       u2310 0754                         u2230 068B                         u2150 0653  
                       u2070 061F                         u1415 004E                         u1191 0FCF  
                       u1271 03C9                         u1351 00FA                         u2311 0753  
                       u2231 068A                         u2151 0652                         u2071 061E  
                       u1440 0069                         u1520 003D                         u1280 03E7  
                       u1360 0105                         u2320 07A7                         u2240 0691  
                       u2160 0659                         u2080 0624                         u1441 0068  
                       u1521 003C                         u1505 002A                         u1281 03E6  
                       u1361 0104                         u1345 00EF                         u2321 07A6  
                       u2241 0690                         u2161 0658                         u2081 0623  
                       u1610 0187                         u1530 012F                         u1290 03FD  
                       u2330 07C4                         u2250 069A                         u2170 0661  
                       u2090 062A                         u1611 0186                         u1531 012E  
                       u1435 005B                         u1515 0033                         u1195 0FCC  
                       u1291 03FC                         u2331 07C3                         u2251 0699  
                       u2171 0660                         u2091 0629                         u1700 04A0  
                       u1620 018C                         u1540 0145                         u1460 0079  
                       u1380 0114                         u2340 07D0                         u2260 06B5  
                       u2180 0667                         u1701 049F                         u1621 018B  
                       u1605 017A                         u1461 0078                         u1445 0065  
                       u1381 0113                         u1365 0101                         u2341 07CF  
                       u2261 06B4                         u2181 0666                         u1710 04D8  
                       u1630 0431                         u1550 015A                         u1470 0014  
                       u1390 0119                         u2350 07E4                         u2270 06C6  
                       u2190 066F                         u1711 04D7                         u1631 0430  
                       u1551 0159                         u1455 006F                         u1471 0013  
                       u1391 0118                         u1375 010A                         u2351 07E3  
                       u2271 06C5                         u2191 066E                         u1800 052C  
                       u1640 0437                         u1560 0161                         u2360 07F4  
                       u2280 06DA                         u1801 052B                         u1641 0436  
                       u1561 0160                         u1545 0141                         u2361 07F3  
                       u2281 06D9                         u1650 043C                         u1490 0024  
                       u2290 06EE                         u1651 043B                         u1491 0023  
                       u2291 06ED                         u1900 05B2                         u1820 053C  
                       u1740 04EA                         u1660 045C                         u1580 0171  
                       u1901 05B1                         u1821 053B                         u1741 04E9  
                       u1725 04D9                         u1661 045B                         u1581 0170  
                       u1485 0018                         u1910 05C7                         u1830 0541  
                       u1670 0462                         u1590 0178                         u1911 05C6  
                       u1831 0540                         u1815 052E                         u1735 04E0  
                       u1671 0461                         u1591 0177                         u1575 0163  
                       u1840 0555                         u1760 0504                         u1680 0467  
                       u1920 019E                         u1905 05AE                         u1841 0554  
                       u1761 0503                         u1681 0466                         u1921 019D  
                       u2377 05F2                         u1850 055C                         u1770 0517  
                       u1690 0482                         u1930 01A2                         u1851 055B  
                       u1771 0516                         u1755 04EC                         u1691 0481  
                       u1931 01A1                         u2387 06FF                         u1860 0562  
                       u1780 051F                         u1940 01C2                         u1861 0561  
                       u1781 051E                         u1765 0500                         u1941 01C1  
                       u2397 0FFB                         u1870 056E                         u1871 056D  
                       u1880 057C                         u1960 01E1                         u1961 01E0  
                       u1890 0597                         u1891 0596                         u1795 0522  
                       u1955 01D5                         u1980 01FB                         u1885 0578  
                       u1981 01FA                         u1895 0593                         u1975 01EF  
                       u1995 01FF                 ?_latch_pulse 0070                  main@minutes 0065  
                main@seconds 0063                         _main 05D7                         btemp 007E  
                       start 0002              ___fldiv@new_exp 0032                ___fltol@sign1 0043  
                      ?_main 0070              __end_of___fldiv 05D7              __end_of___awmod 0123  
            __end_of___fltol 0198              __end_of___lwdiv 007E              __end_of___lwmod 0042  
 __end_of_enter_total_number 02FB                        main@h 0067                        main@m 0068  
                      status 0003                        wtemp0 007E              __initialization 07FD  
               __end_of_main 07FD                       ??_main 005B                       _ADCON0 009D  
                     _ADCON1 009E                       _ADCON2 009F                       _ADRESH 009C  
                     _ADRESL 009B                       _ANSELC 018E             __end_of___xxtofl 0244  
        enter_number_added@n 004C                    ??___fldiv 0028                    ??___awmod 0049  
                  ??___fltol 003E                    ??___lwdiv 0074                    ??___lwmod 007C  
         Data_pulse_with_0@n 0074           Data_pulse_with_1@n 0074              ___awmod@divisor 0045  
            ___awmod@counter 004A           _enter_number_added 0FAA          ?_enter_number_added 004C  
               ___xxtofl@arg 007A                 ___xxtofl@exp 0079                 ___xxtofl@val 0070  
    __end_of__initialization 07FD            ?_display_7segment 0076                   ___fltol@f1 003A  
         ??_display_7segment 0078               __pcstackCOMMON 0070         ??_enter_number_added 007E  
               latch_pulse@i 0072                 latch_pulse@n 0070       _enter_total_number$727 0059  
             _OPTION_REGbits 0095                   __pmaintext 05D7            display_7segment@n 0076  
          _enter_digit_total 007E           ?_enter_digit_total 004F                    ?___xxtofl 0070  
        ??_enter_digit_total 007E           _enter_total_number 0244            __end_of_clk_pulse 0FD1  
  __end_of_enter_digit_total 00CF                      ___fldiv 0423                      ___awmod 00CF  
                    ___fltol 0123          ?_enter_total_number 004F                      ___lwdiv 0042  
                    ___lwmod 000E         enter_number_finish@n 004C                      __ptext1 0244  
                    __ptext2 00CF                      __ptext3 007E                      __ptext4 0FE8  
                    __ptext5 0FD1                      __ptext6 0FAA                      __ptext7 02FB  
                    __ptext8 0004                      __ptext9 0FA0                   ??___xxtofl 0074  
           ___awmod@dividend 0047         ??_enter_total_number 007E         end_of_initialization 07FD  
        _enter_number_finish 0FE8                   clk_pulse@i 0072                   clk_pulse@n 0070  
                  _PORTAbits 000C         ?_enter_number_finish 004C                ___xxtofl@sign 0078  
                  _TRISAbits 008C                    _TRISCbits 008E                  ___fldiv@grs 0034  
                ___fldiv@rem 002D        ??_enter_number_finish 004E          start_initialization 07FD  
              ??_latch_pulse 0072                    ___fldiv@a 0020                    ___fldiv@b 0024  
                  ___latbits 0002                __pcstackBANK0 0020            _Data_pulse_with_0 0FA0  
          _Data_pulse_with_1 0004           ?_Data_pulse_with_0 0074           ?_Data_pulse_with_1 0074  
           ___lwdiv@dividend 0072          ??_Data_pulse_with_0 0076          ??_Data_pulse_with_1 0076  
        __end_of_latch_pulse 0FE8                     ?___fldiv 0020                     ?___awmod 0045  
                  _clk_pulse 0FBA                     ?___fltol 003A                     ?___lwdiv 0070  
                   ?___lwmod 0078    __end_of_Data_pulse_with_0 0FAA    __end_of_Data_pulse_with_1 000E  
           ___lwdiv@quotient 0075                     _LATCbits 010E                   ?_clk_pulse 0070  
                 _ADCON0bits 009D             _display_7segment 02FB                  _latch_pulse 0FD1  
                 _ANSELAbits 018C                     ___xxtofl 0198              ___lwdiv@divisor 0070  
            ___lwdiv@counter 0077     enter_digit_total@minutes 0051     enter_digit_total@seconds 004F  
                   __ptext10 0FBA                     __ptext11 000E                     __ptext12 0042  
                   __ptext13 0198                     __ptext14 0123                     __ptext15 0423  
        main@ADC0_result_var 0061          enter_total_number@a 0051          enter_total_number@b 0053  
        enter_total_number@c 0055          enter_total_number@d 0057          enter_total_number@n 004F  
                ??_clk_pulse 0072  __end_of_enter_number_finish 1000             ___lwmod@dividend 007A  
 __end_of_enter_number_added 0FBA              ___lwmod@divisor 0078              ___lwmod@counter 007D  
               main@S1_state 0069     __end_of_display_7segment 0423  
