

Microchip MPLAB XC8 Assembler V2.36 build 20220127204148 
                                                                                               Sat Jun 11 23:13:03 2022

Microchip MPLAB XC8 C Compiler v2.36 (Free license) build 20220127204148 Og1 
     1                           	processor	16F1509
     2                           	pagewidth 120
     3                           	opt	flic
     4                           	psect	nvBANK0,global,class=BANK0,space=1,delta=1,noexec
     5                           	psect	stringtext1,global,class=STRCODE,delta=2,noexec
     6                           	psect	stringtext2,global,class=STRCODE,delta=2,noexec
     7                           	psect	cinit,global,class=CODE,merge=1,delta=2
     8                           	psect	bssBANK0,global,class=BANK0,space=1,delta=1,noexec
     9                           	psect	clrtext,global,class=CODE,delta=2
    10                           	psect	cstackCOMMON,global,class=COMMON,space=1,delta=1,noexec
    11                           	psect	cstackBANK0,global,class=BANK0,space=1,delta=1,noexec
    12                           	psect	maintext,global,class=CODE,merge=1,split=1,delta=2
    13                           	psect	text1,local,class=CODE,merge=1,delta=2,group=3
    14                           	psect	text2,local,class=CODE,merge=1,delta=2,group=1
    15                           	psect	text3,local,class=CODE,merge=1,delta=2,group=1
    16                           	psect	text4,local,class=CODE,merge=1,delta=2,group=3
    17                           	psect	text5,local,class=CODE,merge=1,delta=2
    18                           	psect	text6,local,class=CODE,merge=1,delta=2
    19                           	psect	text7,local,class=CODE,merge=1,delta=2
    20                           	psect	text8,local,class=CODE,merge=1,delta=2
    21                           	psect	text9,local,class=CODE,merge=1,delta=2
    22                           	psect	text10,local,class=CODE,merge=1,delta=2
    23                           	psect	text11,local,class=CODE,merge=1,delta=2
    24                           	psect	text12,local,class=CODE,merge=1,delta=2
    25                           	psect	text13,local,class=CODE,merge=1,delta=2
    26                           	psect	text14,local,class=CODE,merge=1,delta=2
    27                           	psect	text15,local,class=CODE,merge=1,delta=2
    28                           	psect	text16,local,class=CODE,merge=1,delta=2
    29                           	psect	text17,local,class=CODE,merge=1,delta=2
    30                           	psect	text18,local,class=CODE,merge=1,delta=2
    31                           	psect	text19,local,class=CODE,merge=1,delta=2
    32                           	psect	text20,local,class=CODE,merge=1,delta=2
    33                           	psect	text21,local,class=CODE,merge=1,delta=2
    34                           	psect	text22,local,class=CODE,merge=1,delta=2
    35                           	psect	text23,local,class=CODE,merge=1,delta=2
    36                           	psect	text24,local,class=CODE,merge=1,delta=2
    37                           	psect	text25,local,class=CODE,merge=1,delta=2
    38                           	psect	text26,local,class=CODE,merge=1,delta=2
    39                           	psect	idloc,global,abs,ovrld,class=IDLOC,space=5,delta=2,noexec
    40                           	psect	config,global,abs,ovrld,class=CONFIG,space=4,delta=2,noexec
    41                           	psect	maintext_split_1,global,class=CODE,merge=1,split=1,delta=2
    42                           	psect	maintext_split_2,global,class=CODE,merge=1,split=1,delta=2
    43                           	psect	maintext_split_3,global,class=CODE,merge=1,split=1,delta=2
    44                           	dabs	1,0x320,16
    45                           	dabs	1,0x2A0,80
    46                           	dabs	1,0x26C,4
    47                           	dabs	1,0x218C,0,_str
    48                           	dabs	1,0x7E,2
    49  0000                     
    50                           ; Version 2.40
    51                           ; Generated 17/11/2021 GMT
    52                           ; 
    53                           ; Copyright © 2021, Microchip Technology Inc. and its subsidiaries ("Microchip")
    54                           ; All rights reserved.
    55                           ; 
    56                           ; This software is developed by Microchip Technology Inc. and its subsidiaries ("Microch
      +                          ip").
    57                           ; 
    58                           ; Redistribution and use in source and binary forms, with or without modification, are
    59                           ; permitted provided that the following conditions are met:
    60                           ; 
    61                           ;     1. Redistributions of source code must retain the above copyright notice, this lis
      +                          t of
    62                           ;        conditions and the following disclaimer.
    63                           ; 
    64                           ;     2. Redistributions in binary form must reproduce the above copyright notice, this 
      +                          list
    65                           ;        of conditions and the following disclaimer in the documentation and/or other
    66                           ;        materials provided with the distribution. Publication is not required when
    67                           ;        this file is used in an embedded application.
    68                           ; 
    69                           ;     3. Microchip's name may not be used to endorse or promote products derived from th
      +                          is
    70                           ;        software without specific prior written permission.
    71                           ; 
    72                           ; THIS SOFTWARE IS PROVIDED BY MICROCHIP "AS IS" AND ANY EXPRESS OR IMPLIED WARRANTIES,
    73                           ; INCLUDING, BUT NOT LIMITED TO, THE IMPLIED WARRANTIES OF MERCHANTABILITY AND FITNESS F
      +                          OR
    74                           ; PURPOSE ARE DISCLAIMED.  IN NO EVENT SHALL MICROCHIP BE LIABLE FOR ANY DIRECT, INDIREC
      +                          T,
    75                           ; INCIDENTAL, SPECIAL, EXEMPLARY, OR CONSEQUENTIAL DAMAGES (INCLUDING BUT NOT LIMITED TO
    76                           ; PROCUREMENT OF SUBSTITUTE GOODS OR SERVICES; LOSS OF USE, DATA OR PROFITS; OR BUSINESS
    77                           ; INTERRUPTION) HOWSOEVER CAUSED AND ON ANY THEORY OF LIABILITY, WHETHER IN CONTRACT, ST
      +                          RICT
    78                           ; LIABILITY, OR TORT (INCLUDING NEGLIGENCE OR OTHERWISE) ARISING IN ANY WAY OUT OF THE U
      +                          SE OF
    79                           ; THIS SOFTWARE, EVEN IF ADVISED OF THE POSSIBILITY OF SUCH DAMAGE.
    80                           ; 
    81                           ; 
    82                           ; Code-generator required, PIC16F1509 Definitions
    83                           ; 
    84                           ; SFR Addresses
    85  0000                     	;# 
    86  0001                     	;# 
    87  0002                     	;# 
    88  0003                     	;# 
    89  0004                     	;# 
    90  0005                     	;# 
    91  0006                     	;# 
    92  0007                     	;# 
    93  0008                     	;# 
    94  0009                     	;# 
    95  000A                     	;# 
    96  000B                     	;# 
    97  000C                     	;# 
    98  000D                     	;# 
    99  000E                     	;# 
   100  0011                     	;# 
   101  0012                     	;# 
   102  0013                     	;# 
   103  0015                     	;# 
   104  0016                     	;# 
   105  0016                     	;# 
   106  0017                     	;# 
   107  0018                     	;# 
   108  0019                     	;# 
   109  001A                     	;# 
   110  001B                     	;# 
   111  001C                     	;# 
   112  008C                     	;# 
   113  008D                     	;# 
   114  008E                     	;# 
   115  0091                     	;# 
   116  0092                     	;# 
   117  0093                     	;# 
   118  0095                     	;# 
   119  0096                     	;# 
   120  0097                     	;# 
   121  0099                     	;# 
   122  009A                     	;# 
   123  009B                     	;# 
   124  009B                     	;# 
   125  009C                     	;# 
   126  009D                     	;# 
   127  009E                     	;# 
   128  009F                     	;# 
   129  010C                     	;# 
   130  010D                     	;# 
   131  010E                     	;# 
   132  0111                     	;# 
   133  0112                     	;# 
   134  0113                     	;# 
   135  0114                     	;# 
   136  0115                     	;# 
   137  0116                     	;# 
   138  0117                     	;# 
   139  0118                     	;# 
   140  0119                     	;# 
   141  011D                     	;# 
   142  018C                     	;# 
   143  018D                     	;# 
   144  018E                     	;# 
   145  0191                     	;# 
   146  0191                     	;# 
   147  0192                     	;# 
   148  0193                     	;# 
   149  0193                     	;# 
   150  0194                     	;# 
   151  0195                     	;# 
   152  0196                     	;# 
   153  0197                     	;# 
   154  0199                     	;# 
   155  019A                     	;# 
   156  019B                     	;# 
   157  019B                     	;# 
   158  019C                     	;# 
   159  019D                     	;# 
   160  019E                     	;# 
   161  019F                     	;# 
   162  020C                     	;# 
   163  020D                     	;# 
   164  0211                     	;# 
   165  0211                     	;# 
   166  0212                     	;# 
   167  0212                     	;# 
   168  0213                     	;# 
   169  0213                     	;# 
   170  0214                     	;# 
   171  0214                     	;# 
   172  0215                     	;# 
   173  0215                     	;# 
   174  0215                     	;# 
   175  0216                     	;# 
   176  0216                     	;# 
   177  0217                     	;# 
   178  0217                     	;# 
   179  0391                     	;# 
   180  0392                     	;# 
   181  0393                     	;# 
   182  0394                     	;# 
   183  0395                     	;# 
   184  0396                     	;# 
   185  0498                     	;# 
   186  0498                     	;# 
   187  0499                     	;# 
   188  049A                     	;# 
   189  049B                     	;# 
   190  049B                     	;# 
   191  049C                     	;# 
   192  049D                     	;# 
   193  049E                     	;# 
   194  049F                     	;# 
   195  0611                     	;# 
   196  0612                     	;# 
   197  0613                     	;# 
   198  0613                     	;# 
   199  0614                     	;# 
   200  0615                     	;# 
   201  0616                     	;# 
   202  0616                     	;# 
   203  0617                     	;# 
   204  0618                     	;# 
   205  0619                     	;# 
   206  0619                     	;# 
   207  061A                     	;# 
   208  061B                     	;# 
   209  061C                     	;# 
   210  061C                     	;# 
   211  0691                     	;# 
   212  0692                     	;# 
   213  0693                     	;# 
   214  0694                     	;# 
   215  0695                     	;# 
   216  0F0F                     	;# 
   217  0F10                     	;# 
   218  0F11                     	;# 
   219  0F12                     	;# 
   220  0F13                     	;# 
   221  0F14                     	;# 
   222  0F15                     	;# 
   223  0F16                     	;# 
   224  0F17                     	;# 
   225  0F18                     	;# 
   226  0F19                     	;# 
   227  0F1A                     	;# 
   228  0F1B                     	;# 
   229  0F1C                     	;# 
   230  0F1D                     	;# 
   231  0F1E                     	;# 
   232  0F1F                     	;# 
   233  0F20                     	;# 
   234  0F21                     	;# 
   235  0F22                     	;# 
   236  0F23                     	;# 
   237  0F24                     	;# 
   238  0F25                     	;# 
   239  0F26                     	;# 
   240  0F27                     	;# 
   241  0F28                     	;# 
   242  0F29                     	;# 
   243  0F2A                     	;# 
   244  0F2B                     	;# 
   245  0F2C                     	;# 
   246  0F2D                     	;# 
   247  0F2E                     	;# 
   248  0F2F                     	;# 
   249  0F8C                     	;# 
   250  0F8D                     	;# 
   251  0F91                     	;# 
   252  0F95                     	;# 
   253  0F96                     	;# 
   254  0F97                     	;# 
   255  0F9C                     	;# 
   256  0F9D                     	;# 
   257  0F9E                     	;# 
   258  0FE3                     	;# 
   259  0FE4                     	;# 
   260  0FE5                     	;# 
   261  0FE6                     	;# 
   262  0FE7                     	;# 
   263  0FE8                     	;# 
   264  0FE9                     	;# 
   265  0FEA                     	;# 
   266  0FEB                     	;# 
   267  0FED                     	;# 
   268  0FEE                     	;# 
   269  0FEF                     	;# 
   270  0000                     	;# 
   271  0001                     	;# 
   272  0002                     	;# 
   273  0003                     	;# 
   274  0004                     	;# 
   275  0005                     	;# 
   276  0006                     	;# 
   277  0007                     	;# 
   278  0008                     	;# 
   279  0009                     	;# 
   280  000A                     	;# 
   281  000B                     	;# 
   282  000C                     	;# 
   283  000D                     	;# 
   284  000E                     	;# 
   285  0011                     	;# 
   286  0012                     	;# 
   287  0013                     	;# 
   288  0015                     	;# 
   289  0016                     	;# 
   290  0016                     	;# 
   291  0017                     	;# 
   292  0018                     	;# 
   293  0019                     	;# 
   294  001A                     	;# 
   295  001B                     	;# 
   296  001C                     	;# 
   297  008C                     	;# 
   298  008D                     	;# 
   299  008E                     	;# 
   300  0091                     	;# 
   301  0092                     	;# 
   302  0093                     	;# 
   303  0095                     	;# 
   304  0096                     	;# 
   305  0097                     	;# 
   306  0099                     	;# 
   307  009A                     	;# 
   308  009B                     	;# 
   309  009B                     	;# 
   310  009C                     	;# 
   311  009D                     	;# 
   312  009E                     	;# 
   313  009F                     	;# 
   314  010C                     	;# 
   315  010D                     	;# 
   316  010E                     	;# 
   317  0111                     	;# 
   318  0112                     	;# 
   319  0113                     	;# 
   320  0114                     	;# 
   321  0115                     	;# 
   322  0116                     	;# 
   323  0117                     	;# 
   324  0118                     	;# 
   325  0119                     	;# 
   326  011D                     	;# 
   327  018C                     	;# 
   328  018D                     	;# 
   329  018E                     	;# 
   330  0191                     	;# 
   331  0191                     	;# 
   332  0192                     	;# 
   333  0193                     	;# 
   334  0193                     	;# 
   335  0194                     	;# 
   336  0195                     	;# 
   337  0196                     	;# 
   338  0197                     	;# 
   339  0199                     	;# 
   340  019A                     	;# 
   341  019B                     	;# 
   342  019B                     	;# 
   343  019C                     	;# 
   344  019D                     	;# 
   345  019E                     	;# 
   346  019F                     	;# 
   347  020C                     	;# 
   348  020D                     	;# 
   349  0211                     	;# 
   350  0211                     	;# 
   351  0212                     	;# 
   352  0212                     	;# 
   353  0213                     	;# 
   354  0213                     	;# 
   355  0214                     	;# 
   356  0214                     	;# 
   357  0215                     	;# 
   358  0215                     	;# 
   359  0215                     	;# 
   360  0216                     	;# 
   361  0216                     	;# 
   362  0217                     	;# 
   363  0217                     	;# 
   364  0391                     	;# 
   365  0392                     	;# 
   366  0393                     	;# 
   367  0394                     	;# 
   368  0395                     	;# 
   369  0396                     	;# 
   370  0498                     	;# 
   371  0498                     	;# 
   372  0499                     	;# 
   373  049A                     	;# 
   374  049B                     	;# 
   375  049B                     	;# 
   376  049C                     	;# 
   377  049D                     	;# 
   378  049E                     	;# 
   379  049F                     	;# 
   380  0611                     	;# 
   381  0612                     	;# 
   382  0613                     	;# 
   383  0613                     	;# 
   384  0614                     	;# 
   385  0615                     	;# 
   386  0616                     	;# 
   387  0616                     	;# 
   388  0617                     	;# 
   389  0618                     	;# 
   390  0619                     	;# 
   391  0619                     	;# 
   392  061A                     	;# 
   393  061B                     	;# 
   394  061C                     	;# 
   395  061C                     	;# 
   396  0691                     	;# 
   397  0692                     	;# 
   398  0693                     	;# 
   399  0694                     	;# 
   400  0695                     	;# 
   401  0F0F                     	;# 
   402  0F10                     	;# 
   403  0F11                     	;# 
   404  0F12                     	;# 
   405  0F13                     	;# 
   406  0F14                     	;# 
   407  0F15                     	;# 
   408  0F16                     	;# 
   409  0F17                     	;# 
   410  0F18                     	;# 
   411  0F19                     	;# 
   412  0F1A                     	;# 
   413  0F1B                     	;# 
   414  0F1C                     	;# 
   415  0F1D                     	;# 
   416  0F1E                     	;# 
   417  0F1F                     	;# 
   418  0F20                     	;# 
   419  0F21                     	;# 
   420  0F22                     	;# 
   421  0F23                     	;# 
   422  0F24                     	;# 
   423  0F25                     	;# 
   424  0F26                     	;# 
   425  0F27                     	;# 
   426  0F28                     	;# 
   427  0F29                     	;# 
   428  0F2A                     	;# 
   429  0F2B                     	;# 
   430  0F2C                     	;# 
   431  0F2D                     	;# 
   432  0F2E                     	;# 
   433  0F2F                     	;# 
   434  0F8C                     	;# 
   435  0F8D                     	;# 
   436  0F91                     	;# 
   437  0F95                     	;# 
   438  0F96                     	;# 
   439  0F97                     	;# 
   440  0F9C                     	;# 
   441  0F9D                     	;# 
   442  0F9E                     	;# 
   443  0FE3                     	;# 
   444  0FE4                     	;# 
   445  0FE5                     	;# 
   446  0FE6                     	;# 
   447  0FE7                     	;# 
   448  0FE8                     	;# 
   449  0FE9                     	;# 
   450  0FEA                     	;# 
   451  0FEB                     	;# 
   452  0FED                     	;# 
   453  0FEE                     	;# 
   454  0FEF                     	;# 
   455  0000                     	;# 
   456  0001                     	;# 
   457  0002                     	;# 
   458  0003                     	;# 
   459  0004                     	;# 
   460  0005                     	;# 
   461  0006                     	;# 
   462  0007                     	;# 
   463  0008                     	;# 
   464  0009                     	;# 
   465  000A                     	;# 
   466  000B                     	;# 
   467  000C                     	;# 
   468  000D                     	;# 
   469  000E                     	;# 
   470  0011                     	;# 
   471  0012                     	;# 
   472  0013                     	;# 
   473  0015                     	;# 
   474  0016                     	;# 
   475  0016                     	;# 
   476  0017                     	;# 
   477  0018                     	;# 
   478  0019                     	;# 
   479  001A                     	;# 
   480  001B                     	;# 
   481  001C                     	;# 
   482  008C                     	;# 
   483  008D                     	;# 
   484  008E                     	;# 
   485  0091                     	;# 
   486  0092                     	;# 
   487  0093                     	;# 
   488  0095                     	;# 
   489  0096                     	;# 
   490  0097                     	;# 
   491  0099                     	;# 
   492  009A                     	;# 
   493  009B                     	;# 
   494  009B                     	;# 
   495  009C                     	;# 
   496  009D                     	;# 
   497  009E                     	;# 
   498  009F                     	;# 
   499  010C                     	;# 
   500  010D                     	;# 
   501  010E                     	;# 
   502  0111                     	;# 
   503  0112                     	;# 
   504  0113                     	;# 
   505  0114                     	;# 
   506  0115                     	;# 
   507  0116                     	;# 
   508  0117                     	;# 
   509  0118                     	;# 
   510  0119                     	;# 
   511  011D                     	;# 
   512  018C                     	;# 
   513  018D                     	;# 
   514  018E                     	;# 
   515  0191                     	;# 
   516  0191                     	;# 
   517  0192                     	;# 
   518  0193                     	;# 
   519  0193                     	;# 
   520  0194                     	;# 
   521  0195                     	;# 
   522  0196                     	;# 
   523  0197                     	;# 
   524  0199                     	;# 
   525  019A                     	;# 
   526  019B                     	;# 
   527  019B                     	;# 
   528  019C                     	;# 
   529  019D                     	;# 
   530  019E                     	;# 
   531  019F                     	;# 
   532  020C                     	;# 
   533  020D                     	;# 
   534  0211                     	;# 
   535  0211                     	;# 
   536  0212                     	;# 
   537  0212                     	;# 
   538  0213                     	;# 
   539  0213                     	;# 
   540  0214                     	;# 
   541  0214                     	;# 
   542  0215                     	;# 
   543  0215                     	;# 
   544  0215                     	;# 
   545  0216                     	;# 
   546  0216                     	;# 
   547  0217                     	;# 
   548  0217                     	;# 
   549  0391                     	;# 
   550  0392                     	;# 
   551  0393                     	;# 
   552  0394                     	;# 
   553  0395                     	;# 
   554  0396                     	;# 
   555  0498                     	;# 
   556  0498                     	;# 
   557  0499                     	;# 
   558  049A                     	;# 
   559  049B                     	;# 
   560  049B                     	;# 
   561  049C                     	;# 
   562  049D                     	;# 
   563  049E                     	;# 
   564  049F                     	;# 
   565  0611                     	;# 
   566  0612                     	;# 
   567  0613                     	;# 
   568  0613                     	;# 
   569  0614                     	;# 
   570  0615                     	;# 
   571  0616                     	;# 
   572  0616                     	;# 
   573  0617                     	;# 
   574  0618                     	;# 
   575  0619                     	;# 
   576  0619                     	;# 
   577  061A                     	;# 
   578  061B                     	;# 
   579  061C                     	;# 
   580  061C                     	;# 
   581  0691                     	;# 
   582  0692                     	;# 
   583  0693                     	;# 
   584  0694                     	;# 
   585  0695                     	;# 
   586  0F0F                     	;# 
   587  0F10                     	;# 
   588  0F11                     	;# 
   589  0F12                     	;# 
   590  0F13                     	;# 
   591  0F14                     	;# 
   592  0F15                     	;# 
   593  0F16                     	;# 
   594  0F17                     	;# 
   595  0F18                     	;# 
   596  0F19                     	;# 
   597  0F1A                     	;# 
   598  0F1B                     	;# 
   599  0F1C                     	;# 
   600  0F1D                     	;# 
   601  0F1E                     	;# 
   602  0F1F                     	;# 
   603  0F20                     	;# 
   604  0F21                     	;# 
   605  0F22                     	;# 
   606  0F23                     	;# 
   607  0F24                     	;# 
   608  0F25                     	;# 
   609  0F26                     	;# 
   610  0F27                     	;# 
   611  0F28                     	;# 
   612  0F29                     	;# 
   613  0F2A                     	;# 
   614  0F2B                     	;# 
   615  0F2C                     	;# 
   616  0F2D                     	;# 
   617  0F2E                     	;# 
   618  0F2F                     	;# 
   619  0F8C                     	;# 
   620  0F8D                     	;# 
   621  0F91                     	;# 
   622  0F95                     	;# 
   623  0F96                     	;# 
   624  0F97                     	;# 
   625  0F9C                     	;# 
   626  0F9D                     	;# 
   627  0F9E                     	;# 
   628  0FE3                     	;# 
   629  0FE4                     	;# 
   630  0FE5                     	;# 
   631  0FE6                     	;# 
   632  0FE7                     	;# 
   633  0FE8                     	;# 
   634  0FE9                     	;# 
   635  0FEA                     	;# 
   636  0FEB                     	;# 
   637  0FED                     	;# 
   638  0FEE                     	;# 
   639  0FEF                     	;# 
   640  0000                     	;# 
   641  0001                     	;# 
   642  0002                     	;# 
   643  0003                     	;# 
   644  0004                     	;# 
   645  0005                     	;# 
   646  0006                     	;# 
   647  0007                     	;# 
   648  0008                     	;# 
   649  0009                     	;# 
   650  000A                     	;# 
   651  000B                     	;# 
   652  000C                     	;# 
   653  000D                     	;# 
   654  000E                     	;# 
   655  0011                     	;# 
   656  0012                     	;# 
   657  0013                     	;# 
   658  0015                     	;# 
   659  0016                     	;# 
   660  0016                     	;# 
   661  0017                     	;# 
   662  0018                     	;# 
   663  0019                     	;# 
   664  001A                     	;# 
   665  001B                     	;# 
   666  001C                     	;# 
   667  008C                     	;# 
   668  008D                     	;# 
   669  008E                     	;# 
   670  0091                     	;# 
   671  0092                     	;# 
   672  0093                     	;# 
   673  0095                     	;# 
   674  0096                     	;# 
   675  0097                     	;# 
   676  0099                     	;# 
   677  009A                     	;# 
   678  009B                     	;# 
   679  009B                     	;# 
   680  009C                     	;# 
   681  009D                     	;# 
   682  009E                     	;# 
   683  009F                     	;# 
   684  010C                     	;# 
   685  010D                     	;# 
   686  010E                     	;# 
   687  0111                     	;# 
   688  0112                     	;# 
   689  0113                     	;# 
   690  0114                     	;# 
   691  0115                     	;# 
   692  0116                     	;# 
   693  0117                     	;# 
   694  0118                     	;# 
   695  0119                     	;# 
   696  011D                     	;# 
   697  018C                     	;# 
   698  018D                     	;# 
   699  018E                     	;# 
   700  0191                     	;# 
   701  0191                     	;# 
   702  0192                     	;# 
   703  0193                     	;# 
   704  0193                     	;# 
   705  0194                     	;# 
   706  0195                     	;# 
   707  0196                     	;# 
   708  0197                     	;# 
   709  0199                     	;# 
   710  019A                     	;# 
   711  019B                     	;# 
   712  019B                     	;# 
   713  019C                     	;# 
   714  019D                     	;# 
   715  019E                     	;# 
   716  019F                     	;# 
   717  020C                     	;# 
   718  020D                     	;# 
   719  0211                     	;# 
   720  0211                     	;# 
   721  0212                     	;# 
   722  0212                     	;# 
   723  0213                     	;# 
   724  0213                     	;# 
   725  0214                     	;# 
   726  0214                     	;# 
   727  0215                     	;# 
   728  0215                     	;# 
   729  0215                     	;# 
   730  0216                     	;# 
   731  0216                     	;# 
   732  0217                     	;# 
   733  0217                     	;# 
   734  0391                     	;# 
   735  0392                     	;# 
   736  0393                     	;# 
   737  0394                     	;# 
   738  0395                     	;# 
   739  0396                     	;# 
   740  0498                     	;# 
   741  0498                     	;# 
   742  0499                     	;# 
   743  049A                     	;# 
   744  049B                     	;# 
   745  049B                     	;# 
   746  049C                     	;# 
   747  049D                     	;# 
   748  049E                     	;# 
   749  049F                     	;# 
   750  0611                     	;# 
   751  0612                     	;# 
   752  0613                     	;# 
   753  0613                     	;# 
   754  0614                     	;# 
   755  0615                     	;# 
   756  0616                     	;# 
   757  0616                     	;# 
   758  0617                     	;# 
   759  0618                     	;# 
   760  0619                     	;# 
   761  0619                     	;# 
   762  061A                     	;# 
   763  061B                     	;# 
   764  061C                     	;# 
   765  061C                     	;# 
   766  0691                     	;# 
   767  0692                     	;# 
   768  0693                     	;# 
   769  0694                     	;# 
   770  0695                     	;# 
   771  0F0F                     	;# 
   772  0F10                     	;# 
   773  0F11                     	;# 
   774  0F12                     	;# 
   775  0F13                     	;# 
   776  0F14                     	;# 
   777  0F15                     	;# 
   778  0F16                     	;# 
   779  0F17                     	;# 
   780  0F18                     	;# 
   781  0F19                     	;# 
   782  0F1A                     	;# 
   783  0F1B                     	;# 
   784  0F1C                     	;# 
   785  0F1D                     	;# 
   786  0F1E                     	;# 
   787  0F1F                     	;# 
   788  0F20                     	;# 
   789  0F21                     	;# 
   790  0F22                     	;# 
   791  0F23                     	;# 
   792  0F24                     	;# 
   793  0F25                     	;# 
   794  0F26                     	;# 
   795  0F27                     	;# 
   796  0F28                     	;# 
   797  0F29                     	;# 
   798  0F2A                     	;# 
   799  0F2B                     	;# 
   800  0F2C                     	;# 
   801  0F2D                     	;# 
   802  0F2E                     	;# 
   803  0F2F                     	;# 
   804  0F8C                     	;# 
   805  0F8D                     	;# 
   806  0F91                     	;# 
   807  0F95                     	;# 
   808  0F96                     	;# 
   809  0F97                     	;# 
   810  0F9C                     	;# 
   811  0F9D                     	;# 
   812  0F9E                     	;# 
   813  0FE3                     	;# 
   814  0FE4                     	;# 
   815  0FE5                     	;# 
   816  0FE6                     	;# 
   817  0FE7                     	;# 
   818  0FE8                     	;# 
   819  0FE9                     	;# 
   820  0FEA                     	;# 
   821  0FEB                     	;# 
   822  0FED                     	;# 
   823  0FEE                     	;# 
   824  0FEF                     	;_str
   825                           
   826 ;; Function _EUSART_DefaultFramingErrorHandler is unused but had its address taken
   827  0000                     
   828 ;; Function _EUSART_DefaultOverrunErrorHandler is unused but had its address taken
   829  0000                     
   830 ;; Function _EUSART_DefaultErrorHandler is unused but had its address taken
   831  0000                     
   832                           	psect	nvBANK0
   833  006A                     __pnvBANK0:
   834  006A                     _EUSART_ErrorHandler:
   835  006A                     	ds	2
   836  006C                     _EUSART_OverrunErrorHandler:
   837  006C                     	ds	2
   838  006E                     _EUSART_FramingErrorHandler:
   839  006E                     	ds	2
   840  0011                     _PIR1bits	set	17
   841  0095                     _OPTION_REGbits	set	149
   842  008E                     _TRISC	set	142
   843  008D                     _TRISB	set	141
   844  008C                     _TRISA	set	140
   845  0097                     _WDTCON	set	151
   846  0099                     _OSCCON	set	153
   847  011D                     _APFCON	set	285
   848  010E                     _LATC	set	270
   849  010D                     _LATB	set	269
   850  010C                     _LATA	set	268
   851  010E                     _LATCbits	set	270
   852  0116                     _BORCON	set	278
   853  019A                     _TXREG	set	410
   854  0199                     _RCREG	set	409
   855  019D                     _RCSTAbits	set	413
   856  019E                     _TXSTAbits	set	414
   857  019C                     _SPBRGH	set	412
   858  019B                     _SPBRGL	set	411
   859  019E                     _TXSTA	set	414
   860  019D                     _RCSTA	set	413
   861  019F                     _BAUDCON	set	415
   862  018C                     _ANSELA	set	396
   863  018D                     _ANSELB	set	397
   864  018E                     _ANSELC	set	398
   865  020C                     _WPUA	set	524
   866  020D                     _WPUB	set	525
   867                           
   868                           	psect	stringtext1
   869  1000                     __pstringtext1:
   870  1000                     STR_1:
   871  1000  3450               	retlw	80	;'P'
   872  1001  346C               	retlw	108	;'l'
   873  1002  3465               	retlw	101	;'e'
   874  1003  3461               	retlw	97	;'a'
   875  1004  3473               	retlw	115	;'s'
   876  1005  3465               	retlw	101	;'e'
   877  1006  3420               	retlw	32	;' '
   878  1007  3477               	retlw	119	;'w'
   879  1008  3472               	retlw	114	;'r'
   880  1009  3469               	retlw	105	;'i'
   881  100A  3474               	retlw	116	;'t'
   882  100B  3465               	retlw	101	;'e'
   883  100C  3420               	retlw	32	;' '
   884  100D  3463               	retlw	99	;'c'
   885  100E  346F               	retlw	111	;'o'
   886  100F  346E               	retlw	110	;'n'
   887  1010  3474               	retlw	116	;'t'
   888  1011  3472               	retlw	114	;'r'
   889  1012  346F               	retlw	111	;'o'
   890  1013  346C               	retlw	108	;'l'
   891  1014  3420               	retlw	32	;' '
   892  1015  3463               	retlw	99	;'c'
   893  1016  346F               	retlw	111	;'o'
   894  1017  346D               	retlw	109	;'m'
   895  1018  346D               	retlw	109	;'m'
   896  1019  3461               	retlw	97	;'a'
   897  101A  346E               	retlw	110	;'n'
   898  101B  3464               	retlw	100	;'d'
   899  101C  3420               	retlw	32	;' '
   900  101D  343A               	retlw	58	;':'
   901  101E  3420               	retlw	32	;' '
   902  101F  3400               	retlw	0
   903                           
   904                           	psect	stringtext2
   905  0000                     __pstringtext2:
   906                           
   907                           	psect	cinit
   908  07E7                     start_initialization:	
   909                           ; #config settings
   910                           
   911  07E7                     __initialization:	;BIGRAM
   912                           
   913                           ; Clear objects allocated to BIGRAM
   914  07E7  308C               	movlw	low (0+8588)
   915  07E8  0084               	movwf	4
   916  07E9  3021               	movlw	high (0+8588)
   917  07EA  0085               	movwf	5
   918  07EB  3064               	movlw	100
   919  07EC  00FE               	movwf	btemp
   920  07ED  3000               	movlw	0
   921  07EE  00FF               	movwf	btemp+1
   922  07EF  318A  221C  3187   	fcall	clear_ram0
   923                           
   924                           ; Clear objects allocated to BANK0
   925  07F2  3020               	movlw	low __pbssBANK0
   926  07F3  0084               	movwf	4
   927  07F4  3000               	movlw	high __pbssBANK0
   928  07F5  0085               	movwf	5
   929  07F6  3035               	movlw	53
   930  07F7  00FE               	movwf	btemp
   931  07F8  3000               	movlw	0
   932  07F9  00FF               	movwf	btemp+1
   933  07FA  318A  221C  3187   	fcall	clear_ram0
   934  07FD                     end_of_initialization:	
   935                           ;End of C runtime variable initialization code
   936                           
   937  07FD                     __end_of__initialization:
   938  07FD  0020               	movlb	0
   939  07FE  318B  2BC1         	ljmp	_main	;jump to C main() function
   940                           
   941                           	psect	bssBANK0
   942  0020                     __pbssBANK0:
   943  0020                     _dbuf:
   944  0020                     	ds	32
   945  0040                     _nout:
   946  0040                     	ds	2
   947  0042                     _width:
   948  0042                     	ds	2
   949  0044                     _prec:
   950  0044                     	ds	2
   951  0046                     _flags:
   952  0046                     	ds	2
   953  0048                     _count:
   954  0048                     	ds	2
   955  004A                     _i:
   956  004A                     	ds	2
   957  004C                     _eusartRxLastError:
   958  004C                     	ds	1
   959  004D                     _state_8:
   960  004D                     	ds	1
   961  004E                     _state_7:
   962  004E                     	ds	1
   963  004F                     _state_6:
   964  004F                     	ds	1
   965  0050                     _state_5:
   966  0050                     	ds	1
   967  0051                     _state_4:
   968  0051                     	ds	1
   969  0052                     _state_3:
   970  0052                     	ds	1
   971  0053                     _state_2:
   972  0053                     	ds	1
   973  0054                     _state_1:
   974  0054                     	ds	1
   975                           
   976                           	psect	clrtext
   977  0A1C                     clear_ram0:	
   978                           ;	Called with FSR0 containing the base address, and
   979                           ;	btemp/btemp+1 has the size to clear
   980                           
   981  0A1C  0064               	clrwdt	;clear the watchdog before getting into this loop
   982  0A1D                     clrloop0:
   983  0A1D  0180               	clrf	0	;clear RAM location pointed to by FSR
   984  0A1E  3101               	addfsr 0,1
   985  0A1F  3001               	movlw	1
   986  0A20  02FE               	subwf	btemp,f
   987  0A21  3000               	movlw	0
   988  0A22  3BFF               	subwfb	btemp+1,f
   989  0A23  087F               	movf	btemp+1,w
   990  0A24  047E               	iorwf	btemp,w
   991  0A25  1D03               	skipz
   992  0A26  2A1D               	goto	clrloop0	;have we reached the end yet?
   993  0A27  3400               	retlw	0	;all done for this memory range, return
   994                           
   995                           	psect	cstackCOMMON
   996  0070                     __pcstackCOMMON:
   997  0070                     ?_PIN_MANAGER_Initialize:
   998  0070                     ??_PIN_MANAGER_Initialize:	
   999                           ; 1 bytes @ 0x0
  1000                           
  1001  0070                     ?_OSCILLATOR_Initialize:	
  1002                           ; 1 bytes @ 0x0
  1003                           
  1004  0070                     ??_OSCILLATOR_Initialize:	
  1005                           ; 1 bytes @ 0x0
  1006                           
  1007  0070                     ?_WDT_Initialize:	
  1008                           ; 1 bytes @ 0x0
  1009                           
  1010  0070                     ??_WDT_Initialize:	
  1011                           ; 1 bytes @ 0x0
  1012                           
  1013  0070                     ?_EUSART_Initialize:	
  1014                           ; 1 bytes @ 0x0
  1015                           
  1016  0070                     ?_EUSART_SetFramingErrorHandler:	
  1017                           ; 1 bytes @ 0x0
  1018                           
  1019  0070                     ?_EUSART_SetOverrunErrorHandler:	
  1020                           ; 1 bytes @ 0x0
  1021                           
  1022  0070                     ?_EUSART_SetErrorHandler:	
  1023                           ; 1 bytes @ 0x0
  1024                           
  1025  0070                     ?_SYSTEM_Initialize:	
  1026                           ; 1 bytes @ 0x0
  1027                           
  1028  0070                     ?_LED_1_Blynk:	
  1029                           ; 1 bytes @ 0x0
  1030                           
  1031  0070                     ??_LED_1_Blynk:	
  1032                           ; 1 bytes @ 0x0
  1033                           
  1034  0070                     ?_LED_2_Blynk:	
  1035                           ; 1 bytes @ 0x0
  1036                           
  1037  0070                     ??_LED_2_Blynk:	
  1038                           ; 1 bytes @ 0x0
  1039                           
  1040  0070                     ?_LED_3_Blynk:	
  1041                           ; 1 bytes @ 0x0
  1042                           
  1043  0070                     ??_LED_3_Blynk:	
  1044                           ; 1 bytes @ 0x0
  1045                           
  1046  0070                     ?_LED_4_Blynk:	
  1047                           ; 1 bytes @ 0x0
  1048                           
  1049  0070                     ??_LED_4_Blynk:	
  1050                           ; 1 bytes @ 0x0
  1051                           
  1052  0070                     ?_LED_5_Blynk:	
  1053                           ; 1 bytes @ 0x0
  1054                           
  1055  0070                     ??_LED_5_Blynk:	
  1056                           ; 1 bytes @ 0x0
  1057                           
  1058  0070                     ?_LED_6_Blynk:	
  1059                           ; 1 bytes @ 0x0
  1060                           
  1061  0070                     ??_LED_6_Blynk:	
  1062                           ; 1 bytes @ 0x0
  1063                           
  1064  0070                     ?_LED_7_Blynk:	
  1065                           ; 1 bytes @ 0x0
  1066                           
  1067  0070                     ??_LED_7_Blynk:	
  1068                           ; 1 bytes @ 0x0
  1069                           
  1070  0070                     ?_LED_8_Blynk:	
  1071                           ; 1 bytes @ 0x0
  1072                           
  1073  0070                     ??_LED_8_Blynk:	
  1074                           ; 1 bytes @ 0x0
  1075                           
  1076  0070                     ?_Check_Blynk:	
  1077                           ; 1 bytes @ 0x0
  1078                           
  1079  0070                     ?_EUSART_is_tx_ready:	
  1080                           ; 1 bytes @ 0x0
  1081                           
  1082  0070                     ??_EUSART_is_tx_ready:	
  1083                           ; 1 bytes @ 0x0
  1084                           
  1085  0070                     ?_EUSART_is_rx_ready:	
  1086                           ; 1 bytes @ 0x0
  1087                           
  1088  0070                     ??_EUSART_is_rx_ready:	
  1089                           ; 1 bytes @ 0x0
  1090                           
  1091  0070                     ?_EUSART_Read:	
  1092                           ; 1 bytes @ 0x0
  1093                           
  1094  0070                     ??_EUSART_Read:	
  1095                           ; 1 bytes @ 0x0
  1096                           
  1097  0070                     ?_EUSART_Write:	
  1098                           ; 1 bytes @ 0x0
  1099                           
  1100  0070                     ??_EUSART_Write:	
  1101                           ; 1 bytes @ 0x0
  1102                           
  1103  0070                     ?_putch:	
  1104                           ; 1 bytes @ 0x0
  1105                           
  1106  0070                     ?_main:	
  1107                           ; 1 bytes @ 0x0
  1108                           
  1109  0070                     _EUSART_is_tx_ready$301:	
  1110                           ; 1 bytes @ 0x0
  1111                           
  1112  0070                     EUSART_Write@txData:	
  1113                           ; 1 bytes @ 0x0
  1114                           
  1115  0070                     EUSART_SetFramingErrorHandler@interruptHandler:	
  1116                           ; 1 bytes @ 0x0
  1117                           
  1118  0070                     EUSART_SetOverrunErrorHandler@interruptHandler:	
  1119                           ; 2 bytes @ 0x0
  1120                           
  1121  0070                     EUSART_SetErrorHandler@interruptHandler:	
  1122                           ; 2 bytes @ 0x0
  1123                           
  1124                           
  1125                           ; 2 bytes @ 0x0
  1126  0070                     	ds	1
  1127  0071                     ??_Check_Blynk:
  1128  0071                     ??_putch:	
  1129                           ; 1 bytes @ 0x1
  1130                           
  1131  0071                     putch@data:	
  1132                           ; 1 bytes @ 0x1
  1133                           
  1134                           
  1135                           ; 1 bytes @ 0x1
  1136  0071                     	ds	1
  1137  0072                     ??_EUSART_Initialize:
  1138  0072                     ??_EUSART_SetFramingErrorHandler:	
  1139                           ; 1 bytes @ 0x2
  1140                           
  1141  0072                     ??_EUSART_SetOverrunErrorHandler:	
  1142                           ; 1 bytes @ 0x2
  1143                           
  1144  0072                     ??_EUSART_SetErrorHandler:	
  1145                           ; 1 bytes @ 0x2
  1146                           
  1147  0072                     ??_SYSTEM_Initialize:	
  1148                           ; 1 bytes @ 0x2
  1149                           
  1150  0072                     ?_fputc:	
  1151                           ; 1 bytes @ 0x2
  1152                           
  1153  0072                     fputc@c:	
  1154                           ; 2 bytes @ 0x2
  1155                           
  1156                           
  1157                           ; 2 bytes @ 0x2
  1158  0072                     	ds	2
  1159  0074                     fputc@fp:
  1160                           
  1161                           ; 1 bytes @ 0x4
  1162  0074                     	ds	1
  1163  0075                     ??_fputc:
  1164                           
  1165                           ; 1 bytes @ 0x5
  1166  0075                     	ds	5
  1167  007A                     ?_vfpfcnvrt:
  1168  007A                     vfpfcnvrt@fmt:	
  1169                           ; 2 bytes @ 0xA
  1170                           
  1171                           
  1172                           ; 1 bytes @ 0xA
  1173  007A                     	ds	1
  1174  007B                     vfpfcnvrt@ap:
  1175                           
  1176                           ; 1 bytes @ 0xB
  1177  007B                     	ds	1
  1178  007C                     vfpfcnvrt@fp:
  1179                           
  1180                           ; 1 bytes @ 0xC
  1181  007C                     	ds	1
  1182  007D                     ??_printf:
  1183                           
  1184                           ; 1 bytes @ 0xD
  1185  007D                     	ds	1
  1186                           
  1187                           	psect	cstackBANK0
  1188  0055                     __pcstackBANK0:
  1189  0055                     ??_vfpfcnvrt:
  1190                           
  1191                           ; 1 bytes @ 0x0
  1192  0055                     	ds	5
  1193  005A                     ?_vfprintf:
  1194  005A                     vfprintf@fmt:	
  1195                           ; 2 bytes @ 0x5
  1196                           
  1197                           
  1198                           ; 2 bytes @ 0x5
  1199  005A                     	ds	2
  1200  005C                     vfprintf@ap:
  1201                           
  1202                           ; 1 bytes @ 0x7
  1203  005C                     	ds	1
  1204  005D                     ??_vfprintf:
  1205                           
  1206                           ; 1 bytes @ 0x8
  1207  005D                     	ds	2
  1208  005F                     vfprintf@fp:
  1209                           
  1210                           ; 1 bytes @ 0xA
  1211  005F                     	ds	1
  1212  0060                     vfprintf@cfmt:
  1213                           
  1214                           ; 2 bytes @ 0xB
  1215  0060                     	ds	2
  1216  0062                     ?_printf:
  1217  0062                     printf@fmt:	
  1218                           ; 2 bytes @ 0xD
  1219                           
  1220                           
  1221                           ; 2 bytes @ 0xD
  1222  0062                     	ds	2
  1223  0064                     printf@ap:
  1224                           
  1225                           ; 1 bytes @ 0xF
  1226  0064                     	ds	1
  1227  0065                     ??_main:
  1228                           
  1229                           ; 1 bytes @ 0x10
  1230  0065                     	ds	5
  1231                           
  1232                           	psect	maintext
  1233  0BC1                     __pmaintext:	
  1234 ;;
  1235 ;;Main: autosize = 0, tempsize = 5, incstack = 0, save=0
  1236 ;;
  1237 ;; *************** function _main *****************
  1238 ;; Defined at:
  1239 ;;		line 59 in file "main.c"
  1240 ;; Parameters:    Size  Location     Type
  1241 ;;		None
  1242 ;; Auto vars:     Size  Location     Type
  1243 ;;		None
  1244 ;; Return value:  Size  Location     Type
  1245 ;;                  1    wreg      void 
  1246 ;; Registers used:
  1247 ;;		wreg, fsr0l, fsr0h, fsr1l, fsr1h, status,2, status,0, pclath, cstack
  1248 ;; Tracked objects:
  1249 ;;		On entry : B1F/0
  1250 ;;		On exit  : 0/0
  1251 ;;		Unchanged: 0/0
  1252 ;; Data sizes:     COMMON   BANK0   BANK1   BANK2   BANK3   BANK4   BANK5   BANK6
  1253 ;;      Params:         0       0       0       0       0       0       0       0
  1254 ;;      Locals:         0       0       0       0       0       0       0       0
  1255 ;;      Temps:          0       5       0       0       0       0       0       0
  1256 ;;      Totals:         0       5       0       0       0       0       0       0
  1257 ;;Total ram usage:        5 bytes
  1258 ;; Hardware stack levels required when called: 6
  1259 ;; This function calls:
  1260 ;;		_Check_Blynk
  1261 ;;		_EUSART_Read
  1262 ;;		_EUSART_is_rx_ready
  1263 ;;		_SYSTEM_Initialize
  1264 ;;		_printf
  1265 ;; This function is called by:
  1266 ;;		Startup code after reset
  1267 ;; This function uses a non-reentrant model
  1268 ;;
  1269                           
  1270  0BC1                     _main:	
  1271                           ;psect for function _main
  1272                           
  1273  0BC1                     l2111:	
  1274                           ;incstack = 0
  1275                           ; Regs used in _main: [wreg-fsr1h+status,2+status,0+pclath+cstack]
  1276                           
  1277                           
  1278                           ;main.c: 62:     SYSTEM_Initialize();
  1279  0BC1  318A  2228  318B   	fcall	_SYSTEM_Initialize
  1280  0BC4                     l2113:
  1281                           
  1282                           ;main.c: 79:     printf("Please write control command : ");
  1283  0BC4  3000               	movlw	low (STR_1| (0+32768))
  1284  0BC5  0020               	movlb	0	; select bank0
  1285  0BC6  00E2               	movwf	printf@fmt
  1286  0BC7  3090               	movlw	high (STR_1| (0+32768))
  1287  0BC8  00E3               	movwf	printf@fmt+1
  1288  0BC9  318A  2253  318B   	fcall	_printf
  1289  0BCC                     l2115:
  1290                           
  1291                           ;main.c: 81:     {;main.c: 83:         if (count == 0){
  1292  0BCC  0020               	movlb	0	; select bank0
  1293  0BCD  0848               	movf	_count,w
  1294  0BCE  0449               	iorwf	_count+1,w
  1295  0BCF  1D03               	btfss	3,2
  1296  0BD0  2BD2               	goto	u2621
  1297  0BD1  2BD3               	goto	u2620
  1298  0BD2                     u2621:
  1299  0BD2  2C1B               	goto	l2131
  1300  0BD3                     u2620:
  1301  0BD3                     l2117:
  1302                           
  1303                           ;main.c: 84:             for (i=0 ; i<10 ; i++){
  1304  0BD3  01CA               	clrf	_i
  1305  0BD4  01CB               	clrf	_i+1
  1306  0BD5  2BD9               	goto	l261
  1307  0BD6                     l2123:
  1308  0BD6  318A  2265  318B   	fcall	_Check_Blynk
  1309  0BD9                     l261:
  1310  0BD9  3189  21F5  318B   	fcall	_EUSART_is_rx_ready
  1311  0BDC  3A00               	xorlw	0
  1312  0BDD  1903               	skipnz
  1313  0BDE  2BE0               	goto	u2631
  1314  0BDF  2BE1               	goto	u2630
  1315  0BE0                     u2631:
  1316  0BE0  2BD6               	goto	l2123
  1317  0BE1                     u2630:
  1318  0BE1                     l2125:
  1319                           
  1320                           ;main.c: 86:                 str[i]=EUSART_Read();
  1321  0BE1  318A  2235  318B   	fcall	_EUSART_Read
  1322  0BE4  0020               	movlb	0	; select bank0
  1323  0BE5  00E5               	movwf	??_main
  1324  0BE6  308C               	movlw	140
  1325  0BE7  00E6               	movwf	??_main+1
  1326  0BE8  3021               	movlw	33
  1327  0BE9  00E7               	movwf	??_main+2
  1328  0BEA  084A               	movf	_i,w
  1329  0BEB  0766               	addwf	??_main+1,w
  1330  0BEC  00E8               	movwf	??_main+3
  1331  0BED  084B               	movf	_i+1,w
  1332  0BEE  3D67               	addwfc	??_main+2,w
  1333  0BEF  00E9               	movwf	??_main+4
  1334  0BF0  0868               	movf	??_main+3,w
  1335  0BF1  0086               	movwf	6
  1336  0BF2  0869               	movf	??_main+4,w
  1337  0BF3  0087               	movwf	7
  1338  0BF4  0865               	movf	??_main,w
  1339  0BF5  0081               	movwf	1
  1340  0BF6                     l2127:
  1341                           
  1342                           ;main.c: 87:                 if (str[i]=='#') i=11;
  1343  0BF6  308C               	movlw	140
  1344  0BF7  00E5               	movwf	??_main
  1345  0BF8  3021               	movlw	33
  1346  0BF9  00E6               	movwf	??_main+1
  1347  0BFA  084A               	movf	_i,w
  1348  0BFB  0765               	addwf	??_main,w
  1349  0BFC  0086               	movwf	6
  1350  0BFD  084B               	movf	_i+1,w
  1351  0BFE  3D66               	addwfc	??_main+1,w
  1352  0BFF  0087               	movwf	7
  1353  0C00  3023               	movlw	35
  1354  0C01  0601               	xorwf	1,w
  1355  0C02  1D03               	btfss	3,2
  1356  0C03  2C05               	goto	u2641
  1357  0C04  2C06               	goto	u2640
  1358  0C05                     u2641:
  1359  0C05  2C0A               	goto	l264
  1360  0C06                     u2640:
  1361  0C06                     l2129:
  1362  0C06  300B               	movlw	11
  1363  0C07  00CA               	movwf	_i
  1364  0C08  3000               	movlw	0
  1365  0C09  00CB               	movwf	_i+1
  1366  0C0A                     l264:
  1367                           
  1368                           ;main.c: 88:             }
  1369  0C0A  3001               	movlw	1
  1370  0C0B  07CA               	addwf	_i,f
  1371  0C0C  3000               	movlw	0
  1372  0C0D  3DCB               	addwfc	_i+1,f
  1373  0C0E  084B               	movf	_i+1,w
  1374  0C0F  3A80               	xorlw	128
  1375  0C10  00E5               	movwf	??_main
  1376  0C11  3080               	movlw	128
  1377  0C12  0265               	subwf	??_main,w
  1378  0C13  1D03               	skipz
  1379  0C14  2C17               	goto	u2655
  1380  0C15  300A               	movlw	10
  1381  0C16  024A               	subwf	_i,w
  1382  0C17                     u2655:
  1383  0C17  1C03               	skipc
  1384  0C18  2C1A               	goto	u2651
  1385  0C19  2C1B               	goto	u2650
  1386  0C1A                     u2651:
  1387  0C1A  2BD9               	goto	l261
  1388  0C1B                     u2650:
  1389  0C1B                     l2131:
  1390                           
  1391                           ;main.c: 92:         if ((str[0]=='O')&&(str[1]=='N')&&(str[2]=='0')&&(str[3]=='1')&&(st
      +                          r[4]=='#')){
  1392  0C1B  308C               	movlw	140
  1393  0C1C  0086               	movwf	6
  1394  0C1D  3021               	movlw	33
  1395  0C1E  0087               	movwf	7
  1396  0C1F  304F               	movlw	79
  1397  0C20  0601               	xorwf	1,w
  1398  0C21  1D03               	btfss	3,2
  1399  0C22  2C24               	goto	u2661
  1400  0C23  2C25               	goto	u2660
  1401  0C24                     u2661:
  1402  0C24  2C57               	goto	l2145
  1403  0C25                     u2660:
  1404  0C25                     l2133:
  1405  0C25  308C               	movlw	140
  1406  0C26  0086               	movwf	6
  1407  0C27  3021               	movlw	33
  1408  0C28  0087               	movwf	7
  1409  0C29  3141               	addfsr 1,1
  1410  0C2A  304E               	movlw	78
  1411  0C2B  0601               	xorwf	1,w
  1412  0C2C  1D03               	btfss	3,2
  1413  0C2D  2C2F               	goto	u2671
  1414  0C2E  2C30               	goto	u2670
  1415  0C2F                     u2671:
  1416  0C2F  2C57               	goto	l2145
  1417  0C30                     u2670:
  1418  0C30                     l2135:
  1419  0C30  308C               	movlw	140
  1420  0C31  0086               	movwf	6
  1421  0C32  3021               	movlw	33
  1422  0C33  0087               	movwf	7
  1423  0C34  3142               	addfsr 1,2
  1424  0C35  3030               	movlw	48
  1425  0C36  0601               	xorwf	1,w
  1426  0C37  1D03               	btfss	3,2
  1427  0C38  2C3A               	goto	u2681
  1428  0C39  2C3B               	goto	u2680
  1429  0C3A                     u2681:
  1430  0C3A  2C57               	goto	l2145
  1431  0C3B                     u2680:
  1432  0C3B                     l2137:
  1433  0C3B  308C               	movlw	140
  1434  0C3C  0086               	movwf	6
  1435  0C3D  3021               	movlw	33
  1436  0C3E  0087               	movwf	7
  1437  0C3F  3143               	addfsr 1,3
  1438  0C40  3031               	movlw	49
  1439  0C41  0601               	xorwf	1,w
  1440  0C42  1D03               	btfss	3,2
  1441  0C43  2C45               	goto	u2691
  1442  0C44  2C46               	goto	u2690
  1443  0C45                     u2691:
  1444  0C45  2C57               	goto	l2145
  1445  0C46                     u2690:
  1446  0C46                     l2139:
  1447  0C46  308C               	movlw	140
  1448  0C47  0086               	movwf	6
  1449  0C48  3021               	movlw	33
  1450  0C49  0087               	movwf	7
  1451  0C4A  3144               	addfsr 1,4
  1452  0C4B  3023               	movlw	35
  1453  0C4C  0601               	xorwf	1,w
  1454  0C4D  1D03               	btfss	3,2
  1455  0C4E  2C50               	goto	u2701
  1456  0C4F  2C51               	goto	u2700
  1457  0C50                     u2701:
  1458  0C50  2C57               	goto	l2145
  1459  0C51                     u2700:
  1460  0C51                     l2141:
  1461                           
  1462                           ;main.c: 93:             LATCbits.LATC0 =1 ;
  1463  0C51  0022               	movlb	2	; select bank2
  1464  0C52  140E               	bsf	14,0	;volatile
  1465  0C53                     l2143:
  1466                           
  1467                           ;main.c: 94:             state_1 = 0;
  1468  0C53  0020               	movlb	0	; select bank0
  1469  0C54  01D4               	clrf	_state_1
  1470                           
  1471                           ;main.c: 95:             count = 0;
  1472  0C55  01C8               	clrf	_count
  1473  0C56  01C9               	clrf	_count+1
  1474  0C57                     l2145:
  1475                           
  1476                           ;main.c: 97:         if ((str[0]=='O')&&(str[1]=='N')&&(str[2]=='0')&&(str[3]=='2')&&(st
      +                          r[4]=='#')){
  1477  0C57  308C               	movlw	140
  1478  0C58  0086               	movwf	6
  1479  0C59  3021               	movlw	33
  1480  0C5A  0087               	movwf	7
  1481  0C5B  304F               	movlw	79
  1482  0C5C  0601               	xorwf	1,w
  1483  0C5D  1D03               	btfss	3,2
  1484  0C5E  2C60               	goto	u2711
  1485  0C5F  2C61               	goto	u2710
  1486  0C60                     u2711:
  1487  0C60  2C93               	goto	l2159
  1488  0C61                     u2710:
  1489  0C61                     l2147:
  1490  0C61  308C               	movlw	140
  1491  0C62  0086               	movwf	6
  1492  0C63  3021               	movlw	33
  1493  0C64  0087               	movwf	7
  1494  0C65  3141               	addfsr 1,1
  1495  0C66  304E               	movlw	78
  1496  0C67  0601               	xorwf	1,w
  1497  0C68  1D03               	btfss	3,2
  1498  0C69  2C6B               	goto	u2721
  1499  0C6A  2C6C               	goto	u2720
  1500  0C6B                     u2721:
  1501  0C6B  2C93               	goto	l2159
  1502  0C6C                     u2720:
  1503  0C6C                     l2149:
  1504  0C6C  308C               	movlw	140
  1505  0C6D  0086               	movwf	6
  1506  0C6E  3021               	movlw	33
  1507  0C6F  0087               	movwf	7
  1508  0C70  3142               	addfsr 1,2
  1509  0C71  3030               	movlw	48
  1510  0C72  0601               	xorwf	1,w
  1511  0C73  1D03               	btfss	3,2
  1512  0C74  2C76               	goto	u2731
  1513  0C75  2C77               	goto	u2730
  1514  0C76                     u2731:
  1515  0C76  2C93               	goto	l2159
  1516  0C77                     u2730:
  1517  0C77                     l2151:
  1518  0C77  308C               	movlw	140
  1519  0C78  0086               	movwf	6
  1520  0C79  3021               	movlw	33
  1521  0C7A  0087               	movwf	7
  1522  0C7B  3143               	addfsr 1,3
  1523  0C7C  3032               	movlw	50
  1524  0C7D  0601               	xorwf	1,w
  1525  0C7E  1D03               	btfss	3,2
  1526  0C7F  2C81               	goto	u2741
  1527  0C80  2C82               	goto	u2740
  1528  0C81                     u2741:
  1529  0C81  2C93               	goto	l2159
  1530  0C82                     u2740:
  1531  0C82                     l2153:
  1532  0C82  308C               	movlw	140
  1533  0C83  0086               	movwf	6
  1534  0C84  3021               	movlw	33
  1535  0C85  0087               	movwf	7
  1536  0C86  3144               	addfsr 1,4
  1537  0C87  3023               	movlw	35
  1538  0C88  0601               	xorwf	1,w
  1539  0C89  1D03               	btfss	3,2
  1540  0C8A  2C8C               	goto	u2751
  1541  0C8B  2C8D               	goto	u2750
  1542  0C8C                     u2751:
  1543  0C8C  2C93               	goto	l2159
  1544  0C8D                     u2750:
  1545  0C8D                     l2155:
  1546                           
  1547                           ;main.c: 98:             LATCbits.LATC1 =1 ;
  1548  0C8D  0022               	movlb	2	; select bank2
  1549  0C8E  148E               	bsf	14,1	;volatile
  1550  0C8F                     l2157:
  1551                           
  1552                           ;main.c: 99:             state_2 = 0;
  1553  0C8F  0020               	movlb	0	; select bank0
  1554  0C90  01D3               	clrf	_state_2
  1555                           
  1556                           ;main.c: 100:             count = 0;
  1557  0C91  01C8               	clrf	_count
  1558  0C92  01C9               	clrf	_count+1
  1559  0C93                     l2159:
  1560                           
  1561                           ;main.c: 102:         if ((str[0]=='O')&&(str[1]=='N')&&(str[2]=='0')&&(str[3]=='3')&&(s
      +                          tr[4]=='#')){
  1562  0C93  308C               	movlw	140
  1563  0C94  0086               	movwf	6
  1564  0C95  3021               	movlw	33
  1565  0C96  0087               	movwf	7
  1566  0C97  304F               	movlw	79
  1567  0C98  0601               	xorwf	1,w
  1568  0C99  1D03               	btfss	3,2
  1569  0C9A  2C9C               	goto	u2761
  1570  0C9B  2C9D               	goto	u2760
  1571  0C9C                     u2761:
  1572  0C9C  2CCF               	goto	l2173
  1573  0C9D                     u2760:
  1574  0C9D                     l2161:
  1575  0C9D  308C               	movlw	140
  1576  0C9E  0086               	movwf	6
  1577  0C9F  3021               	movlw	33
  1578  0CA0  0087               	movwf	7
  1579  0CA1  3141               	addfsr 1,1
  1580  0CA2  304E               	movlw	78
  1581  0CA3  0601               	xorwf	1,w
  1582  0CA4  1D03               	btfss	3,2
  1583  0CA5  2CA7               	goto	u2771
  1584  0CA6  2CA8               	goto	u2770
  1585  0CA7                     u2771:
  1586  0CA7  2CCF               	goto	l2173
  1587  0CA8                     u2770:
  1588  0CA8                     l2163:
  1589  0CA8  308C               	movlw	140
  1590  0CA9  0086               	movwf	6
  1591  0CAA  3021               	movlw	33
  1592  0CAB  0087               	movwf	7
  1593  0CAC  3142               	addfsr 1,2
  1594  0CAD  3030               	movlw	48
  1595  0CAE  0601               	xorwf	1,w
  1596  0CAF  1D03               	btfss	3,2
  1597  0CB0  2CB2               	goto	u2781
  1598  0CB1  2CB3               	goto	u2780
  1599  0CB2                     u2781:
  1600  0CB2  2CCF               	goto	l2173
  1601  0CB3                     u2780:
  1602  0CB3                     l2165:
  1603  0CB3  308C               	movlw	140
  1604  0CB4  0086               	movwf	6
  1605  0CB5  3021               	movlw	33
  1606  0CB6  0087               	movwf	7
  1607  0CB7  3143               	addfsr 1,3
  1608  0CB8  3033               	movlw	51
  1609  0CB9  0601               	xorwf	1,w
  1610  0CBA  1D03               	btfss	3,2
  1611  0CBB  2CBD               	goto	u2791
  1612  0CBC  2CBE               	goto	u2790
  1613  0CBD                     u2791:
  1614  0CBD  2CCF               	goto	l2173
  1615  0CBE                     u2790:
  1616  0CBE                     l2167:
  1617  0CBE  308C               	movlw	140
  1618  0CBF  0086               	movwf	6
  1619  0CC0  3021               	movlw	33
  1620  0CC1  0087               	movwf	7
  1621  0CC2  3144               	addfsr 1,4
  1622  0CC3  3023               	movlw	35
  1623  0CC4  0601               	xorwf	1,w
  1624  0CC5  1D03               	btfss	3,2
  1625  0CC6  2CC8               	goto	u2801
  1626  0CC7  2CC9               	goto	u2800
  1627  0CC8                     u2801:
  1628  0CC8  2CCF               	goto	l2173
  1629  0CC9                     u2800:
  1630  0CC9                     l2169:
  1631                           
  1632                           ;main.c: 103:             LATCbits.LATC2 =1 ;
  1633  0CC9  0022               	movlb	2	; select bank2
  1634  0CCA  150E               	bsf	14,2	;volatile
  1635  0CCB                     l2171:
  1636                           
  1637                           ;main.c: 104:             state_3 = 0;
  1638  0CCB  0020               	movlb	0	; select bank0
  1639  0CCC  01D2               	clrf	_state_3
  1640                           
  1641                           ;main.c: 105:             count = 0;
  1642  0CCD  01C8               	clrf	_count
  1643  0CCE  01C9               	clrf	_count+1
  1644  0CCF                     l2173:
  1645                           
  1646                           ;main.c: 107:         if ((str[0]=='O')&&(str[1]=='N')&&(str[2]=='0')&&(str[3]=='4')&&(s
      +                          tr[4]=='#')){
  1647  0CCF  308C               	movlw	140
  1648  0CD0  0086               	movwf	6
  1649  0CD1  3021               	movlw	33
  1650  0CD2  0087               	movwf	7
  1651  0CD3  304F               	movlw	79
  1652  0CD4  0601               	xorwf	1,w
  1653  0CD5  1D03               	btfss	3,2
  1654  0CD6  2CD8               	goto	u2811
  1655  0CD7  2CD9               	goto	u2810
  1656  0CD8                     u2811:
  1657  0CD8  2D0B               	goto	l2187
  1658  0CD9                     u2810:
  1659  0CD9                     l2175:
  1660  0CD9  308C               	movlw	140
  1661  0CDA  0086               	movwf	6
  1662  0CDB  3021               	movlw	33
  1663  0CDC  0087               	movwf	7
  1664  0CDD  3141               	addfsr 1,1
  1665  0CDE  304E               	movlw	78
  1666  0CDF  0601               	xorwf	1,w
  1667  0CE0  1D03               	btfss	3,2
  1668  0CE1  2CE3               	goto	u2821
  1669  0CE2  2CE4               	goto	u2820
  1670  0CE3                     u2821:
  1671  0CE3  2D0B               	goto	l2187
  1672  0CE4                     u2820:
  1673  0CE4                     l2177:
  1674  0CE4  308C               	movlw	140
  1675  0CE5  0086               	movwf	6
  1676  0CE6  3021               	movlw	33
  1677  0CE7  0087               	movwf	7
  1678  0CE8  3142               	addfsr 1,2
  1679  0CE9  3030               	movlw	48
  1680  0CEA  0601               	xorwf	1,w
  1681  0CEB  1D03               	btfss	3,2
  1682  0CEC  2CEE               	goto	u2831
  1683  0CED  2CEF               	goto	u2830
  1684  0CEE                     u2831:
  1685  0CEE  2D0B               	goto	l2187
  1686  0CEF                     u2830:
  1687  0CEF                     l2179:
  1688  0CEF  308C               	movlw	140
  1689  0CF0  0086               	movwf	6
  1690  0CF1  3021               	movlw	33
  1691  0CF2  0087               	movwf	7
  1692  0CF3  3143               	addfsr 1,3
  1693  0CF4  3034               	movlw	52
  1694  0CF5  0601               	xorwf	1,w
  1695  0CF6  1D03               	btfss	3,2
  1696  0CF7  2CF9               	goto	u2841
  1697  0CF8  2CFA               	goto	u2840
  1698  0CF9                     u2841:
  1699  0CF9  2D0B               	goto	l2187
  1700  0CFA                     u2840:
  1701  0CFA                     l2181:
  1702  0CFA  308C               	movlw	140
  1703  0CFB  0086               	movwf	6
  1704  0CFC  3021               	movlw	33
  1705  0CFD  0087               	movwf	7
  1706  0CFE  3144               	addfsr 1,4
  1707  0CFF  3023               	movlw	35
  1708  0D00  0601               	xorwf	1,w
  1709  0D01  1D03               	btfss	3,2
  1710  0D02  2D04               	goto	u2851
  1711  0D03  2D05               	goto	u2850
  1712  0D04                     u2851:
  1713  0D04  2D0B               	goto	l2187
  1714  0D05                     u2850:
  1715  0D05                     l2183:
  1716                           
  1717                           ;main.c: 108:             LATCbits.LATC3 =1 ;
  1718  0D05  0022               	movlb	2	; select bank2
  1719  0D06  158E               	bsf	14,3	;volatile
  1720  0D07                     l2185:
  1721                           
  1722                           ;main.c: 109:             state_4 = 0;
  1723  0D07  0020               	movlb	0	; select bank0
  1724  0D08  01D1               	clrf	_state_4
  1725                           
  1726                           ;main.c: 110:             count = 0;
  1727  0D09  01C8               	clrf	_count
  1728  0D0A  01C9               	clrf	_count+1
  1729  0D0B                     l2187:
  1730                           
  1731                           ;main.c: 112:         if ((str[0]=='O')&&(str[1]=='N')&&(str[2]=='0')&&(str[3]=='5')&&(s
      +                          tr[4]=='#')){
  1732  0D0B  308C               	movlw	140
  1733  0D0C  0086               	movwf	6
  1734  0D0D  3021               	movlw	33
  1735  0D0E  0087               	movwf	7
  1736  0D0F  304F               	movlw	79
  1737  0D10  0601               	xorwf	1,w
  1738  0D11  1D03               	btfss	3,2
  1739  0D12  2D15               	goto	u2861
  1740  0D13  318E  2E8B         	goto	u2860
  1741  0D15                     u2861:
  1742  0D15  318E  2EBD         	goto	l2201
  1743                           
  1744                           	psect	text1
  1745  0A53                     __ptext1:	
  1746 ;; *************** function _printf *****************
  1747 ;; Defined at:
  1748 ;;		line 5 in file "C:\Program Files\Microchip\xc8\v2.36\pic\sources\c99\common\printf.c"
  1749 ;; Parameters:    Size  Location     Type
  1750 ;;  fmt             2   13[BANK0 ] PTR const unsigned char 
  1751 ;;		 -> STR_1(32), 
  1752 ;; Auto vars:     Size  Location     Type
  1753 ;;  ret             2    0        int 
  1754 ;;  ap              1   15[BANK0 ] PTR void [1]
  1755 ;;		 -> ?_printf(2), 
  1756 ;; Return value:  Size  Location     Type
  1757 ;;                  2   13[BANK0 ] int 
  1758 ;; Registers used:
  1759 ;;		wreg, fsr0l, fsr0h, fsr1l, fsr1h, status,2, status,0, pclath, cstack
  1760 ;; Tracked objects:
  1761 ;;		On entry : 0/0
  1762 ;;		On exit  : 0/0
  1763 ;;		Unchanged: 0/0
  1764 ;; Data sizes:     COMMON   BANK0   BANK1   BANK2   BANK3   BANK4   BANK5   BANK6
  1765 ;;      Params:         0       2       0       0       0       0       0       0
  1766 ;;      Locals:         0       1       0       0       0       0       0       0
  1767 ;;      Temps:          1       0       0       0       0       0       0       0
  1768 ;;      Totals:         1       3       0       0       0       0       0       0
  1769 ;;Total ram usage:        4 bytes
  1770 ;; Hardware stack levels used: 1
  1771 ;; Hardware stack levels required when called: 5
  1772 ;; This function calls:
  1773 ;;		_vfprintf
  1774 ;; This function is called by:
  1775 ;;		_main
  1776 ;; This function uses a non-reentrant model
  1777 ;;
  1778                           
  1779  0A53                     _printf:	
  1780                           ;psect for function _printf
  1781                           
  1782  0A53                     l2105:	
  1783                           ;incstack = 0
  1784                           ; Regs used in _printf: [wreg-fsr1h+status,2+status,0+pclath+cstack]
  1785                           
  1786  0A53  3064               	movlw	(low ((?_printf| 0+2)))& (0+255)
  1787  0A54  00FD               	movwf	??_printf
  1788  0A55  087D               	movf	??_printf,w
  1789  0A56  0020               	movlb	0	; select bank0
  1790  0A57  00E4               	movwf	printf@ap
  1791  0A58                     l2107:
  1792  0A58  0863               	movf	printf@fmt+1,w
  1793  0A59  00DB               	movwf	vfprintf@fmt+1
  1794  0A5A  0862               	movf	printf@fmt,w
  1795  0A5B  00DA               	movwf	vfprintf@fmt
  1796  0A5C  3064               	movlw	(low (printf@ap| 0))& (0+255)
  1797  0A5D  00FD               	movwf	??_printf
  1798  0A5E  087D               	movf	??_printf,w
  1799  0A5F  00DC               	movwf	vfprintf@ap
  1800  0A60  3000               	movlw	0
  1801  0A61  318B  2399  318A   	fcall	_vfprintf
  1802  0A64                     l922:
  1803  0A64  0008               	return
  1804  0A65                     __end_of_printf:
  1805                           
  1806                           	psect	text2
  1807  0B99                     __ptext2:	
  1808 ;; *************** function _vfprintf *****************
  1809 ;; Defined at:
  1810 ;;		line 1390 in file "C:\Program Files\Microchip\xc8\v2.36\pic\sources\c99\common\doprnt.c"
  1811 ;; Parameters:    Size  Location     Type
  1812 ;;  fp              1    wreg     PTR struct _IO_FILE
  1813 ;;		 -> NULL(0), 
  1814 ;;  fmt             2    5[BANK0 ] PTR const unsigned char 
  1815 ;;		 -> STR_1(32), 
  1816 ;;  ap              1    7[BANK0 ] PTR PTR void 
  1817 ;;		 -> printf@ap(1), 
  1818 ;; Auto vars:     Size  Location     Type
  1819 ;;  fp              1   10[BANK0 ] PTR struct _IO_FILE
  1820 ;;		 -> NULL(0), 
  1821 ;;  cfmt            2   11[BANK0 ] PTR unsigned char 
  1822 ;;		 -> STR_1(32), 
  1823 ;; Return value:  Size  Location     Type
  1824 ;;                  2    5[BANK0 ] int 
  1825 ;; Registers used:
  1826 ;;		wreg, fsr0l, fsr0h, fsr1l, fsr1h, status,2, status,0, pclath, cstack
  1827 ;; Tracked objects:
  1828 ;;		On entry : 0/0
  1829 ;;		On exit  : 0/0
  1830 ;;		Unchanged: 0/0
  1831 ;; Data sizes:     COMMON   BANK0   BANK1   BANK2   BANK3   BANK4   BANK5   BANK6
  1832 ;;      Params:         0       3       0       0       0       0       0       0
  1833 ;;      Locals:         0       3       0       0       0       0       0       0
  1834 ;;      Temps:          0       2       0       0       0       0       0       0
  1835 ;;      Totals:         0       8       0       0       0       0       0       0
  1836 ;;Total ram usage:        8 bytes
  1837 ;; Hardware stack levels used: 1
  1838 ;; Hardware stack levels required when called: 4
  1839 ;; This function calls:
  1840 ;;		_vfpfcnvrt
  1841 ;; This function is called by:
  1842 ;;		_printf
  1843 ;; This function uses a non-reentrant model
  1844 ;;
  1845                           
  1846  0B99                     _vfprintf:	
  1847                           ;psect for function _vfprintf
  1848                           
  1849                           
  1850                           ;incstack = 0
  1851                           ; Regs used in _vfprintf: [wreg-fsr1h+status,2+status,0+pclath+cstack]
  1852                           ;vfprintf@fp stored from wreg
  1853  0B99  0020               	movlb	0	; select bank0
  1854  0B9A  00DF               	movwf	vfprintf@fp
  1855  0B9B                     l2073:
  1856                           
  1857                           ;C:\Program Files\Microchip\xc8\v2.36\pic\sources\c99\common\doprnt.c: 1390: int vfprint
      +                          f(FILE *fp, const char *fmt, va_list ap);C:\Program Files\Microchip\xc8\v2.36\pic\source
      +                          s\c99\common\doprnt.c: 1391: {;C:\Program Files\Microchip\xc8\v2.36\pic\sources\c99\comm
      +                          on\doprnt.c: 1393:     char *cfmt;;C:\Program Files\Microchip\xc8\v2.36\pic\sources\c99\
      +                          common\doprnt.c: 1395:     cfmt = (char *)fmt;
  1858  0B9B  085B               	movf	vfprintf@fmt+1,w
  1859  0B9C  00E1               	movwf	vfprintf@cfmt+1
  1860  0B9D  085A               	movf	vfprintf@fmt,w
  1861  0B9E  00E0               	movwf	vfprintf@cfmt
  1862  0B9F                     l2075:
  1863                           
  1864                           ;C:\Program Files\Microchip\xc8\v2.36\pic\sources\c99\common\doprnt.c: 1396:     nout = 
      +                          0;
  1865  0B9F  01C0               	clrf	_nout
  1866  0BA0  01C1               	clrf	_nout+1
  1867                           
  1868                           ;C:\Program Files\Microchip\xc8\v2.36\pic\sources\c99\common\doprnt.c: 1397:     while (
      +                          *cfmt) {
  1869  0BA1  2BB3               	goto	l2079
  1870  0BA2                     l2077:
  1871                           
  1872                           ;C:\Program Files\Microchip\xc8\v2.36\pic\sources\c99\common\doprnt.c: 1398:         nou
      +                          t += vfpfcnvrt(fp, &cfmt, ap);
  1873  0BA2  3060               	movlw	(low (vfprintf@cfmt| 0))& (0+255)
  1874  0BA3  00DD               	movwf	??_vfprintf
  1875  0BA4  085D               	movf	??_vfprintf,w
  1876  0BA5  00FA               	movwf	vfpfcnvrt@fmt
  1877  0BA6  085C               	movf	vfprintf@ap,w
  1878  0BA7  00DE               	movwf	??_vfprintf+1
  1879  0BA8  085E               	movf	??_vfprintf+1,w
  1880  0BA9  00FB               	movwf	vfpfcnvrt@ap
  1881  0BAA  085F               	movf	vfprintf@fp,w
  1882  0BAB  3180  2053  318B   	fcall	_vfpfcnvrt
  1883  0BAE  087A               	movf	?_vfpfcnvrt,w
  1884  0BAF  0020               	movlb	0	; select bank0
  1885  0BB0  07C0               	addwf	_nout,f
  1886  0BB1  087B               	movf	?_vfpfcnvrt+1,w
  1887  0BB2  3DC1               	addwfc	_nout+1,f
  1888  0BB3                     l2079:
  1889                           
  1890                           ;C:\Program Files\Microchip\xc8\v2.36\pic\sources\c99\common\doprnt.c: 1397:     while (
      +                          *cfmt) {
  1891  0BB3  0860               	movf	vfprintf@cfmt,w
  1892  0BB4  0084               	movwf	4
  1893  0BB5  0861               	movf	vfprintf@cfmt+1,w
  1894  0BB6  0085               	movwf	5
  1895  0BB7  0012               	moviw fsr0++
  1896  0BB8  1D03               	btfss	3,2
  1897  0BB9  2BBB               	goto	u2591
  1898  0BBA  2BBC               	goto	u2590
  1899  0BBB                     u2591:
  1900  0BBB  2BA2               	goto	l2077
  1901  0BBC                     u2590:
  1902  0BBC                     l2081:
  1903                           
  1904                           ;C:\Program Files\Microchip\xc8\v2.36\pic\sources\c99\common\doprnt.c: 1400:     return 
      +                          nout;
  1905  0BBC  0841               	movf	_nout+1,w
  1906  0BBD  00DB               	movwf	?_vfprintf+1
  1907  0BBE  0840               	movf	_nout,w
  1908  0BBF  00DA               	movwf	?_vfprintf
  1909  0BC0                     l961:
  1910  0BC0  0008               	return
  1911  0BC1                     __end_of_vfprintf:
  1912                           
  1913                           	psect	text3
  1914  0053                     __ptext3:	
  1915 ;; *************** function _vfpfcnvrt *****************
  1916 ;; Defined at:
  1917 ;;		line 692 in file "C:\Program Files\Microchip\xc8\v2.36\pic\sources\c99\common\doprnt.c"
  1918 ;; Parameters:    Size  Location     Type
  1919 ;;  fp              1    wreg     PTR struct _IO_FILE
  1920 ;;		 -> NULL(0), 
  1921 ;;  fmt             1   10[COMMON] PTR PTR unsigned char 
  1922 ;;		 -> vfprintf@cfmt(2), 
  1923 ;;  ap              1   11[COMMON] PTR PTR void 
  1924 ;;		 -> printf@ap(1), 
  1925 ;; Auto vars:     Size  Location     Type
  1926 ;;  fp              1   12[COMMON] PTR struct _IO_FILE
  1927 ;;		 -> NULL(0), 
  1928 ;;  llu             8    0        unsigned long long 
  1929 ;;  ll              8    0        long long 
  1930 ;;  f               4    0        long long 
  1931 ;;  ct              3    0        unsigned char [3]
  1932 ;;  vp              2    0        PTR void 
  1933 ;;  i               2    0        int 
  1934 ;;  done            2    0        int 
  1935 ;;  cp              2    0        PTR unsigned char 
  1936 ;;  c               1    0        unsigned char 
  1937 ;; Return value:  Size  Location     Type
  1938 ;;                  2   10[COMMON] int 
  1939 ;; Registers used:
  1940 ;;		wreg, fsr0l, fsr0h, fsr1l, fsr1h, status,2, status,0, pclath, cstack
  1941 ;; Tracked objects:
  1942 ;;		On entry : 0/0
  1943 ;;		On exit  : 0/0
  1944 ;;		Unchanged: 0/0
  1945 ;; Data sizes:     COMMON   BANK0   BANK1   BANK2   BANK3   BANK4   BANK5   BANK6
  1946 ;;      Params:         2       0       0       0       0       0       0       0
  1947 ;;      Locals:         1       0       0       0       0       0       0       0
  1948 ;;      Temps:          0       5       0       0       0       0       0       0
  1949 ;;      Totals:         3       5       0       0       0       0       0       0
  1950 ;;Total ram usage:        8 bytes
  1951 ;; Hardware stack levels used: 1
  1952 ;; Hardware stack levels required when called: 3
  1953 ;; This function calls:
  1954 ;;		_fputc
  1955 ;; This function is called by:
  1956 ;;		_vfprintf
  1957 ;; This function uses a non-reentrant model
  1958 ;;
  1959                           
  1960  0053                     _vfpfcnvrt:	
  1961                           ;psect for function _vfpfcnvrt
  1962                           
  1963                           
  1964                           ;incstack = 0
  1965                           ; Regs used in _vfpfcnvrt: [wreg-fsr1h+status,2+status,0+pclath+cstack]
  1966                           ;vfpfcnvrt@fp stored from wreg
  1967  0053  00FC               	movwf	vfpfcnvrt@fp
  1968  0054                     l1907:
  1969                           
  1970                           ;C:\Program Files\Microchip\xc8\v2.36\pic\sources\c99\common\doprnt.c: 692: static int v
      +                          fpfcnvrt(FILE *fp, char *fmt[], va_list ap);C:\Program Files\Microchip\xc8\v2.36\pic\sou
      +                          rces\c99\common\doprnt.c: 693: {;C:\Program Files\Microchip\xc8\v2.36\pic\sources\c99\co
      +                          mmon\doprnt.c: 694:     char c, *cp, ct[3];;C:\Program Files\Microchip\xc8\v2.36\pic\sou
      +                          rces\c99\common\doprnt.c: 695:     int done, i;;C:\Program Files\Microchip\xc8\v2.36\pic
      +                          \sources\c99\common\doprnt.c: 696:     long long ll;;C:\Program Files\Microchip\xc8\v2.3
      +                          6\pic\sources\c99\common\doprnt.c: 697:     unsigned long long llu;
  1971  0054  087A               	movf	vfpfcnvrt@fmt,w
  1972  0055  0086               	movwf	6
  1973  0056  0187               	clrf	7
  1974  0057  3F40               	moviw [0]fsr1
  1975  0058  0020               	movlb	0	; select bank0
  1976  0059  00D5               	movwf	??_vfpfcnvrt
  1977  005A  3F41               	moviw [1]fsr1
  1978  005B  00D6               	movwf	??_vfpfcnvrt+1
  1979  005C  0855               	movf	??_vfpfcnvrt,w
  1980  005D  0084               	movwf	4
  1981  005E  0856               	movf	??_vfpfcnvrt+1,w
  1982  005F  0085               	movwf	5
  1983  0060  0012               	moviw fsr0++
  1984  0061  3A25               	xorlw	37
  1985  0062  1D03               	btfss	3,2
  1986  0063  2865               	goto	u2411
  1987  0064  2866               	goto	u2410
  1988  0065                     u2411:
  1989  0065  28AA               	goto	l1931
  1990  0066                     u2410:
  1991  0066                     l1909:
  1992                           
  1993                           ;C:\Program Files\Microchip\xc8\v2.36\pic\sources\c99\common\doprnt.c: 703:         ++*f
      +                          mt;
  1994  0066  087A               	movf	vfpfcnvrt@fmt,w
  1995  0067  0086               	movwf	6
  1996  0068  0187               	clrf	7
  1997  0069  3001               	movlw	1
  1998  006A  0781               	addwf	1,f
  1999  006B  3141               	addfsr 1,1
  2000  006C  1803               	skipnc
  2001  006D  0A81               	incf	1,f
  2002  006E                     l1911:
  2003                           
  2004                           ;C:\Program Files\Microchip\xc8\v2.36\pic\sources\c99\common\doprnt.c: 705:         flag
      +                          s = width = 0;
  2005  006E  01C2               	clrf	_width
  2006  006F  01C3               	clrf	_width+1
  2007  0070  01C6               	clrf	_flags
  2008  0071  01C7               	clrf	_flags+1
  2009  0072                     l1913:
  2010                           
  2011                           ;C:\Program Files\Microchip\xc8\v2.36\pic\sources\c99\common\doprnt.c: 706:         prec
      +                           = -1;
  2012  0072  30FF               	movlw	255
  2013  0073  00C4               	movwf	_prec
  2014  0074  30FF               	movlw	255
  2015  0075  00C5               	movwf	_prec+1
  2016  0076                     l1915:
  2017                           
  2018                           ;C:\Program Files\Microchip\xc8\v2.36\pic\sources\c99\common\doprnt.c: 1372:         if 
      +                          ((*fmt)[0] == '%') {
  2019  0076  087A               	movf	vfpfcnvrt@fmt,w
  2020  0077  0086               	movwf	6
  2021  0078  0187               	clrf	7
  2022  0079  3F40               	moviw [0]fsr1
  2023  007A  00D5               	movwf	??_vfpfcnvrt
  2024  007B  3F41               	moviw [1]fsr1
  2025  007C  00D6               	movwf	??_vfpfcnvrt+1
  2026  007D  0855               	movf	??_vfpfcnvrt,w
  2027  007E  0084               	movwf	4
  2028  007F  0856               	movf	??_vfpfcnvrt+1,w
  2029  0080  0085               	movwf	5
  2030  0081  0012               	moviw fsr0++
  2031  0082  3A25               	xorlw	37
  2032  0083  1D03               	btfss	3,2
  2033  0084  2886               	goto	u2421
  2034  0085  2887               	goto	u2420
  2035  0086                     u2421:
  2036  0086  289F               	goto	l1925
  2037  0087                     u2420:
  2038  0087                     l1917:
  2039                           
  2040                           ;C:\Program Files\Microchip\xc8\v2.36\pic\sources\c99\common\doprnt.c: 1373:            
      +                           ++*fmt;
  2041  0087  087A               	movf	vfpfcnvrt@fmt,w
  2042  0088  0086               	movwf	6
  2043  0089  0187               	clrf	7
  2044  008A  3001               	movlw	1
  2045  008B  0781               	addwf	1,f
  2046  008C  3141               	addfsr 1,1
  2047  008D  1803               	skipnc
  2048  008E  0A81               	incf	1,f
  2049  008F                     l1919:
  2050                           
  2051                           ;C:\Program Files\Microchip\xc8\v2.36\pic\sources\c99\common\doprnt.c: 1374:            
      +                           fputc((int)'%', fp);
  2052  008F  3025               	movlw	37
  2053  0090  00F2               	movwf	fputc@c
  2054  0091  3000               	movlw	0
  2055  0092  00F3               	movwf	fputc@c+1
  2056  0093  087C               	movf	vfpfcnvrt@fp,w
  2057  0094  00D5               	movwf	??_vfpfcnvrt
  2058  0095  0855               	movf	??_vfpfcnvrt,w
  2059  0096  00F4               	movwf	fputc@fp
  2060  0097  3180  2012  3180   	fcall	_fputc
  2061  009A                     l1921:
  2062                           
  2063                           ;C:\Program Files\Microchip\xc8\v2.36\pic\sources\c99\common\doprnt.c: 1375:            
      +                           return 1;
  2064  009A  3001               	movlw	1
  2065  009B  00FA               	movwf	?_vfpfcnvrt
  2066  009C  3000               	movlw	0
  2067  009D  00FB               	movwf	?_vfpfcnvrt+1
  2068  009E  28CC               	goto	l955
  2069  009F                     l1925:
  2070                           
  2071                           ;C:\Program Files\Microchip\xc8\v2.36\pic\sources\c99\common\doprnt.c: 1379:         ++*
      +                          fmt;
  2072  009F  087A               	movf	vfpfcnvrt@fmt,w
  2073  00A0  0086               	movwf	6
  2074  00A1  0187               	clrf	7
  2075  00A2  3001               	movlw	1
  2076  00A3  0781               	addwf	1,f
  2077  00A4  3141               	addfsr 1,1
  2078  00A5  1803               	skipnc
  2079  00A6  0A81               	incf	1,f
  2080  00A7                     l1927:
  2081                           
  2082                           ;C:\Program Files\Microchip\xc8\v2.36\pic\sources\c99\common\doprnt.c: 1380:         ret
      +                          urn 0;
  2083  00A7  01FA               	clrf	?_vfpfcnvrt
  2084  00A8  01FB               	clrf	?_vfpfcnvrt+1
  2085  00A9  28CC               	goto	l955
  2086  00AA                     l1931:
  2087                           
  2088                           ;C:\Program Files\Microchip\xc8\v2.36\pic\sources\c99\common\doprnt.c: 1384:     fputc((
      +                          int)(*fmt)[0], fp);
  2089  00AA  087A               	movf	vfpfcnvrt@fmt,w
  2090  00AB  0086               	movwf	6
  2091  00AC  0187               	clrf	7
  2092  00AD  3F40               	moviw [0]fsr1
  2093  00AE  00D5               	movwf	??_vfpfcnvrt
  2094  00AF  3F41               	moviw [1]fsr1
  2095  00B0  00D6               	movwf	??_vfpfcnvrt+1
  2096  00B1  0855               	movf	??_vfpfcnvrt,w
  2097  00B2  0084               	movwf	4
  2098  00B3  0856               	movf	??_vfpfcnvrt+1,w
  2099  00B4  0085               	movwf	5
  2100  00B5  0800               	movf	0,w	;code access
  2101  00B6  00D7               	movwf	??_vfpfcnvrt+2
  2102  00B7  01D8               	clrf	??_vfpfcnvrt+3
  2103  00B8  0857               	movf	??_vfpfcnvrt+2,w
  2104  00B9  00F2               	movwf	fputc@c
  2105  00BA  0858               	movf	??_vfpfcnvrt+3,w
  2106  00BB  00F3               	movwf	fputc@c+1
  2107  00BC  087C               	movf	vfpfcnvrt@fp,w
  2108  00BD  00D9               	movwf	??_vfpfcnvrt+4
  2109  00BE  0859               	movf	??_vfpfcnvrt+4,w
  2110  00BF  00F4               	movwf	fputc@fp
  2111  00C0  3180  2012  3180   	fcall	_fputc
  2112  00C3                     l1933:
  2113                           
  2114                           ;C:\Program Files\Microchip\xc8\v2.36\pic\sources\c99\common\doprnt.c: 1385:     ++*fmt;
  2115  00C3  087A               	movf	vfpfcnvrt@fmt,w
  2116  00C4  0086               	movwf	6
  2117  00C5  0187               	clrf	7
  2118  00C6  3001               	movlw	1
  2119  00C7  0781               	addwf	1,f
  2120  00C8  3141               	addfsr 1,1
  2121  00C9  1803               	skipnc
  2122  00CA  0A81               	incf	1,f
  2123  00CB  289A               	goto	l1921
  2124  00CC                     l955:
  2125  00CC  0008               	return
  2126  00CD                     __end_of_vfpfcnvrt:
  2127                           
  2128                           	psect	text4
  2129  0012                     __ptext4:	
  2130 ;; *************** function _fputc *****************
  2131 ;; Defined at:
  2132 ;;		line 8 in file "C:\Program Files\Microchip\xc8\v2.36\pic\sources\c99\common\nf_fputc.c"
  2133 ;; Parameters:    Size  Location     Type
  2134 ;;  c               2    2[COMMON] int 
  2135 ;;  fp              1    4[COMMON] PTR struct _IO_FILE
  2136 ;;		 -> NULL(0), 
  2137 ;; Auto vars:     Size  Location     Type
  2138 ;;		None
  2139 ;; Return value:  Size  Location     Type
  2140 ;;                  2    2[COMMON] int 
  2141 ;; Registers used:
  2142 ;;		wreg, fsr1l, fsr1h, status,2, status,0, pclath, cstack
  2143 ;; Tracked objects:
  2144 ;;		On entry : 0/0
  2145 ;;		On exit  : 0/0
  2146 ;;		Unchanged: 0/0
  2147 ;; Data sizes:     COMMON   BANK0   BANK1   BANK2   BANK3   BANK4   BANK5   BANK6
  2148 ;;      Params:         3       0       0       0       0       0       0       0
  2149 ;;      Locals:         0       0       0       0       0       0       0       0
  2150 ;;      Temps:          5       0       0       0       0       0       0       0
  2151 ;;      Totals:         8       0       0       0       0       0       0       0
  2152 ;;Total ram usage:        8 bytes
  2153 ;; Hardware stack levels used: 1
  2154 ;; Hardware stack levels required when called: 2
  2155 ;; This function calls:
  2156 ;;		_putch
  2157 ;; This function is called by:
  2158 ;;		_vfpfcnvrt
  2159 ;; This function uses a non-reentrant model
  2160 ;;
  2161                           
  2162  0012                     _fputc:	
  2163                           ;psect for function _fputc
  2164                           
  2165  0012                     l1887:	
  2166                           ;incstack = 0
  2167                           ; Regs used in _fputc: [wreg+fsr1l+fsr1h+status,2+status,0+pclath+cstack]
  2168                           
  2169  0012  0874               	movf	fputc@fp,w
  2170  0013  1903               	btfsc	3,2
  2171  0014  2816               	goto	u2371
  2172  0015  2817               	goto	u2370
  2173  0016                     u2371:
  2174  0016  281C               	goto	l1891
  2175  0017                     u2370:
  2176  0017                     l1889:
  2177  0017  0874               	movf	fputc@fp,w
  2178  0018  1D03               	btfss	3,2
  2179  0019  281B               	goto	u2381
  2180  001A  281C               	goto	u2380
  2181  001B                     u2381:
  2182  001B  2821               	goto	l1893
  2183  001C                     u2380:
  2184  001C                     l1891:
  2185  001C  0872               	movf	fputc@c,w
  2186  001D  3180  2004  3180   	fcall	_putch
  2187  0020  2852               	goto	l973
  2188  0021                     l1893:
  2189  0021  0874               	movf	fputc@fp,w
  2190  0022  3E08               	addlw	8
  2191  0023  0086               	movwf	6
  2192  0024  0187               	clrf	7
  2193  0025  0016               	moviw fsr1++
  2194  0026  0401               	iorwf	1,w
  2195  0027  1903               	btfsc	3,2
  2196  0028  282A               	goto	u2391
  2197  0029  282B               	goto	u2390
  2198  002A                     u2391:
  2199  002A  2849               	goto	l1897
  2200  002B                     u2390:
  2201  002B                     l1895:
  2202  002B  0874               	movf	fputc@fp,w
  2203  002C  3E08               	addlw	8
  2204  002D  0086               	movwf	6
  2205  002E  0187               	clrf	7
  2206  002F  3F40               	moviw [0]fsr1
  2207  0030  00F5               	movwf	??_fputc
  2208  0031  3F41               	moviw [1]fsr1
  2209  0032  00F6               	movwf	??_fputc+1
  2210  0033  0874               	movf	fputc@fp,w
  2211  0034  3E02               	addlw	2
  2212  0035  0086               	movwf	6
  2213  0036  0187               	clrf	7
  2214  0037  3F40               	moviw [0]fsr1
  2215  0038  00F7               	movwf	??_fputc+2
  2216  0039  3F41               	moviw [1]fsr1
  2217  003A  00F8               	movwf	??_fputc+3
  2218  003B  0878               	movf	??_fputc+3,w
  2219  003C  3A80               	xorlw	128
  2220  003D  00F9               	movwf	??_fputc+4
  2221  003E  0876               	movf	??_fputc+1,w
  2222  003F  3A80               	xorlw	128
  2223  0040  0279               	subwf	??_fputc+4,w
  2224  0041  1D03               	skipz
  2225  0042  2845               	goto	u2405
  2226  0043  0875               	movf	??_fputc,w
  2227  0044  0277               	subwf	??_fputc+2,w
  2228  0045                     u2405:
  2229  0045  1803               	skipnc
  2230  0046  2848               	goto	u2401
  2231  0047  2849               	goto	u2400
  2232  0048                     u2401:
  2233  0048  2852               	goto	l973
  2234  0049                     u2400:
  2235  0049                     l1897:
  2236  0049  0874               	movf	fputc@fp,w
  2237  004A  3E02               	addlw	2
  2238  004B  0086               	movwf	6
  2239  004C  0187               	clrf	7
  2240  004D  3001               	movlw	1
  2241  004E  0781               	addwf	1,f
  2242  004F  3141               	addfsr 1,1
  2243  0050  1803               	skipnc
  2244  0051  0A81               	incf	1,f
  2245  0052                     l973:
  2246  0052  0008               	return
  2247  0053                     __end_of_fputc:
  2248                           
  2249                           	psect	text5
  2250  0004                     __ptext5:	
  2251 ;; *************** function _putch *****************
  2252 ;; Defined at:
  2253 ;;		line 54 in file "main.c"
  2254 ;; Parameters:    Size  Location     Type
  2255 ;;  data            1    wreg     unsigned char 
  2256 ;; Auto vars:     Size  Location     Type
  2257 ;;  data            1    1[COMMON] unsigned char 
  2258 ;; Return value:  Size  Location     Type
  2259 ;;                  1    wreg      void 
  2260 ;; Registers used:
  2261 ;;		wreg, status,2, status,0, pclath, cstack
  2262 ;; Tracked objects:
  2263 ;;		On entry : 0/0
  2264 ;;		On exit  : 0/0
  2265 ;;		Unchanged: 0/0
  2266 ;; Data sizes:     COMMON   BANK0   BANK1   BANK2   BANK3   BANK4   BANK5   BANK6
  2267 ;;      Params:         0       0       0       0       0       0       0       0
  2268 ;;      Locals:         1       0       0       0       0       0       0       0
  2269 ;;      Temps:          0       0       0       0       0       0       0       0
  2270 ;;      Totals:         1       0       0       0       0       0       0       0
  2271 ;;Total ram usage:        1 bytes
  2272 ;; Hardware stack levels used: 1
  2273 ;; Hardware stack levels required when called: 1
  2274 ;; This function calls:
  2275 ;;		_EUSART_Write
  2276 ;;		_EUSART_is_tx_ready
  2277 ;; This function is called by:
  2278 ;;		_fputc
  2279 ;; This function uses a non-reentrant model
  2280 ;;
  2281                           
  2282  0004                     _putch:	
  2283                           ;psect for function _putch
  2284                           
  2285                           
  2286                           ;incstack = 0
  2287                           ; Regs used in _putch: [wreg+status,2+status,0+pclath+cstack]
  2288                           ;putch@data stored from wreg
  2289  0004  00F1               	movwf	putch@data
  2290  0005                     l1881:
  2291  0005                     l1883:	
  2292                           ;main.c: 55:     while(!EUSART_is_tx_ready());
  2293                           
  2294  0005  318A  2244  3180   	fcall	_EUSART_is_tx_ready
  2295  0008  3A00               	xorlw	0
  2296  0009  1903               	skipnz
  2297  000A  280C               	goto	u2361
  2298  000B  280D               	goto	u2360
  2299  000C                     u2361:
  2300  000C  2805               	goto	l1883
  2301  000D                     u2360:
  2302  000D                     l1885:
  2303                           
  2304                           ;main.c: 56:     EUSART_Write(data);
  2305  000D  0871               	movf	putch@data,w
  2306  000E  318A  2212  3180   	fcall	_EUSART_Write
  2307  0011                     l252:
  2308  0011  0008               	return
  2309  0012                     __end_of_putch:
  2310                           
  2311                           	psect	text6
  2312  0A44                     __ptext6:	
  2313 ;; *************** function _EUSART_is_tx_ready *****************
  2314 ;; Defined at:
  2315 ;;		line 94 in file "mcc_generated_files/eusart.c"
  2316 ;; Parameters:    Size  Location     Type
  2317 ;;		None
  2318 ;; Auto vars:     Size  Location     Type
  2319 ;;		None
  2320 ;; Return value:  Size  Location     Type
  2321 ;;                  1    wreg      _Bool 
  2322 ;; Registers used:
  2323 ;;		wreg, status,2
  2324 ;; Tracked objects:
  2325 ;;		On entry : 0/0
  2326 ;;		On exit  : 0/0
  2327 ;;		Unchanged: 0/0
  2328 ;; Data sizes:     COMMON   BANK0   BANK1   BANK2   BANK3   BANK4   BANK5   BANK6
  2329 ;;      Params:         0       0       0       0       0       0       0       0
  2330 ;;      Locals:         1       0       0       0       0       0       0       0
  2331 ;;      Temps:          0       0       0       0       0       0       0       0
  2332 ;;      Totals:         1       0       0       0       0       0       0       0
  2333 ;;Total ram usage:        1 bytes
  2334 ;; Hardware stack levels used: 1
  2335 ;; This function calls:
  2336 ;;		Nothing
  2337 ;; This function is called by:
  2338 ;;		_putch
  2339 ;; This function uses a non-reentrant model
  2340 ;;
  2341                           
  2342  0A44                     _EUSART_is_tx_ready:	
  2343                           ;psect for function _EUSART_is_tx_ready
  2344                           
  2345  0A44                     l1865:	
  2346                           ;incstack = 0
  2347                           ; Regs used in _EUSART_is_tx_ready: [wreg+status,2]
  2348                           
  2349                           
  2350                           ;mcc_generated_files/eusart.c: 96:     return (_Bool)(PIR1bits.TXIF && TXSTAbits.TXEN);
  2351  0A44  01F0               	clrf	_EUSART_is_tx_ready$301
  2352  0A45                     l1867:
  2353  0A45  0020               	movlb	0	; select bank0
  2354  0A46  1E11               	btfss	17,4	;volatile
  2355  0A47  2A49               	goto	u2331
  2356  0A48  2A4A               	goto	u2330
  2357  0A49                     u2331:
  2358  0A49  2A51               	goto	l1873
  2359  0A4A                     u2330:
  2360  0A4A                     l1869:
  2361  0A4A  0023               	movlb	3	; select bank3
  2362  0A4B  1E9E               	btfss	30,5	;volatile
  2363  0A4C  2A4E               	goto	u2341
  2364  0A4D  2A4F               	goto	u2340
  2365  0A4E                     u2341:
  2366  0A4E  2A51               	goto	l1873
  2367  0A4F                     u2340:
  2368  0A4F                     l1871:
  2369  0A4F  01F0               	clrf	_EUSART_is_tx_ready$301
  2370  0A50  0AF0               	incf	_EUSART_is_tx_ready$301,f
  2371  0A51                     l1873:
  2372  0A51  0870               	movf	_EUSART_is_tx_ready$301,w
  2373  0A52                     l166:
  2374  0A52  0008               	return
  2375  0A53                     __end_of_EUSART_is_tx_ready:
  2376                           
  2377                           	psect	text7
  2378  0A12                     __ptext7:	
  2379 ;; *************** function _EUSART_Write *****************
  2380 ;; Defined at:
  2381 ;;		line 132 in file "mcc_generated_files/eusart.c"
  2382 ;; Parameters:    Size  Location     Type
  2383 ;;  txData          1    wreg     unsigned char 
  2384 ;; Auto vars:     Size  Location     Type
  2385 ;;  txData          1    0[COMMON] unsigned char 
  2386 ;; Return value:  Size  Location     Type
  2387 ;;                  1    wreg      void 
  2388 ;; Registers used:
  2389 ;;		wreg
  2390 ;; Tracked objects:
  2391 ;;		On entry : 0/0
  2392 ;;		On exit  : 0/0
  2393 ;;		Unchanged: 0/0
  2394 ;; Data sizes:     COMMON   BANK0   BANK1   BANK2   BANK3   BANK4   BANK5   BANK6
  2395 ;;      Params:         0       0       0       0       0       0       0       0
  2396 ;;      Locals:         1       0       0       0       0       0       0       0
  2397 ;;      Temps:          0       0       0       0       0       0       0       0
  2398 ;;      Totals:         1       0       0       0       0       0       0       0
  2399 ;;Total ram usage:        1 bytes
  2400 ;; Hardware stack levels used: 1
  2401 ;; This function calls:
  2402 ;;		Nothing
  2403 ;; This function is called by:
  2404 ;;		_putch
  2405 ;; This function uses a non-reentrant model
  2406 ;;
  2407                           
  2408  0A12                     _EUSART_Write:	
  2409                           ;psect for function _EUSART_Write
  2410                           
  2411                           
  2412                           ;incstack = 0
  2413                           ; Regs used in _EUSART_Write: [wreg]
  2414                           ;EUSART_Write@txData stored from wreg
  2415  0A12  00F0               	movwf	EUSART_Write@txData
  2416  0A13                     l1877:
  2417  0A13                     l185:	
  2418                           ;mcc_generated_files/eusart.c: 135:     {;mcc_generated_files/eusart.c: 136:     }
  2419                           
  2420                           
  2421                           ;mcc_generated_files/eusart.c: 134:     while(0 == PIR1bits.TXIF)
  2422  0A13  0020               	movlb	0	; select bank0
  2423  0A14  1E11               	btfss	17,4	;volatile
  2424  0A15  2A17               	goto	u2351
  2425  0A16  2A18               	goto	u2350
  2426  0A17                     u2351:
  2427  0A17  2A13               	goto	l185
  2428  0A18                     u2350:
  2429  0A18                     l1879:
  2430                           
  2431                           ;mcc_generated_files/eusart.c: 138:     TXREG = txData;
  2432  0A18  0870               	movf	EUSART_Write@txData,w
  2433  0A19  0023               	movlb	3	; select bank3
  2434  0A1A  009A               	movwf	26	;volatile
  2435  0A1B                     l188:
  2436  0A1B  0008               	return
  2437  0A1C                     __end_of_EUSART_Write:
  2438                           
  2439                           	psect	text8
  2440  0A28                     __ptext8:	
  2441 ;; *************** function _SYSTEM_Initialize *****************
  2442 ;; Defined at:
  2443 ;;		line 49 in file "mcc_generated_files/mcc.c"
  2444 ;; Parameters:    Size  Location     Type
  2445 ;;		None
  2446 ;; Auto vars:     Size  Location     Type
  2447 ;;		None
  2448 ;; Return value:  Size  Location     Type
  2449 ;;                  1    wreg      void 
  2450 ;; Registers used:
  2451 ;;		wreg, status,2, status,0, pclath, cstack
  2452 ;; Tracked objects:
  2453 ;;		On entry : 0/0
  2454 ;;		On exit  : 0/0
  2455 ;;		Unchanged: 0/0
  2456 ;; Data sizes:     COMMON   BANK0   BANK1   BANK2   BANK3   BANK4   BANK5   BANK6
  2457 ;;      Params:         0       0       0       0       0       0       0       0
  2458 ;;      Locals:         0       0       0       0       0       0       0       0
  2459 ;;      Temps:          0       0       0       0       0       0       0       0
  2460 ;;      Totals:         0       0       0       0       0       0       0       0
  2461 ;;Total ram usage:        0 bytes
  2462 ;; Hardware stack levels used: 1
  2463 ;; Hardware stack levels required when called: 2
  2464 ;; This function calls:
  2465 ;;		_EUSART_Initialize
  2466 ;;		_OSCILLATOR_Initialize
  2467 ;;		_PIN_MANAGER_Initialize
  2468 ;;		_WDT_Initialize
  2469 ;; This function is called by:
  2470 ;;		_main
  2471 ;; This function uses a non-reentrant model
  2472 ;;
  2473                           
  2474  0A28                     _SYSTEM_Initialize:	
  2475                           ;psect for function _SYSTEM_Initialize
  2476                           
  2477  0A28                     l2085:	
  2478                           ;incstack = 0
  2479                           ; Regs used in _SYSTEM_Initialize: [wreg+status,2+status,0+pclath+cstack]
  2480                           
  2481                           
  2482                           ;mcc_generated_files/mcc.c: 52:     PIN_MANAGER_Initialize();
  2483  0A28  318A  227E  318A   	fcall	_PIN_MANAGER_Initialize
  2484                           
  2485                           ;mcc_generated_files/mcc.c: 53:     OSCILLATOR_Initialize();
  2486  0A2B  318A  220C  318A   	fcall	_OSCILLATOR_Initialize
  2487                           
  2488                           ;mcc_generated_files/mcc.c: 54:     WDT_Initialize();
  2489  0A2E  3189  21F1  318A   	fcall	_WDT_Initialize
  2490                           
  2491                           ;mcc_generated_files/mcc.c: 55:     EUSART_Initialize();
  2492  0A31  318B  2377  318A   	fcall	_EUSART_Initialize
  2493  0A34                     l37:
  2494  0A34  0008               	return
  2495  0A35                     __end_of_SYSTEM_Initialize:
  2496                           
  2497                           	psect	text9
  2498  09F1                     __ptext9:	
  2499 ;; *************** function _WDT_Initialize *****************
  2500 ;; Defined at:
  2501 ;;		line 66 in file "mcc_generated_files/mcc.c"
  2502 ;; Parameters:    Size  Location     Type
  2503 ;;		None
  2504 ;; Auto vars:     Size  Location     Type
  2505 ;;		None
  2506 ;; Return value:  Size  Location     Type
  2507 ;;                  1    wreg      void 
  2508 ;; Registers used:
  2509 ;;		wreg
  2510 ;; Tracked objects:
  2511 ;;		On entry : 0/0
  2512 ;;		On exit  : 0/0
  2513 ;;		Unchanged: 0/0
  2514 ;; Data sizes:     COMMON   BANK0   BANK1   BANK2   BANK3   BANK4   BANK5   BANK6
  2515 ;;      Params:         0       0       0       0       0       0       0       0
  2516 ;;      Locals:         0       0       0       0       0       0       0       0
  2517 ;;      Temps:          0       0       0       0       0       0       0       0
  2518 ;;      Totals:         0       0       0       0       0       0       0       0
  2519 ;;Total ram usage:        0 bytes
  2520 ;; Hardware stack levels used: 1
  2521 ;; This function calls:
  2522 ;;		Nothing
  2523 ;; This function is called by:
  2524 ;;		_SYSTEM_Initialize
  2525 ;; This function uses a non-reentrant model
  2526 ;;
  2527                           
  2528  09F1                     _WDT_Initialize:	
  2529                           ;psect for function _WDT_Initialize
  2530                           
  2531  09F1                     l1963:	
  2532                           ;incstack = 0
  2533                           ; Regs used in _WDT_Initialize: [wreg]
  2534                           
  2535                           
  2536                           ;mcc_generated_files/mcc.c: 69:     WDTCON = 0x16;
  2537  09F1  3016               	movlw	22
  2538  09F2  0021               	movlb	1	; select bank1
  2539  09F3  0097               	movwf	23	;volatile
  2540  09F4                     l43:
  2541  09F4  0008               	return
  2542  09F5                     __end_of_WDT_Initialize:
  2543                           
  2544                           	psect	text10
  2545  0A7E                     __ptext10:	
  2546 ;; *************** function _PIN_MANAGER_Initialize *****************
  2547 ;; Defined at:
  2548 ;;		line 55 in file "mcc_generated_files/pin_manager.c"
  2549 ;; Parameters:    Size  Location     Type
  2550 ;;		None
  2551 ;; Auto vars:     Size  Location     Type
  2552 ;;		None
  2553 ;; Return value:  Size  Location     Type
  2554 ;;                  1    wreg      void 
  2555 ;; Registers used:
  2556 ;;		wreg, status,2
  2557 ;; Tracked objects:
  2558 ;;		On entry : 0/0
  2559 ;;		On exit  : 0/0
  2560 ;;		Unchanged: 0/0
  2561 ;; Data sizes:     COMMON   BANK0   BANK1   BANK2   BANK3   BANK4   BANK5   BANK6
  2562 ;;      Params:         0       0       0       0       0       0       0       0
  2563 ;;      Locals:         0       0       0       0       0       0       0       0
  2564 ;;      Temps:          0       0       0       0       0       0       0       0
  2565 ;;      Totals:         0       0       0       0       0       0       0       0
  2566 ;;Total ram usage:        0 bytes
  2567 ;; Hardware stack levels used: 1
  2568 ;; This function calls:
  2569 ;;		Nothing
  2570 ;; This function is called by:
  2571 ;;		_SYSTEM_Initialize
  2572 ;; This function uses a non-reentrant model
  2573 ;;
  2574                           
  2575  0A7E                     _PIN_MANAGER_Initialize:	
  2576                           ;psect for function _PIN_MANAGER_Initialize
  2577                           
  2578  0A7E                     l1939:	
  2579                           ;incstack = 0
  2580                           ; Regs used in _PIN_MANAGER_Initialize: [wreg+status,2]
  2581                           
  2582                           
  2583                           ;mcc_generated_files/pin_manager.c: 60:     LATA = 0x00;
  2584  0A7E  0022               	movlb	2	; select bank2
  2585  0A7F  018C               	clrf	12	;volatile
  2586                           
  2587                           ;mcc_generated_files/pin_manager.c: 61:     LATB = 0x00;
  2588  0A80  018D               	clrf	13	;volatile
  2589                           
  2590                           ;mcc_generated_files/pin_manager.c: 62:     LATC = 0x00;
  2591  0A81  018E               	clrf	14	;volatile
  2592  0A82                     l1941:
  2593                           
  2594                           ;mcc_generated_files/pin_manager.c: 67:     TRISA = 0x3F;
  2595  0A82  303F               	movlw	63
  2596  0A83  0021               	movlb	1	; select bank1
  2597  0A84  008C               	movwf	12	;volatile
  2598  0A85                     l1943:
  2599                           
  2600                           ;mcc_generated_files/pin_manager.c: 68:     TRISB = 0x70;
  2601  0A85  3070               	movlw	112
  2602  0A86  008D               	movwf	13	;volatile
  2603                           
  2604                           ;mcc_generated_files/pin_manager.c: 69:     TRISC = 0x00;
  2605  0A87  018E               	clrf	14	;volatile
  2606  0A88                     l1945:
  2607                           
  2608                           ;mcc_generated_files/pin_manager.c: 74:     ANSELC = 0xCF;
  2609  0A88  30CF               	movlw	207
  2610  0A89  0023               	movlb	3	; select bank3
  2611  0A8A  008E               	movwf	14	;volatile
  2612  0A8B                     l1947:
  2613                           
  2614                           ;mcc_generated_files/pin_manager.c: 75:     ANSELB = 0x10;
  2615  0A8B  3010               	movlw	16
  2616  0A8C  008D               	movwf	13	;volatile
  2617  0A8D                     l1949:
  2618                           
  2619                           ;mcc_generated_files/pin_manager.c: 76:     ANSELA = 0x17;
  2620  0A8D  3017               	movlw	23
  2621  0A8E  008C               	movwf	12	;volatile
  2622  0A8F                     l1951:
  2623                           
  2624                           ;mcc_generated_files/pin_manager.c: 81:     WPUB = 0x00;
  2625  0A8F  0024               	movlb	4	; select bank4
  2626  0A90  018D               	clrf	13	;volatile
  2627  0A91                     l1953:
  2628                           
  2629                           ;mcc_generated_files/pin_manager.c: 82:     WPUA = 0x00;
  2630  0A91  018C               	clrf	12	;volatile
  2631  0A92                     l1955:
  2632                           
  2633                           ;mcc_generated_files/pin_manager.c: 83:     OPTION_REGbits.nWPUEN = 1;
  2634  0A92  0021               	movlb	1	; select bank1
  2635  0A93  1795               	bsf	21,7	;volatile
  2636  0A94                     l1957:
  2637                           
  2638                           ;mcc_generated_files/pin_manager.c: 89:     APFCON = 0x00;
  2639  0A94  0022               	movlb	2	; select bank2
  2640  0A95  019D               	clrf	29	;volatile
  2641  0A96                     l115:
  2642  0A96  0008               	return
  2643  0A97                     __end_of_PIN_MANAGER_Initialize:
  2644                           
  2645                           	psect	text11
  2646  0A0C                     __ptext11:	
  2647 ;; *************** function _OSCILLATOR_Initialize *****************
  2648 ;; Defined at:
  2649 ;;		line 58 in file "mcc_generated_files/mcc.c"
  2650 ;; Parameters:    Size  Location     Type
  2651 ;;		None
  2652 ;; Auto vars:     Size  Location     Type
  2653 ;;		None
  2654 ;; Return value:  Size  Location     Type
  2655 ;;                  1    wreg      void 
  2656 ;; Registers used:
  2657 ;;		wreg, status,2
  2658 ;; Tracked objects:
  2659 ;;		On entry : 0/0
  2660 ;;		On exit  : 0/0
  2661 ;;		Unchanged: 0/0
  2662 ;; Data sizes:     COMMON   BANK0   BANK1   BANK2   BANK3   BANK4   BANK5   BANK6
  2663 ;;      Params:         0       0       0       0       0       0       0       0
  2664 ;;      Locals:         0       0       0       0       0       0       0       0
  2665 ;;      Temps:          0       0       0       0       0       0       0       0
  2666 ;;      Totals:         0       0       0       0       0       0       0       0
  2667 ;;Total ram usage:        0 bytes
  2668 ;; Hardware stack levels used: 1
  2669 ;; This function calls:
  2670 ;;		Nothing
  2671 ;; This function is called by:
  2672 ;;		_SYSTEM_Initialize
  2673 ;; This function uses a non-reentrant model
  2674 ;;
  2675                           
  2676  0A0C                     _OSCILLATOR_Initialize:	
  2677                           ;psect for function _OSCILLATOR_Initialize
  2678                           
  2679  0A0C                     l1959:	
  2680                           ;incstack = 0
  2681                           ; Regs used in _OSCILLATOR_Initialize: [wreg+status,2]
  2682                           
  2683                           
  2684                           ;mcc_generated_files/mcc.c: 61:     OSCCON = 0x58;
  2685  0A0C  3058               	movlw	88
  2686  0A0D  0021               	movlb	1	; select bank1
  2687  0A0E  0099               	movwf	25	;volatile
  2688  0A0F                     l1961:
  2689                           
  2690                           ;mcc_generated_files/mcc.c: 63:     BORCON = 0x00;
  2691  0A0F  0022               	movlb	2	; select bank2
  2692  0A10  0196               	clrf	22	;volatile
  2693  0A11                     l40:
  2694  0A11  0008               	return
  2695  0A12                     __end_of_OSCILLATOR_Initialize:
  2696                           
  2697                           	psect	text12
  2698  0B77                     __ptext12:	
  2699 ;; *************** function _EUSART_Initialize *****************
  2700 ;; Defined at:
  2701 ;;		line 66 in file "mcc_generated_files/eusart.c"
  2702 ;; Parameters:    Size  Location     Type
  2703 ;;		None
  2704 ;; Auto vars:     Size  Location     Type
  2705 ;;		None
  2706 ;; Return value:  Size  Location     Type
  2707 ;;                  1    wreg      void 
  2708 ;; Registers used:
  2709 ;;		wreg, status,2, status,0, pclath, cstack
  2710 ;; Tracked objects:
  2711 ;;		On entry : 0/0
  2712 ;;		On exit  : 0/0
  2713 ;;		Unchanged: 0/0
  2714 ;; Data sizes:     COMMON   BANK0   BANK1   BANK2   BANK3   BANK4   BANK5   BANK6
  2715 ;;      Params:         0       0       0       0       0       0       0       0
  2716 ;;      Locals:         0       0       0       0       0       0       0       0
  2717 ;;      Temps:          0       0       0       0       0       0       0       0
  2718 ;;      Totals:         0       0       0       0       0       0       0       0
  2719 ;;Total ram usage:        0 bytes
  2720 ;; Hardware stack levels used: 1
  2721 ;; Hardware stack levels required when called: 1
  2722 ;; This function calls:
  2723 ;;		_EUSART_SetErrorHandler
  2724 ;;		_EUSART_SetFramingErrorHandler
  2725 ;;		_EUSART_SetOverrunErrorHandler
  2726 ;; This function is called by:
  2727 ;;		_SYSTEM_Initialize
  2728 ;; This function uses a non-reentrant model
  2729 ;;
  2730                           
  2731  0B77                     _EUSART_Initialize:	
  2732                           ;psect for function _EUSART_Initialize
  2733                           
  2734  0B77                     l1965:	
  2735                           ;incstack = 0
  2736                           ; Regs used in _EUSART_Initialize: [wreg+status,2+status,0+pclath+cstack]
  2737                           
  2738                           
  2739                           ;mcc_generated_files/eusart.c: 71:     BAUDCON = 0x08;
  2740  0B77  3008               	movlw	8
  2741  0B78  0023               	movlb	3	; select bank3
  2742  0B79  009F               	movwf	31	;volatile
  2743                           
  2744                           ;mcc_generated_files/eusart.c: 74:     RCSTA = 0x90;
  2745  0B7A  3090               	movlw	144
  2746  0B7B  009D               	movwf	29	;volatile
  2747                           
  2748                           ;mcc_generated_files/eusart.c: 77:     TXSTA = 0x24;
  2749  0B7C  3024               	movlw	36
  2750  0B7D  009E               	movwf	30	;volatile
  2751                           
  2752                           ;mcc_generated_files/eusart.c: 80:     SPBRGL = 0x19;
  2753  0B7E  3019               	movlw	25
  2754  0B7F  009B               	movwf	27	;volatile
  2755  0B80                     l1967:
  2756                           
  2757                           ;mcc_generated_files/eusart.c: 83:     SPBRGH = 0x00;
  2758  0B80  019C               	clrf	28	;volatile
  2759  0B81                     l1969:
  2760                           
  2761                           ;mcc_generated_files/eusart.c: 86:     EUSART_SetFramingErrorHandler(EUSART_DefaultFrami
      +                          ngErrorHandler);
  2762  0B81  3000               	movlw	0
  2763  0B82  00F0               	movwf	EUSART_SetFramingErrorHandler@interruptHandler
  2764  0B83  3000               	movlw	0
  2765  0B84  00F1               	movwf	EUSART_SetFramingErrorHandler@interruptHandler+1
  2766  0B85  318A  2200  318B   	fcall	_EUSART_SetFramingErrorHandler
  2767  0B88                     l1971:
  2768                           
  2769                           ;mcc_generated_files/eusart.c: 87:     EUSART_SetOverrunErrorHandler(EUSART_DefaultOverr
      +                          unErrorHandler);
  2770  0B88  3000               	movlw	0
  2771  0B89  00F0               	movwf	EUSART_SetOverrunErrorHandler@interruptHandler
  2772  0B8A  3000               	movlw	0
  2773  0B8B  00F1               	movwf	EUSART_SetOverrunErrorHandler@interruptHandler+1
  2774  0B8C  318A  2206  318B   	fcall	_EUSART_SetOverrunErrorHandler
  2775  0B8F                     l1973:
  2776                           
  2777                           ;mcc_generated_files/eusart.c: 88:     EUSART_SetErrorHandler(EUSART_DefaultErrorHandler
      +                          );
  2778  0B8F  3000               	movlw	0
  2779  0B90  00F0               	movwf	EUSART_SetErrorHandler@interruptHandler
  2780  0B91  3000               	movlw	0
  2781  0B92  00F1               	movwf	EUSART_SetErrorHandler@interruptHandler+1
  2782  0B93  3189  21FA  318B   	fcall	_EUSART_SetErrorHandler
  2783  0B96                     l1975:
  2784                           
  2785                           ;mcc_generated_files/eusart.c: 90:     eusartRxLastError.status = 0;
  2786  0B96  0020               	movlb	0	; select bank0
  2787  0B97  01CC               	clrf	_eusartRxLastError	;volatile
  2788  0B98                     l161:
  2789  0B98  0008               	return
  2790  0B99                     __end_of_EUSART_Initialize:
  2791                           
  2792                           	psect	text13
  2793  0A06                     __ptext13:	
  2794 ;; *************** function _EUSART_SetOverrunErrorHandler *****************
  2795 ;; Defined at:
  2796 ;;		line 161 in file "mcc_generated_files/eusart.c"
  2797 ;; Parameters:    Size  Location     Type
  2798 ;;  interruptHan    2    0[COMMON] PTR FTN()void 
  2799 ;;		 -> EUSART_DefaultOverrunErrorHandler(1), 
  2800 ;; Auto vars:     Size  Location     Type
  2801 ;;		None
  2802 ;; Return value:  Size  Location     Type
  2803 ;;                  1    wreg      void 
  2804 ;; Registers used:
  2805 ;;		wreg
  2806 ;; Tracked objects:
  2807 ;;		On entry : 0/0
  2808 ;;		On exit  : 0/0
  2809 ;;		Unchanged: 0/0
  2810 ;; Data sizes:     COMMON   BANK0   BANK1   BANK2   BANK3   BANK4   BANK5   BANK6
  2811 ;;      Params:         2       0       0       0       0       0       0       0
  2812 ;;      Locals:         0       0       0       0       0       0       0       0
  2813 ;;      Temps:          0       0       0       0       0       0       0       0
  2814 ;;      Totals:         2       0       0       0       0       0       0       0
  2815 ;;Total ram usage:        2 bytes
  2816 ;; Hardware stack levels used: 1
  2817 ;; This function calls:
  2818 ;;		Nothing
  2819 ;; This function is called by:
  2820 ;;		_EUSART_Initialize
  2821 ;; This function uses a non-reentrant model
  2822 ;;
  2823                           
  2824  0A06                     _EUSART_SetOverrunErrorHandler:	
  2825                           ;psect for function _EUSART_SetOverrunErrorHandler
  2826                           
  2827  0A06                     l1903:	
  2828                           ;incstack = 0
  2829                           ; Regs used in _EUSART_SetOverrunErrorHandler: [wreg]
  2830                           
  2831                           
  2832                           ;mcc_generated_files/eusart.c: 162:     EUSART_OverrunErrorHandler = interruptHandler;
  2833  0A06  0871               	movf	EUSART_SetOverrunErrorHandler@interruptHandler+1,w
  2834  0A07  0020               	movlb	0	; select bank0
  2835  0A08  00ED               	movwf	_EUSART_OverrunErrorHandler+1
  2836  0A09  0870               	movf	EUSART_SetOverrunErrorHandler@interruptHandler,w
  2837  0A0A  00EC               	movwf	_EUSART_OverrunErrorHandler
  2838  0A0B                     l203:
  2839  0A0B  0008               	return
  2840  0A0C                     __end_of_EUSART_SetOverrunErrorHandler:
  2841                           
  2842                           	psect	text14
  2843  0A00                     __ptext14:	
  2844 ;; *************** function _EUSART_SetFramingErrorHandler *****************
  2845 ;; Defined at:
  2846 ;;		line 157 in file "mcc_generated_files/eusart.c"
  2847 ;; Parameters:    Size  Location     Type
  2848 ;;  interruptHan    2    0[COMMON] PTR FTN()void 
  2849 ;;		 -> EUSART_DefaultFramingErrorHandler(1), 
  2850 ;; Auto vars:     Size  Location     Type
  2851 ;;		None
  2852 ;; Return value:  Size  Location     Type
  2853 ;;                  1    wreg      void 
  2854 ;; Registers used:
  2855 ;;		wreg
  2856 ;; Tracked objects:
  2857 ;;		On entry : 0/0
  2858 ;;		On exit  : 0/0
  2859 ;;		Unchanged: 0/0
  2860 ;; Data sizes:     COMMON   BANK0   BANK1   BANK2   BANK3   BANK4   BANK5   BANK6
  2861 ;;      Params:         2       0       0       0       0       0       0       0
  2862 ;;      Locals:         0       0       0       0       0       0       0       0
  2863 ;;      Temps:          0       0       0       0       0       0       0       0
  2864 ;;      Totals:         2       0       0       0       0       0       0       0
  2865 ;;Total ram usage:        2 bytes
  2866 ;; Hardware stack levels used: 1
  2867 ;; This function calls:
  2868 ;;		Nothing
  2869 ;; This function is called by:
  2870 ;;		_EUSART_Initialize
  2871 ;; This function uses a non-reentrant model
  2872 ;;
  2873                           
  2874  0A00                     _EUSART_SetFramingErrorHandler:	
  2875                           ;psect for function _EUSART_SetFramingErrorHandler
  2876                           
  2877  0A00                     l1901:	
  2878                           ;incstack = 0
  2879                           ; Regs used in _EUSART_SetFramingErrorHandler: [wreg]
  2880                           
  2881                           
  2882                           ;mcc_generated_files/eusart.c: 158:     EUSART_FramingErrorHandler = interruptHandler;
  2883  0A00  0871               	movf	EUSART_SetFramingErrorHandler@interruptHandler+1,w
  2884  0A01  0020               	movlb	0	; select bank0
  2885  0A02  00EF               	movwf	_EUSART_FramingErrorHandler+1
  2886  0A03  0870               	movf	EUSART_SetFramingErrorHandler@interruptHandler,w
  2887  0A04  00EE               	movwf	_EUSART_FramingErrorHandler
  2888  0A05                     l200:
  2889  0A05  0008               	return
  2890  0A06                     __end_of_EUSART_SetFramingErrorHandler:
  2891                           
  2892                           	psect	text15
  2893  09FA                     __ptext15:	
  2894 ;; *************** function _EUSART_SetErrorHandler *****************
  2895 ;; Defined at:
  2896 ;;		line 165 in file "mcc_generated_files/eusart.c"
  2897 ;; Parameters:    Size  Location     Type
  2898 ;;  interruptHan    2    0[COMMON] PTR FTN()void 
  2899 ;;		 -> EUSART_DefaultErrorHandler(1), 
  2900 ;; Auto vars:     Size  Location     Type
  2901 ;;		None
  2902 ;; Return value:  Size  Location     Type
  2903 ;;                  1    wreg      void 
  2904 ;; Registers used:
  2905 ;;		wreg
  2906 ;; Tracked objects:
  2907 ;;		On entry : 0/0
  2908 ;;		On exit  : 0/0
  2909 ;;		Unchanged: 0/0
  2910 ;; Data sizes:     COMMON   BANK0   BANK1   BANK2   BANK3   BANK4   BANK5   BANK6
  2911 ;;      Params:         2       0       0       0       0       0       0       0
  2912 ;;      Locals:         0       0       0       0       0       0       0       0
  2913 ;;      Temps:          0       0       0       0       0       0       0       0
  2914 ;;      Totals:         2       0       0       0       0       0       0       0
  2915 ;;Total ram usage:        2 bytes
  2916 ;; Hardware stack levels used: 1
  2917 ;; This function calls:
  2918 ;;		Nothing
  2919 ;; This function is called by:
  2920 ;;		_EUSART_Initialize
  2921 ;; This function uses a non-reentrant model
  2922 ;;
  2923                           
  2924  09FA                     _EUSART_SetErrorHandler:	
  2925                           ;psect for function _EUSART_SetErrorHandler
  2926                           
  2927  09FA                     l1905:	
  2928                           ;incstack = 0
  2929                           ; Regs used in _EUSART_SetErrorHandler: [wreg]
  2930                           
  2931                           
  2932                           ;mcc_generated_files/eusart.c: 166:     EUSART_ErrorHandler = interruptHandler;
  2933  09FA  0871               	movf	EUSART_SetErrorHandler@interruptHandler+1,w
  2934  09FB  0020               	movlb	0	; select bank0
  2935  09FC  00EB               	movwf	_EUSART_ErrorHandler+1
  2936  09FD  0870               	movf	EUSART_SetErrorHandler@interruptHandler,w
  2937  09FE  00EA               	movwf	_EUSART_ErrorHandler
  2938  09FF                     l206:
  2939  09FF  0008               	return
  2940  0A00                     __end_of_EUSART_SetErrorHandler:
  2941                           
  2942                           	psect	text16
  2943  09F5                     __ptext16:	
  2944 ;; *************** function _EUSART_is_rx_ready *****************
  2945 ;; Defined at:
  2946 ;;		line 99 in file "mcc_generated_files/eusart.c"
  2947 ;; Parameters:    Size  Location     Type
  2948 ;;		None
  2949 ;; Auto vars:     Size  Location     Type
  2950 ;;		None
  2951 ;; Return value:  Size  Location     Type
  2952 ;;                  1    wreg      _Bool 
  2953 ;; Registers used:
  2954 ;;		wreg, status,2, status,0
  2955 ;; Tracked objects:
  2956 ;;		On entry : 0/0
  2957 ;;		On exit  : 0/0
  2958 ;;		Unchanged: 0/0
  2959 ;; Data sizes:     COMMON   BANK0   BANK1   BANK2   BANK3   BANK4   BANK5   BANK6
  2960 ;;      Params:         0       0       0       0       0       0       0       0
  2961 ;;      Locals:         0       0       0       0       0       0       0       0
  2962 ;;      Temps:          0       0       0       0       0       0       0       0
  2963 ;;      Totals:         0       0       0       0       0       0       0       0
  2964 ;;Total ram usage:        0 bytes
  2965 ;; Hardware stack levels used: 1
  2966 ;; This function calls:
  2967 ;;		Nothing
  2968 ;; This function is called by:
  2969 ;;		_main
  2970 ;; This function uses a non-reentrant model
  2971 ;;
  2972                           
  2973  09F5                     _EUSART_is_rx_ready:	
  2974                           ;psect for function _EUSART_is_rx_ready
  2975                           
  2976  09F5                     l2089:	
  2977                           ;incstack = 0
  2978                           ; Regs used in _EUSART_is_rx_ready: [wreg+status,2+status,0]
  2979                           
  2980                           
  2981                           ;mcc_generated_files/eusart.c: 101:     return (_Bool)(PIR1bits.RCIF);
  2982  09F5  0020               	movlb	0	; select bank0
  2983  09F6  0E11               	swapf	17,w	;volatile
  2984  09F7  0C89               	rrf	9,f
  2985  09F8  3901               	andlw	1
  2986  09F9                     l169:
  2987  09F9  0008               	return
  2988  09FA                     __end_of_EUSART_is_rx_ready:
  2989                           
  2990                           	psect	text17
  2991  0A35                     __ptext17:	
  2992 ;; *************** function _EUSART_Read *****************
  2993 ;; Defined at:
  2994 ;;		line 113 in file "mcc_generated_files/eusart.c"
  2995 ;; Parameters:    Size  Location     Type
  2996 ;;		None
  2997 ;; Auto vars:     Size  Location     Type
  2998 ;;		None
  2999 ;; Return value:  Size  Location     Type
  3000 ;;                  1    wreg      unsigned char 
  3001 ;; Registers used:
  3002 ;;		wreg, status,2
  3003 ;; Tracked objects:
  3004 ;;		On entry : 0/0
  3005 ;;		On exit  : 0/0
  3006 ;;		Unchanged: 0/0
  3007 ;; Data sizes:     COMMON   BANK0   BANK1   BANK2   BANK3   BANK4   BANK5   BANK6
  3008 ;;      Params:         0       0       0       0       0       0       0       0
  3009 ;;      Locals:         0       0       0       0       0       0       0       0
  3010 ;;      Temps:          0       0       0       0       0       0       0       0
  3011 ;;      Totals:         0       0       0       0       0       0       0       0
  3012 ;;Total ram usage:        0 bytes
  3013 ;; Hardware stack levels used: 1
  3014 ;; This function calls:
  3015 ;;		Nothing
  3016 ;; This function is called by:
  3017 ;;		_main
  3018 ;; This function uses a non-reentrant model
  3019 ;;
  3020                           
  3021  0A35                     _EUSART_Read:	
  3022                           ;psect for function _EUSART_Read
  3023                           
  3024  0A35                     l2093:	
  3025                           ;incstack = 0
  3026                           ; Regs used in _EUSART_Read: [wreg+status,2]
  3027                           
  3028  0A35                     l178:	
  3029                           ;mcc_generated_files/eusart.c: 116:     {;mcc_generated_files/eusart.c: 117:     }
  3030                           
  3031                           
  3032                           ;mcc_generated_files/eusart.c: 115:     while(!PIR1bits.RCIF)
  3033  0A35  0020               	movlb	0	; select bank0
  3034  0A36  1E91               	btfss	17,5	;volatile
  3035  0A37  2A39               	goto	u2601
  3036  0A38  2A3A               	goto	u2600
  3037  0A39                     u2601:
  3038  0A39  2A35               	goto	l178
  3039  0A3A                     u2600:
  3040  0A3A                     l2095:
  3041                           
  3042                           ;mcc_generated_files/eusart.c: 119:     eusartRxLastError.status = 0;
  3043  0A3A  01CC               	clrf	_eusartRxLastError	;volatile
  3044  0A3B                     l2097:
  3045                           
  3046                           ;mcc_generated_files/eusart.c: 121:     if(1 == RCSTAbits.OERR)
  3047  0A3B  0023               	movlb	3	; select bank3
  3048  0A3C  1C9D               	btfss	29,1	;volatile
  3049  0A3D  2A3F               	goto	u2611
  3050  0A3E  2A40               	goto	u2610
  3051  0A3F                     u2611:
  3052  0A3F  2A42               	goto	l2101
  3053  0A40                     u2610:
  3054  0A40                     l2099:
  3055                           
  3056                           ;mcc_generated_files/eusart.c: 122:     {;mcc_generated_files/eusart.c: 125:         RCS
      +                          TAbits.CREN = 0;
  3057  0A40  121D               	bcf	29,4	;volatile
  3058                           
  3059                           ;mcc_generated_files/eusart.c: 126:         RCSTAbits.CREN = 1;
  3060  0A41  161D               	bsf	29,4	;volatile
  3061  0A42                     l2101:
  3062                           
  3063                           ;mcc_generated_files/eusart.c: 129:     return RCREG;
  3064  0A42  0819               	movf	25,w	;volatile
  3065  0A43                     l182:
  3066  0A43  0008               	return
  3067  0A44                     __end_of_EUSART_Read:
  3068                           
  3069                           	psect	text18
  3070  0A65                     __ptext18:	
  3071 ;; *************** function _Check_Blynk *****************
  3072 ;; Defined at:
  3073 ;;		line 136 in file "mcc_generated_files/mcc.c"
  3074 ;; Parameters:    Size  Location     Type
  3075 ;;		None
  3076 ;; Auto vars:     Size  Location     Type
  3077 ;;		None
  3078 ;; Return value:  Size  Location     Type
  3079 ;;                  1    wreg      void 
  3080 ;; Registers used:
  3081 ;;		wreg, status,2, status,0, pclath, cstack
  3082 ;; Tracked objects:
  3083 ;;		On entry : 0/0
  3084 ;;		On exit  : 0/0
  3085 ;;		Unchanged: 0/0
  3086 ;; Data sizes:     COMMON   BANK0   BANK1   BANK2   BANK3   BANK4   BANK5   BANK6
  3087 ;;      Params:         0       0       0       0       0       0       0       0
  3088 ;;      Locals:         0       0       0       0       0       0       0       0
  3089 ;;      Temps:          0       0       0       0       0       0       0       0
  3090 ;;      Totals:         0       0       0       0       0       0       0       0
  3091 ;;Total ram usage:        0 bytes
  3092 ;; Hardware stack levels used: 1
  3093 ;; Hardware stack levels required when called: 1
  3094 ;; This function calls:
  3095 ;;		_LED_1_Blynk
  3096 ;;		_LED_2_Blynk
  3097 ;;		_LED_3_Blynk
  3098 ;;		_LED_4_Blynk
  3099 ;;		_LED_5_Blynk
  3100 ;;		_LED_6_Blynk
  3101 ;;		_LED_7_Blynk
  3102 ;;		_LED_8_Blynk
  3103 ;; This function is called by:
  3104 ;;		_main
  3105 ;; This function uses a non-reentrant model
  3106 ;;
  3107                           
  3108  0A65                     _Check_Blynk:	
  3109                           ;psect for function _Check_Blynk
  3110                           
  3111  0A65                     l2087:	
  3112                           ;incstack = 0
  3113                           ; Regs used in _Check_Blynk: [wreg+status,2+status,0+pclath+cstack]
  3114                           
  3115                           
  3116                           ;mcc_generated_files/mcc.c: 137:     LED_1_Blynk();
  3117  0A65  318A  2297  318A   	fcall	_LED_1_Blynk
  3118                           
  3119                           ;mcc_generated_files/mcc.c: 138:     LED_2_Blynk();
  3120  0A68  318A  22B3  318A   	fcall	_LED_2_Blynk
  3121                           
  3122                           ;mcc_generated_files/mcc.c: 139:     LED_3_Blynk();
  3123  0A6B  318A  22CF  318A   	fcall	_LED_3_Blynk
  3124                           
  3125                           ;mcc_generated_files/mcc.c: 140:     LED_4_Blynk();
  3126  0A6E  318A  22EB  318A   	fcall	_LED_4_Blynk
  3127                           
  3128                           ;mcc_generated_files/mcc.c: 141:     LED_5_Blynk();
  3129  0A71  318B  2307  318A   	fcall	_LED_5_Blynk
  3130                           
  3131                           ;mcc_generated_files/mcc.c: 142:     LED_6_Blynk();
  3132  0A74  318B  2323  318A   	fcall	_LED_6_Blynk
  3133                           
  3134                           ;mcc_generated_files/mcc.c: 143:     LED_7_Blynk();
  3135  0A77  318B  233F  318A   	fcall	_LED_7_Blynk
  3136                           
  3137                           ;mcc_generated_files/mcc.c: 144:     LED_8_Blynk();
  3138  0A7A  318B  235B  318A   	fcall	_LED_8_Blynk
  3139  0A7D                     l86:
  3140  0A7D  0008               	return
  3141  0A7E                     __end_of_Check_Blynk:
  3142                           
  3143                           	psect	text19
  3144  0B5B                     __ptext19:	
  3145 ;; *************** function _LED_8_Blynk *****************
  3146 ;; Defined at:
  3147 ;;		line 128 in file "mcc_generated_files/mcc.c"
  3148 ;; Parameters:    Size  Location     Type
  3149 ;;		None
  3150 ;; Auto vars:     Size  Location     Type
  3151 ;;		None
  3152 ;; Return value:  Size  Location     Type
  3153 ;;                  1    wreg      void 
  3154 ;; Registers used:
  3155 ;;		wreg, status,2, status,0
  3156 ;; Tracked objects:
  3157 ;;		On entry : 0/0
  3158 ;;		On exit  : 0/0
  3159 ;;		Unchanged: 0/0
  3160 ;; Data sizes:     COMMON   BANK0   BANK1   BANK2   BANK3   BANK4   BANK5   BANK6
  3161 ;;      Params:         0       0       0       0       0       0       0       0
  3162 ;;      Locals:         0       0       0       0       0       0       0       0
  3163 ;;      Temps:          1       0       0       0       0       0       0       0
  3164 ;;      Totals:         1       0       0       0       0       0       0       0
  3165 ;;Total ram usage:        1 bytes
  3166 ;; Hardware stack levels used: 1
  3167 ;; This function calls:
  3168 ;;		Nothing
  3169 ;; This function is called by:
  3170 ;;		_Check_Blynk
  3171 ;; This function uses a non-reentrant model
  3172 ;;
  3173                           
  3174  0B5B                     _LED_8_Blynk:	
  3175                           ;psect for function _LED_8_Blynk
  3176                           
  3177  0B5B                     l2061:	
  3178                           ;incstack = 0
  3179                           ; Regs used in _LED_8_Blynk: [wreg+status,2+status,0]
  3180                           
  3181                           
  3182                           ;mcc_generated_files/mcc.c: 129:     if (state_8 == 1){
  3183  0B5B  0020               	movlb	0	; select bank0
  3184  0B5C  034D               	decf	_state_8,w
  3185  0B5D  1D03               	btfss	3,2
  3186  0B5E  2B60               	goto	u2571
  3187  0B5F  2B61               	goto	u2570
  3188  0B60                     u2571:
  3189  0B60  2B6D               	goto	l2069
  3190  0B61                     u2570:
  3191  0B61                     l2063:
  3192                           
  3193                           ;mcc_generated_files/mcc.c: 130:         LATCbits.LATC7 = 0;
  3194  0B61  0022               	movlb	2	; select bank2
  3195  0B62  138E               	bcf	14,7	;volatile
  3196  0B63                     l2065:
  3197                           
  3198                           ;mcc_generated_files/mcc.c: 131:         _delay((unsigned long)((50)*(1000000/4000.0)));
  3199  0B63  3011               	movlw	17
  3200  0B64  00F0               	movwf	??_LED_8_Blynk
  3201  0B65  303A               	movlw	58
  3202  0B66                     u4657:
  3203  0B66  0B89               	decfsz	9,f
  3204  0B67  2B66               	goto	u4657
  3205  0B68  0BF0               	decfsz	??_LED_8_Blynk,f
  3206  0B69  2B66               	goto	u4657
  3207  0B6A  3200               	nop2
  3208  0B6B                     l2067:
  3209                           
  3210                           ;mcc_generated_files/mcc.c: 132:         LATCbits.LATC7 = 1;
  3211  0B6B  0022               	movlb	2	; select bank2
  3212  0B6C  178E               	bsf	14,7	;volatile
  3213  0B6D                     l2069:
  3214                           
  3215                           ;mcc_generated_files/mcc.c: 134:     if (state_8 == 2) LATCbits.LATC7 = 0;
  3216  0B6D  3002               	movlw	2
  3217  0B6E  0020               	movlb	0	; select bank0
  3218  0B6F  064D               	xorwf	_state_8,w
  3219  0B70  1D03               	btfss	3,2
  3220  0B71  2B73               	goto	u2581
  3221  0B72  2B74               	goto	u2580
  3222  0B73                     u2581:
  3223  0B73  2B76               	goto	l83
  3224  0B74                     u2580:
  3225  0B74                     l2071:
  3226  0B74  0022               	movlb	2	; select bank2
  3227  0B75  138E               	bcf	14,7	;volatile
  3228  0B76                     l83:
  3229  0B76  0008               	return
  3230  0B77                     __end_of_LED_8_Blynk:
  3231                           
  3232                           	psect	text20
  3233  0B3F                     __ptext20:	
  3234 ;; *************** function _LED_7_Blynk *****************
  3235 ;; Defined at:
  3236 ;;		line 120 in file "mcc_generated_files/mcc.c"
  3237 ;; Parameters:    Size  Location     Type
  3238 ;;		None
  3239 ;; Auto vars:     Size  Location     Type
  3240 ;;		None
  3241 ;; Return value:  Size  Location     Type
  3242 ;;                  1    wreg      void 
  3243 ;; Registers used:
  3244 ;;		wreg, status,2, status,0
  3245 ;; Tracked objects:
  3246 ;;		On entry : 0/0
  3247 ;;		On exit  : 0/0
  3248 ;;		Unchanged: 0/0
  3249 ;; Data sizes:     COMMON   BANK0   BANK1   BANK2   BANK3   BANK4   BANK5   BANK6
  3250 ;;      Params:         0       0       0       0       0       0       0       0
  3251 ;;      Locals:         0       0       0       0       0       0       0       0
  3252 ;;      Temps:          1       0       0       0       0       0       0       0
  3253 ;;      Totals:         1       0       0       0       0       0       0       0
  3254 ;;Total ram usage:        1 bytes
  3255 ;; Hardware stack levels used: 1
  3256 ;; This function calls:
  3257 ;;		Nothing
  3258 ;; This function is called by:
  3259 ;;		_Check_Blynk
  3260 ;; This function uses a non-reentrant model
  3261 ;;
  3262                           
  3263  0B3F                     _LED_7_Blynk:	
  3264                           ;psect for function _LED_7_Blynk
  3265                           
  3266  0B3F                     l2049:	
  3267                           ;incstack = 0
  3268                           ; Regs used in _LED_7_Blynk: [wreg+status,2+status,0]
  3269                           
  3270                           
  3271                           ;mcc_generated_files/mcc.c: 121:     if (state_7 == 1){
  3272  0B3F  0020               	movlb	0	; select bank0
  3273  0B40  034E               	decf	_state_7,w
  3274  0B41  1D03               	btfss	3,2
  3275  0B42  2B44               	goto	u2551
  3276  0B43  2B45               	goto	u2550
  3277  0B44                     u2551:
  3278  0B44  2B51               	goto	l2057
  3279  0B45                     u2550:
  3280  0B45                     l2051:
  3281                           
  3282                           ;mcc_generated_files/mcc.c: 122:         LATCbits.LATC6 = 0;
  3283  0B45  0022               	movlb	2	; select bank2
  3284  0B46  130E               	bcf	14,6	;volatile
  3285  0B47                     l2053:
  3286                           
  3287                           ;mcc_generated_files/mcc.c: 123:         _delay((unsigned long)((50)*(1000000/4000.0)));
  3288  0B47  3011               	movlw	17
  3289  0B48  00F0               	movwf	??_LED_7_Blynk
  3290  0B49  303A               	movlw	58
  3291  0B4A                     u4667:
  3292  0B4A  0B89               	decfsz	9,f
  3293  0B4B  2B4A               	goto	u4667
  3294  0B4C  0BF0               	decfsz	??_LED_7_Blynk,f
  3295  0B4D  2B4A               	goto	u4667
  3296  0B4E  3200               	nop2
  3297  0B4F                     l2055:
  3298                           
  3299                           ;mcc_generated_files/mcc.c: 124:         LATCbits.LATC6 = 1;
  3300  0B4F  0022               	movlb	2	; select bank2
  3301  0B50  170E               	bsf	14,6	;volatile
  3302  0B51                     l2057:
  3303                           
  3304                           ;mcc_generated_files/mcc.c: 126:     if (state_7 == 2) LATCbits.LATC6 = 0;
  3305  0B51  3002               	movlw	2
  3306  0B52  0020               	movlb	0	; select bank0
  3307  0B53  064E               	xorwf	_state_7,w
  3308  0B54  1D03               	btfss	3,2
  3309  0B55  2B57               	goto	u2561
  3310  0B56  2B58               	goto	u2560
  3311  0B57                     u2561:
  3312  0B57  2B5A               	goto	l78
  3313  0B58                     u2560:
  3314  0B58                     l2059:
  3315  0B58  0022               	movlb	2	; select bank2
  3316  0B59  130E               	bcf	14,6	;volatile
  3317  0B5A                     l78:
  3318  0B5A  0008               	return
  3319  0B5B                     __end_of_LED_7_Blynk:
  3320                           
  3321                           	psect	text21
  3322  0B23                     __ptext21:	
  3323 ;; *************** function _LED_6_Blynk *****************
  3324 ;; Defined at:
  3325 ;;		line 112 in file "mcc_generated_files/mcc.c"
  3326 ;; Parameters:    Size  Location     Type
  3327 ;;		None
  3328 ;; Auto vars:     Size  Location     Type
  3329 ;;		None
  3330 ;; Return value:  Size  Location     Type
  3331 ;;                  1    wreg      void 
  3332 ;; Registers used:
  3333 ;;		wreg, status,2, status,0
  3334 ;; Tracked objects:
  3335 ;;		On entry : 0/0
  3336 ;;		On exit  : 0/0
  3337 ;;		Unchanged: 0/0
  3338 ;; Data sizes:     COMMON   BANK0   BANK1   BANK2   BANK3   BANK4   BANK5   BANK6
  3339 ;;      Params:         0       0       0       0       0       0       0       0
  3340 ;;      Locals:         0       0       0       0       0       0       0       0
  3341 ;;      Temps:          1       0       0       0       0       0       0       0
  3342 ;;      Totals:         1       0       0       0       0       0       0       0
  3343 ;;Total ram usage:        1 bytes
  3344 ;; Hardware stack levels used: 1
  3345 ;; This function calls:
  3346 ;;		Nothing
  3347 ;; This function is called by:
  3348 ;;		_Check_Blynk
  3349 ;; This function uses a non-reentrant model
  3350 ;;
  3351                           
  3352  0B23                     _LED_6_Blynk:	
  3353                           ;psect for function _LED_6_Blynk
  3354                           
  3355  0B23                     l2037:	
  3356                           ;incstack = 0
  3357                           ; Regs used in _LED_6_Blynk: [wreg+status,2+status,0]
  3358                           
  3359                           
  3360                           ;mcc_generated_files/mcc.c: 113:     if (state_6 == 1){
  3361  0B23  0020               	movlb	0	; select bank0
  3362  0B24  034F               	decf	_state_6,w
  3363  0B25  1D03               	btfss	3,2
  3364  0B26  2B28               	goto	u2531
  3365  0B27  2B29               	goto	u2530
  3366  0B28                     u2531:
  3367  0B28  2B35               	goto	l2045
  3368  0B29                     u2530:
  3369  0B29                     l2039:
  3370                           
  3371                           ;mcc_generated_files/mcc.c: 114:         LATCbits.LATC5 = 0;
  3372  0B29  0022               	movlb	2	; select bank2
  3373  0B2A  128E               	bcf	14,5	;volatile
  3374  0B2B                     l2041:
  3375                           
  3376                           ;mcc_generated_files/mcc.c: 115:         _delay((unsigned long)((50)*(1000000/4000.0)));
  3377  0B2B  3011               	movlw	17
  3378  0B2C  00F0               	movwf	??_LED_6_Blynk
  3379  0B2D  303A               	movlw	58
  3380  0B2E                     u4677:
  3381  0B2E  0B89               	decfsz	9,f
  3382  0B2F  2B2E               	goto	u4677
  3383  0B30  0BF0               	decfsz	??_LED_6_Blynk,f
  3384  0B31  2B2E               	goto	u4677
  3385  0B32  3200               	nop2
  3386  0B33                     l2043:
  3387                           
  3388                           ;mcc_generated_files/mcc.c: 116:         LATCbits.LATC5 = 1;
  3389  0B33  0022               	movlb	2	; select bank2
  3390  0B34  168E               	bsf	14,5	;volatile
  3391  0B35                     l2045:
  3392                           
  3393                           ;mcc_generated_files/mcc.c: 118:     if (state_6 == 2) LATCbits.LATC5 = 0;
  3394  0B35  3002               	movlw	2
  3395  0B36  0020               	movlb	0	; select bank0
  3396  0B37  064F               	xorwf	_state_6,w
  3397  0B38  1D03               	btfss	3,2
  3398  0B39  2B3B               	goto	u2541
  3399  0B3A  2B3C               	goto	u2540
  3400  0B3B                     u2541:
  3401  0B3B  2B3E               	goto	l73
  3402  0B3C                     u2540:
  3403  0B3C                     l2047:
  3404  0B3C  0022               	movlb	2	; select bank2
  3405  0B3D  128E               	bcf	14,5	;volatile
  3406  0B3E                     l73:
  3407  0B3E  0008               	return
  3408  0B3F                     __end_of_LED_6_Blynk:
  3409                           
  3410                           	psect	text22
  3411  0B07                     __ptext22:	
  3412 ;; *************** function _LED_5_Blynk *****************
  3413 ;; Defined at:
  3414 ;;		line 104 in file "mcc_generated_files/mcc.c"
  3415 ;; Parameters:    Size  Location     Type
  3416 ;;		None
  3417 ;; Auto vars:     Size  Location     Type
  3418 ;;		None
  3419 ;; Return value:  Size  Location     Type
  3420 ;;                  1    wreg      void 
  3421 ;; Registers used:
  3422 ;;		wreg, status,2, status,0
  3423 ;; Tracked objects:
  3424 ;;		On entry : 0/0
  3425 ;;		On exit  : 0/0
  3426 ;;		Unchanged: 0/0
  3427 ;; Data sizes:     COMMON   BANK0   BANK1   BANK2   BANK3   BANK4   BANK5   BANK6
  3428 ;;      Params:         0       0       0       0       0       0       0       0
  3429 ;;      Locals:         0       0       0       0       0       0       0       0
  3430 ;;      Temps:          1       0       0       0       0       0       0       0
  3431 ;;      Totals:         1       0       0       0       0       0       0       0
  3432 ;;Total ram usage:        1 bytes
  3433 ;; Hardware stack levels used: 1
  3434 ;; This function calls:
  3435 ;;		Nothing
  3436 ;; This function is called by:
  3437 ;;		_Check_Blynk
  3438 ;; This function uses a non-reentrant model
  3439 ;;
  3440                           
  3441  0B07                     _LED_5_Blynk:	
  3442                           ;psect for function _LED_5_Blynk
  3443                           
  3444  0B07                     l2025:	
  3445                           ;incstack = 0
  3446                           ; Regs used in _LED_5_Blynk: [wreg+status,2+status,0]
  3447                           
  3448                           
  3449                           ;mcc_generated_files/mcc.c: 105:     if (state_5 == 1){
  3450  0B07  0020               	movlb	0	; select bank0
  3451  0B08  0350               	decf	_state_5,w
  3452  0B09  1D03               	btfss	3,2
  3453  0B0A  2B0C               	goto	u2511
  3454  0B0B  2B0D               	goto	u2510
  3455  0B0C                     u2511:
  3456  0B0C  2B19               	goto	l2033
  3457  0B0D                     u2510:
  3458  0B0D                     l2027:
  3459                           
  3460                           ;mcc_generated_files/mcc.c: 106:         LATCbits.LATC4 = 0;
  3461  0B0D  0022               	movlb	2	; select bank2
  3462  0B0E  120E               	bcf	14,4	;volatile
  3463  0B0F                     l2029:
  3464                           
  3465                           ;mcc_generated_files/mcc.c: 107:         _delay((unsigned long)((50)*(1000000/4000.0)));
  3466  0B0F  3011               	movlw	17
  3467  0B10  00F0               	movwf	??_LED_5_Blynk
  3468  0B11  303A               	movlw	58
  3469  0B12                     u4687:
  3470  0B12  0B89               	decfsz	9,f
  3471  0B13  2B12               	goto	u4687
  3472  0B14  0BF0               	decfsz	??_LED_5_Blynk,f
  3473  0B15  2B12               	goto	u4687
  3474  0B16  3200               	nop2
  3475  0B17                     l2031:
  3476                           
  3477                           ;mcc_generated_files/mcc.c: 108:         LATCbits.LATC4 = 1;
  3478  0B17  0022               	movlb	2	; select bank2
  3479  0B18  160E               	bsf	14,4	;volatile
  3480  0B19                     l2033:
  3481                           
  3482                           ;mcc_generated_files/mcc.c: 110:     if (state_5 == 2) LATCbits.LATC4 = 0;
  3483  0B19  3002               	movlw	2
  3484  0B1A  0020               	movlb	0	; select bank0
  3485  0B1B  0650               	xorwf	_state_5,w
  3486  0B1C  1D03               	btfss	3,2
  3487  0B1D  2B1F               	goto	u2521
  3488  0B1E  2B20               	goto	u2520
  3489  0B1F                     u2521:
  3490  0B1F  2B22               	goto	l68
  3491  0B20                     u2520:
  3492  0B20                     l2035:
  3493  0B20  0022               	movlb	2	; select bank2
  3494  0B21  120E               	bcf	14,4	;volatile
  3495  0B22                     l68:
  3496  0B22  0008               	return
  3497  0B23                     __end_of_LED_5_Blynk:
  3498                           
  3499                           	psect	text23
  3500  0AEB                     __ptext23:	
  3501 ;; *************** function _LED_4_Blynk *****************
  3502 ;; Defined at:
  3503 ;;		line 96 in file "mcc_generated_files/mcc.c"
  3504 ;; Parameters:    Size  Location     Type
  3505 ;;		None
  3506 ;; Auto vars:     Size  Location     Type
  3507 ;;		None
  3508 ;; Return value:  Size  Location     Type
  3509 ;;                  1    wreg      void 
  3510 ;; Registers used:
  3511 ;;		wreg, status,2, status,0
  3512 ;; Tracked objects:
  3513 ;;		On entry : 0/0
  3514 ;;		On exit  : 0/0
  3515 ;;		Unchanged: 0/0
  3516 ;; Data sizes:     COMMON   BANK0   BANK1   BANK2   BANK3   BANK4   BANK5   BANK6
  3517 ;;      Params:         0       0       0       0       0       0       0       0
  3518 ;;      Locals:         0       0       0       0       0       0       0       0
  3519 ;;      Temps:          1       0       0       0       0       0       0       0
  3520 ;;      Totals:         1       0       0       0       0       0       0       0
  3521 ;;Total ram usage:        1 bytes
  3522 ;; Hardware stack levels used: 1
  3523 ;; This function calls:
  3524 ;;		Nothing
  3525 ;; This function is called by:
  3526 ;;		_Check_Blynk
  3527 ;; This function uses a non-reentrant model
  3528 ;;
  3529                           
  3530  0AEB                     _LED_4_Blynk:	
  3531                           ;psect for function _LED_4_Blynk
  3532                           
  3533  0AEB                     l2013:	
  3534                           ;incstack = 0
  3535                           ; Regs used in _LED_4_Blynk: [wreg+status,2+status,0]
  3536                           
  3537                           
  3538                           ;mcc_generated_files/mcc.c: 97:     if (state_4 == 1){
  3539  0AEB  0020               	movlb	0	; select bank0
  3540  0AEC  0351               	decf	_state_4,w
  3541  0AED  1D03               	btfss	3,2
  3542  0AEE  2AF0               	goto	u2491
  3543  0AEF  2AF1               	goto	u2490
  3544  0AF0                     u2491:
  3545  0AF0  2AFD               	goto	l2021
  3546  0AF1                     u2490:
  3547  0AF1                     l2015:
  3548                           
  3549                           ;mcc_generated_files/mcc.c: 98:         LATCbits.LATC3 = 0;
  3550  0AF1  0022               	movlb	2	; select bank2
  3551  0AF2  118E               	bcf	14,3	;volatile
  3552  0AF3                     l2017:
  3553                           
  3554                           ;mcc_generated_files/mcc.c: 99:         _delay((unsigned long)((50)*(1000000/4000.0)));
  3555  0AF3  3011               	movlw	17
  3556  0AF4  00F0               	movwf	??_LED_4_Blynk
  3557  0AF5  303A               	movlw	58
  3558  0AF6                     u4697:
  3559  0AF6  0B89               	decfsz	9,f
  3560  0AF7  2AF6               	goto	u4697
  3561  0AF8  0BF0               	decfsz	??_LED_4_Blynk,f
  3562  0AF9  2AF6               	goto	u4697
  3563  0AFA  3200               	nop2
  3564  0AFB                     l2019:
  3565                           
  3566                           ;mcc_generated_files/mcc.c: 100:         LATCbits.LATC3 = 1;
  3567  0AFB  0022               	movlb	2	; select bank2
  3568  0AFC  158E               	bsf	14,3	;volatile
  3569  0AFD                     l2021:
  3570                           
  3571                           ;mcc_generated_files/mcc.c: 102:     if (state_4 == 2) LATCbits.LATC3 = 0;
  3572  0AFD  3002               	movlw	2
  3573  0AFE  0020               	movlb	0	; select bank0
  3574  0AFF  0651               	xorwf	_state_4,w
  3575  0B00  1D03               	btfss	3,2
  3576  0B01  2B03               	goto	u2501
  3577  0B02  2B04               	goto	u2500
  3578  0B03                     u2501:
  3579  0B03  2B06               	goto	l63
  3580  0B04                     u2500:
  3581  0B04                     l2023:
  3582  0B04  0022               	movlb	2	; select bank2
  3583  0B05  118E               	bcf	14,3	;volatile
  3584  0B06                     l63:
  3585  0B06  0008               	return
  3586  0B07                     __end_of_LED_4_Blynk:
  3587                           
  3588                           	psect	text24
  3589  0ACF                     __ptext24:	
  3590 ;; *************** function _LED_3_Blynk *****************
  3591 ;; Defined at:
  3592 ;;		line 88 in file "mcc_generated_files/mcc.c"
  3593 ;; Parameters:    Size  Location     Type
  3594 ;;		None
  3595 ;; Auto vars:     Size  Location     Type
  3596 ;;		None
  3597 ;; Return value:  Size  Location     Type
  3598 ;;                  1    wreg      void 
  3599 ;; Registers used:
  3600 ;;		wreg, status,2, status,0
  3601 ;; Tracked objects:
  3602 ;;		On entry : 0/0
  3603 ;;		On exit  : 0/0
  3604 ;;		Unchanged: 0/0
  3605 ;; Data sizes:     COMMON   BANK0   BANK1   BANK2   BANK3   BANK4   BANK5   BANK6
  3606 ;;      Params:         0       0       0       0       0       0       0       0
  3607 ;;      Locals:         0       0       0       0       0       0       0       0
  3608 ;;      Temps:          1       0       0       0       0       0       0       0
  3609 ;;      Totals:         1       0       0       0       0       0       0       0
  3610 ;;Total ram usage:        1 bytes
  3611 ;; Hardware stack levels used: 1
  3612 ;; This function calls:
  3613 ;;		Nothing
  3614 ;; This function is called by:
  3615 ;;		_Check_Blynk
  3616 ;; This function uses a non-reentrant model
  3617 ;;
  3618                           
  3619  0ACF                     _LED_3_Blynk:	
  3620                           ;psect for function _LED_3_Blynk
  3621                           
  3622  0ACF                     l2001:	
  3623                           ;incstack = 0
  3624                           ; Regs used in _LED_3_Blynk: [wreg+status,2+status,0]
  3625                           
  3626                           
  3627                           ;mcc_generated_files/mcc.c: 89:     if (state_3 == 1){
  3628  0ACF  0020               	movlb	0	; select bank0
  3629  0AD0  0352               	decf	_state_3,w
  3630  0AD1  1D03               	btfss	3,2
  3631  0AD2  2AD4               	goto	u2471
  3632  0AD3  2AD5               	goto	u2470
  3633  0AD4                     u2471:
  3634  0AD4  2AE1               	goto	l2009
  3635  0AD5                     u2470:
  3636  0AD5                     l2003:
  3637                           
  3638                           ;mcc_generated_files/mcc.c: 90:         LATCbits.LATC2 = 0;
  3639  0AD5  0022               	movlb	2	; select bank2
  3640  0AD6  110E               	bcf	14,2	;volatile
  3641  0AD7                     l2005:
  3642                           
  3643                           ;mcc_generated_files/mcc.c: 91:         _delay((unsigned long)((50)*(1000000/4000.0)));
  3644  0AD7  3011               	movlw	17
  3645  0AD8  00F0               	movwf	??_LED_3_Blynk
  3646  0AD9  303A               	movlw	58
  3647  0ADA                     u4707:
  3648  0ADA  0B89               	decfsz	9,f
  3649  0ADB  2ADA               	goto	u4707
  3650  0ADC  0BF0               	decfsz	??_LED_3_Blynk,f
  3651  0ADD  2ADA               	goto	u4707
  3652  0ADE  3200               	nop2
  3653  0ADF                     l2007:
  3654                           
  3655                           ;mcc_generated_files/mcc.c: 92:         LATCbits.LATC2 = 1;
  3656  0ADF  0022               	movlb	2	; select bank2
  3657  0AE0  150E               	bsf	14,2	;volatile
  3658  0AE1                     l2009:
  3659                           
  3660                           ;mcc_generated_files/mcc.c: 94:     if (state_3 == 2) LATCbits.LATC2 = 0;
  3661  0AE1  3002               	movlw	2
  3662  0AE2  0020               	movlb	0	; select bank0
  3663  0AE3  0652               	xorwf	_state_3,w
  3664  0AE4  1D03               	btfss	3,2
  3665  0AE5  2AE7               	goto	u2481
  3666  0AE6  2AE8               	goto	u2480
  3667  0AE7                     u2481:
  3668  0AE7  2AEA               	goto	l58
  3669  0AE8                     u2480:
  3670  0AE8                     l2011:
  3671  0AE8  0022               	movlb	2	; select bank2
  3672  0AE9  110E               	bcf	14,2	;volatile
  3673  0AEA                     l58:
  3674  0AEA  0008               	return
  3675  0AEB                     __end_of_LED_3_Blynk:
  3676                           
  3677                           	psect	text25
  3678  0AB3                     __ptext25:	
  3679 ;; *************** function _LED_2_Blynk *****************
  3680 ;; Defined at:
  3681 ;;		line 80 in file "mcc_generated_files/mcc.c"
  3682 ;; Parameters:    Size  Location     Type
  3683 ;;		None
  3684 ;; Auto vars:     Size  Location     Type
  3685 ;;		None
  3686 ;; Return value:  Size  Location     Type
  3687 ;;                  1    wreg      void 
  3688 ;; Registers used:
  3689 ;;		wreg, status,2, status,0
  3690 ;; Tracked objects:
  3691 ;;		On entry : 0/0
  3692 ;;		On exit  : 0/0
  3693 ;;		Unchanged: 0/0
  3694 ;; Data sizes:     COMMON   BANK0   BANK1   BANK2   BANK3   BANK4   BANK5   BANK6
  3695 ;;      Params:         0       0       0       0       0       0       0       0
  3696 ;;      Locals:         0       0       0       0       0       0       0       0
  3697 ;;      Temps:          1       0       0       0       0       0       0       0
  3698 ;;      Totals:         1       0       0       0       0       0       0       0
  3699 ;;Total ram usage:        1 bytes
  3700 ;; Hardware stack levels used: 1
  3701 ;; This function calls:
  3702 ;;		Nothing
  3703 ;; This function is called by:
  3704 ;;		_Check_Blynk
  3705 ;; This function uses a non-reentrant model
  3706 ;;
  3707                           
  3708  0AB3                     _LED_2_Blynk:	
  3709                           ;psect for function _LED_2_Blynk
  3710                           
  3711  0AB3                     l1989:	
  3712                           ;incstack = 0
  3713                           ; Regs used in _LED_2_Blynk: [wreg+status,2+status,0]
  3714                           
  3715                           
  3716                           ;mcc_generated_files/mcc.c: 81:     if (state_2 == 1){
  3717  0AB3  0020               	movlb	0	; select bank0
  3718  0AB4  0353               	decf	_state_2,w
  3719  0AB5  1D03               	btfss	3,2
  3720  0AB6  2AB8               	goto	u2451
  3721  0AB7  2AB9               	goto	u2450
  3722  0AB8                     u2451:
  3723  0AB8  2AC5               	goto	l1997
  3724  0AB9                     u2450:
  3725  0AB9                     l1991:
  3726                           
  3727                           ;mcc_generated_files/mcc.c: 82:         LATCbits.LATC1 = 0;
  3728  0AB9  0022               	movlb	2	; select bank2
  3729  0ABA  108E               	bcf	14,1	;volatile
  3730  0ABB                     l1993:
  3731                           
  3732                           ;mcc_generated_files/mcc.c: 83:         _delay((unsigned long)((50)*(1000000/4000.0)));
  3733  0ABB  3011               	movlw	17
  3734  0ABC  00F0               	movwf	??_LED_2_Blynk
  3735  0ABD  303A               	movlw	58
  3736  0ABE                     u4717:
  3737  0ABE  0B89               	decfsz	9,f
  3738  0ABF  2ABE               	goto	u4717
  3739  0AC0  0BF0               	decfsz	??_LED_2_Blynk,f
  3740  0AC1  2ABE               	goto	u4717
  3741  0AC2  3200               	nop2
  3742  0AC3                     l1995:
  3743                           
  3744                           ;mcc_generated_files/mcc.c: 84:         LATCbits.LATC1 = 1;
  3745  0AC3  0022               	movlb	2	; select bank2
  3746  0AC4  148E               	bsf	14,1	;volatile
  3747  0AC5                     l1997:
  3748                           
  3749                           ;mcc_generated_files/mcc.c: 86:     if (state_2 == 2) LATCbits.LATC1 = 0;
  3750  0AC5  3002               	movlw	2
  3751  0AC6  0020               	movlb	0	; select bank0
  3752  0AC7  0653               	xorwf	_state_2,w
  3753  0AC8  1D03               	btfss	3,2
  3754  0AC9  2ACB               	goto	u2461
  3755  0ACA  2ACC               	goto	u2460
  3756  0ACB                     u2461:
  3757  0ACB  2ACE               	goto	l53
  3758  0ACC                     u2460:
  3759  0ACC                     l1999:
  3760  0ACC  0022               	movlb	2	; select bank2
  3761  0ACD  108E               	bcf	14,1	;volatile
  3762  0ACE                     l53:
  3763  0ACE  0008               	return
  3764  0ACF                     __end_of_LED_2_Blynk:
  3765                           
  3766                           	psect	text26
  3767  0A97                     __ptext26:	
  3768 ;; *************** function _LED_1_Blynk *****************
  3769 ;; Defined at:
  3770 ;;		line 72 in file "mcc_generated_files/mcc.c"
  3771 ;; Parameters:    Size  Location     Type
  3772 ;;		None
  3773 ;; Auto vars:     Size  Location     Type
  3774 ;;		None
  3775 ;; Return value:  Size  Location     Type
  3776 ;;                  1    wreg      void 
  3777 ;; Registers used:
  3778 ;;		wreg, status,2, status,0
  3779 ;; Tracked objects:
  3780 ;;		On entry : 0/0
  3781 ;;		On exit  : 0/0
  3782 ;;		Unchanged: 0/0
  3783 ;; Data sizes:     COMMON   BANK0   BANK1   BANK2   BANK3   BANK4   BANK5   BANK6
  3784 ;;      Params:         0       0       0       0       0       0       0       0
  3785 ;;      Locals:         0       0       0       0       0       0       0       0
  3786 ;;      Temps:          1       0       0       0       0       0       0       0
  3787 ;;      Totals:         1       0       0       0       0       0       0       0
  3788 ;;Total ram usage:        1 bytes
  3789 ;; Hardware stack levels used: 1
  3790 ;; This function calls:
  3791 ;;		Nothing
  3792 ;; This function is called by:
  3793 ;;		_Check_Blynk
  3794 ;; This function uses a non-reentrant model
  3795 ;;
  3796                           
  3797  0A97                     _LED_1_Blynk:	
  3798                           ;psect for function _LED_1_Blynk
  3799                           
  3800  0A97                     l1977:	
  3801                           ;incstack = 0
  3802                           ; Regs used in _LED_1_Blynk: [wreg+status,2+status,0]
  3803                           
  3804                           
  3805                           ;mcc_generated_files/mcc.c: 73:     if (state_1 == 1){
  3806  0A97  0020               	movlb	0	; select bank0
  3807  0A98  0354               	decf	_state_1,w
  3808  0A99  1D03               	btfss	3,2
  3809  0A9A  2A9C               	goto	u2431
  3810  0A9B  2A9D               	goto	u2430
  3811  0A9C                     u2431:
  3812  0A9C  2AA9               	goto	l1985
  3813  0A9D                     u2430:
  3814  0A9D                     l1979:
  3815                           
  3816                           ;mcc_generated_files/mcc.c: 74:         LATCbits.LATC0 = 0;
  3817  0A9D  0022               	movlb	2	; select bank2
  3818  0A9E  100E               	bcf	14,0	;volatile
  3819  0A9F                     l1981:
  3820                           
  3821                           ;mcc_generated_files/mcc.c: 75:         _delay((unsigned long)((50)*(1000000/4000.0)));
  3822  0A9F  3011               	movlw	17
  3823  0AA0  00F0               	movwf	??_LED_1_Blynk
  3824  0AA1  303A               	movlw	58
  3825  0AA2                     u4727:
  3826  0AA2  0B89               	decfsz	9,f
  3827  0AA3  2AA2               	goto	u4727
  3828  0AA4  0BF0               	decfsz	??_LED_1_Blynk,f
  3829  0AA5  2AA2               	goto	u4727
  3830  0AA6  3200               	nop2
  3831  0AA7                     l1983:
  3832                           
  3833                           ;mcc_generated_files/mcc.c: 76:         LATCbits.LATC0 = 1;
  3834  0AA7  0022               	movlb	2	; select bank2
  3835  0AA8  140E               	bsf	14,0	;volatile
  3836  0AA9                     l1985:
  3837                           
  3838                           ;mcc_generated_files/mcc.c: 78:     if (state_1 == 2) LATCbits.LATC0 = 0;
  3839  0AA9  3002               	movlw	2
  3840  0AAA  0020               	movlb	0	; select bank0
  3841  0AAB  0654               	xorwf	_state_1,w
  3842  0AAC  1D03               	btfss	3,2
  3843  0AAD  2AAF               	goto	u2441
  3844  0AAE  2AB0               	goto	u2440
  3845  0AAF                     u2441:
  3846  0AAF  2AB2               	goto	l48
  3847  0AB0                     u2440:
  3848  0AB0                     l1987:
  3849  0AB0  0022               	movlb	2	; select bank2
  3850  0AB1  100E               	bcf	14,0	;volatile
  3851  0AB2                     l48:
  3852  0AB2  0008               	return
  3853  0AB3                     __end_of_LED_1_Blynk:
  3854  007E                     btemp	set	126	;btemp
  3855  007E                     wtemp0	set	126
  3856  218C                     
  3857                           	psect	idloc
  3858                           
  3859                           ;Config register IDLOC0 @ 0x8000
  3860                           ;	unspecified, using default values
  3861  8000                     	org	32768
  3862  8000  3FFF               	dw	16383
  3863                           
  3864                           ;Config register IDLOC1 @ 0x8001
  3865                           ;	unspecified, using default values
  3866  8001                     	org	32769
  3867  8001  3FFF               	dw	16383
  3868                           
  3869                           ;Config register IDLOC2 @ 0x8002
  3870                           ;	unspecified, using default values
  3871  8002                     	org	32770
  3872  8002  3FFF               	dw	16383
  3873                           
  3874                           ;Config register IDLOC3 @ 0x8003
  3875                           ;	unspecified, using default values
  3876  8003                     	org	32771
  3877  8003  3FFF               	dw	16383
  3878                           
  3879                           	psect	config
  3880                           
  3881                           ;Config register CONFIG1 @ 0x8007
  3882                           ;	Oscillator Selection Bits
  3883                           ;	FOSC = INTOSC, INTOSC oscillator: I/O function on CLKIN pin
  3884                           ;	Watchdog Timer Enable
  3885                           ;	WDTE = OFF, WDT disabled
  3886                           ;	Power-up Timer Enable
  3887                           ;	PWRTE = OFF, PWRT disabled
  3888                           ;	MCLR Pin Function Select
  3889                           ;	MCLRE = ON, MCLR/VPP pin function is MCLR
  3890                           ;	Flash Program Memory Code Protection
  3891                           ;	CP = OFF, Program memory code protection is disabled
  3892                           ;	Brown-out Reset Enable
  3893                           ;	BOREN = ON, Brown-out Reset enabled
  3894                           ;	Clock Out Enable
  3895                           ;	CLKOUTEN = OFF, CLKOUT function is disabled. I/O or oscillator function on the CLKOUT 
      +                          pin
  3896                           ;	Internal/External Switchover Mode
  3897                           ;	IESO = ON, Internal/External Switchover Mode is enabled
  3898                           ;	Fail-Safe Clock Monitor Enable
  3899                           ;	FCMEN = ON, Fail-Safe Clock Monitor is enabled
  3900  8007                     	org	32775
  3901  8007  3FE4               	dw	16356
  3902                           
  3903                           ;Config register CONFIG2 @ 0x8008
  3904                           ;	Flash Memory Self-Write Protection
  3905                           ;	WRT = OFF, Write protection off
  3906                           ;	Stack Overflow/Underflow Reset Enable
  3907                           ;	STVREN = ON, Stack Overflow or Underflow will cause a Reset
  3908                           ;	Brown-out Reset Voltage Selection
  3909                           ;	BORV = LO, Brown-out Reset Voltage (Vbor), low trip point selected.
  3910                           ;	Low-Power Brown Out Reset
  3911                           ;	LPBOR = OFF, Low-Power BOR is disabled
  3912                           ;	Low-Voltage Programming Enable
  3913                           ;	LVP = ON, Low-voltage programming enabled
  3914  8008                     	org	32776
  3915  8008  3FFF               	dw	16383
  3916                           
  3917                           	psect	maintext_split_1
  3918  0E8B                     u2860:
  3919  0E8B                     l2189:
  3920  0E8B  308C               	movlw	140
  3921  0E8C  0086               	movwf	6
  3922  0E8D  3021               	movlw	33
  3923  0E8E  0087               	movwf	7
  3924  0E8F  3141               	addfsr 1,1
  3925  0E90  304E               	movlw	78
  3926  0E91  0601               	xorwf	1,w
  3927  0E92  1D03               	btfss	3,2
  3928  0E93  2E95               	goto	u2871
  3929  0E94  2E96               	goto	u2870
  3930  0E95                     u2871:
  3931  0E95  2EBD               	goto	l2201
  3932  0E96                     u2870:
  3933  0E96                     l2191:
  3934  0E96  308C               	movlw	140
  3935  0E97  0086               	movwf	6
  3936  0E98  3021               	movlw	33
  3937  0E99  0087               	movwf	7
  3938  0E9A  3142               	addfsr 1,2
  3939  0E9B  3030               	movlw	48
  3940  0E9C  0601               	xorwf	1,w
  3941  0E9D  1D03               	btfss	3,2
  3942  0E9E  2EA0               	goto	u2881
  3943  0E9F  2EA1               	goto	u2880
  3944  0EA0                     u2881:
  3945  0EA0  2EBD               	goto	l2201
  3946  0EA1                     u2880:
  3947  0EA1                     l2193:
  3948  0EA1  308C               	movlw	140
  3949  0EA2  0086               	movwf	6
  3950  0EA3  3021               	movlw	33
  3951  0EA4  0087               	movwf	7
  3952  0EA5  3143               	addfsr 1,3
  3953  0EA6  3035               	movlw	53
  3954  0EA7  0601               	xorwf	1,w
  3955  0EA8  1D03               	btfss	3,2
  3956  0EA9  2EAB               	goto	u2891
  3957  0EAA  2EAC               	goto	u2890
  3958  0EAB                     u2891:
  3959  0EAB  2EBD               	goto	l2201
  3960  0EAC                     u2890:
  3961  0EAC                     l2195:
  3962  0EAC  308C               	movlw	140
  3963  0EAD  0086               	movwf	6
  3964  0EAE  3021               	movlw	33
  3965  0EAF  0087               	movwf	7
  3966  0EB0  3144               	addfsr 1,4
  3967  0EB1  3023               	movlw	35
  3968  0EB2  0601               	xorwf	1,w
  3969  0EB3  1D03               	btfss	3,2
  3970  0EB4  2EB6               	goto	u2901
  3971  0EB5  2EB7               	goto	u2900
  3972  0EB6                     u2901:
  3973  0EB6  2EBD               	goto	l2201
  3974  0EB7                     u2900:
  3975  0EB7                     l2197:
  3976                           
  3977                           ;main.c: 113:             LATCbits.LATC4 =1 ;
  3978  0EB7  0022               	movlb	2	; select bank2
  3979  0EB8  160E               	bsf	14,4	;volatile
  3980  0EB9                     l2199:
  3981                           
  3982                           ;main.c: 114:             state_5 = 0;
  3983  0EB9  0020               	movlb	0	; select bank0
  3984  0EBA  01D0               	clrf	_state_5
  3985                           
  3986                           ;main.c: 115:             count = 0;
  3987  0EBB  01C8               	clrf	_count
  3988  0EBC  01C9               	clrf	_count+1
  3989  0EBD                     l2201:
  3990                           
  3991                           ;main.c: 117:         if ((str[0]=='O')&&(str[1]=='N')&&(str[2]=='0')&&(str[3]=='6')&&(s
      +                          tr[4]=='#')){
  3992  0EBD  308C               	movlw	140
  3993  0EBE  0086               	movwf	6
  3994  0EBF  3021               	movlw	33
  3995  0EC0  0087               	movwf	7
  3996  0EC1  304F               	movlw	79
  3997  0EC2  0601               	xorwf	1,w
  3998  0EC3  1D03               	btfss	3,2
  3999  0EC4  2EC6               	goto	u2911
  4000  0EC5  2EC7               	goto	u2910
  4001  0EC6                     u2911:
  4002  0EC6  2EF9               	goto	l2215
  4003  0EC7                     u2910:
  4004  0EC7                     l2203:
  4005  0EC7  308C               	movlw	140
  4006  0EC8  0086               	movwf	6
  4007  0EC9  3021               	movlw	33
  4008  0ECA  0087               	movwf	7
  4009  0ECB  3141               	addfsr 1,1
  4010  0ECC  304E               	movlw	78
  4011  0ECD  0601               	xorwf	1,w
  4012  0ECE  1D03               	btfss	3,2
  4013  0ECF  2ED1               	goto	u2921
  4014  0ED0  2ED2               	goto	u2920
  4015  0ED1                     u2921:
  4016  0ED1  2EF9               	goto	l2215
  4017  0ED2                     u2920:
  4018  0ED2                     l2205:
  4019  0ED2  308C               	movlw	140
  4020  0ED3  0086               	movwf	6
  4021  0ED4  3021               	movlw	33
  4022  0ED5  0087               	movwf	7
  4023  0ED6  3142               	addfsr 1,2
  4024  0ED7  3030               	movlw	48
  4025  0ED8  0601               	xorwf	1,w
  4026  0ED9  1D03               	btfss	3,2
  4027  0EDA  2EDC               	goto	u2931
  4028  0EDB  2EDD               	goto	u2930
  4029  0EDC                     u2931:
  4030  0EDC  2EF9               	goto	l2215
  4031  0EDD                     u2930:
  4032  0EDD                     l2207:
  4033  0EDD  308C               	movlw	140
  4034  0EDE  0086               	movwf	6
  4035  0EDF  3021               	movlw	33
  4036  0EE0  0087               	movwf	7
  4037  0EE1  3143               	addfsr 1,3
  4038  0EE2  3036               	movlw	54
  4039  0EE3  0601               	xorwf	1,w
  4040  0EE4  1D03               	btfss	3,2
  4041  0EE5  2EE7               	goto	u2941
  4042  0EE6  2EE8               	goto	u2940
  4043  0EE7                     u2941:
  4044  0EE7  2EF9               	goto	l2215
  4045  0EE8                     u2940:
  4046  0EE8                     l2209:
  4047  0EE8  308C               	movlw	140
  4048  0EE9  0086               	movwf	6
  4049  0EEA  3021               	movlw	33
  4050  0EEB  0087               	movwf	7
  4051  0EEC  3144               	addfsr 1,4
  4052  0EED  3023               	movlw	35
  4053  0EEE  0601               	xorwf	1,w
  4054  0EEF  1D03               	btfss	3,2
  4055  0EF0  2EF2               	goto	u2951
  4056  0EF1  2EF3               	goto	u2950
  4057  0EF2                     u2951:
  4058  0EF2  2EF9               	goto	l2215
  4059  0EF3                     u2950:
  4060  0EF3                     l2211:
  4061                           
  4062                           ;main.c: 118:             LATCbits.LATC5 =1 ;
  4063  0EF3  0022               	movlb	2	; select bank2
  4064  0EF4  168E               	bsf	14,5	;volatile
  4065  0EF5                     l2213:
  4066                           
  4067                           ;main.c: 119:             state_6 = 0;
  4068  0EF5  0020               	movlb	0	; select bank0
  4069  0EF6  01CF               	clrf	_state_6
  4070                           
  4071                           ;main.c: 120:             count = 0;
  4072  0EF7  01C8               	clrf	_count
  4073  0EF8  01C9               	clrf	_count+1
  4074  0EF9                     l2215:
  4075                           
  4076                           ;main.c: 122:         if ((str[0]=='O')&&(str[1]=='N')&&(str[2]=='0')&&(str[3]=='7')&&(s
      +                          tr[4]=='#')){
  4077  0EF9  308C               	movlw	140
  4078  0EFA  0086               	movwf	6
  4079  0EFB  3021               	movlw	33
  4080  0EFC  0087               	movwf	7
  4081  0EFD  304F               	movlw	79
  4082  0EFE  0601               	xorwf	1,w
  4083  0EFF  1D03               	btfss	3,2
  4084  0F00  2F02               	goto	u2961
  4085  0F01  2F03               	goto	u2960
  4086  0F02                     u2961:
  4087  0F02  2F35               	goto	l2229
  4088  0F03                     u2960:
  4089  0F03                     l2217:
  4090  0F03  308C               	movlw	140
  4091  0F04  0086               	movwf	6
  4092  0F05  3021               	movlw	33
  4093  0F06  0087               	movwf	7
  4094  0F07  3141               	addfsr 1,1
  4095  0F08  304E               	movlw	78
  4096  0F09  0601               	xorwf	1,w
  4097  0F0A  1D03               	btfss	3,2
  4098  0F0B  2F0D               	goto	u2971
  4099  0F0C  2F0E               	goto	u2970
  4100  0F0D                     u2971:
  4101  0F0D  2F35               	goto	l2229
  4102  0F0E                     u2970:
  4103  0F0E                     l2219:
  4104  0F0E  308C               	movlw	140
  4105  0F0F  0086               	movwf	6
  4106  0F10  3021               	movlw	33
  4107  0F11  0087               	movwf	7
  4108  0F12  3142               	addfsr 1,2
  4109  0F13  3030               	movlw	48
  4110  0F14  0601               	xorwf	1,w
  4111  0F15  1D03               	btfss	3,2
  4112  0F16  2F18               	goto	u2981
  4113  0F17  2F19               	goto	u2980
  4114  0F18                     u2981:
  4115  0F18  2F35               	goto	l2229
  4116  0F19                     u2980:
  4117  0F19                     l2221:
  4118  0F19  308C               	movlw	140
  4119  0F1A  0086               	movwf	6
  4120  0F1B  3021               	movlw	33
  4121  0F1C  0087               	movwf	7
  4122  0F1D  3143               	addfsr 1,3
  4123  0F1E  3037               	movlw	55
  4124  0F1F  0601               	xorwf	1,w
  4125  0F20  1D03               	btfss	3,2
  4126  0F21  2F23               	goto	u2991
  4127  0F22  2F24               	goto	u2990
  4128  0F23                     u2991:
  4129  0F23  2F35               	goto	l2229
  4130  0F24                     u2990:
  4131  0F24                     l2223:
  4132  0F24  308C               	movlw	140
  4133  0F25  0086               	movwf	6
  4134  0F26  3021               	movlw	33
  4135  0F27  0087               	movwf	7
  4136  0F28  3144               	addfsr 1,4
  4137  0F29  3023               	movlw	35
  4138  0F2A  0601               	xorwf	1,w
  4139  0F2B  1D03               	btfss	3,2
  4140  0F2C  2F2E               	goto	u3001
  4141  0F2D  2F2F               	goto	u3000
  4142  0F2E                     u3001:
  4143  0F2E  2F35               	goto	l2229
  4144  0F2F                     u3000:
  4145  0F2F                     l2225:
  4146                           
  4147                           ;main.c: 123:             LATCbits.LATC6 =1 ;
  4148  0F2F  0022               	movlb	2	; select bank2
  4149  0F30  170E               	bsf	14,6	;volatile
  4150  0F31                     l2227:
  4151                           
  4152                           ;main.c: 124:             state_7 = 0;
  4153  0F31  0020               	movlb	0	; select bank0
  4154  0F32  01CE               	clrf	_state_7
  4155                           
  4156                           ;main.c: 125:             count = 0;
  4157  0F33  01C8               	clrf	_count
  4158  0F34  01C9               	clrf	_count+1
  4159  0F35                     l2229:
  4160                           
  4161                           ;main.c: 127:         if ((str[0]=='O')&&(str[1]=='N')&&(str[2]=='0')&&(str[3]=='8')&&(s
      +                          tr[4]=='#')){
  4162  0F35  308C               	movlw	140
  4163  0F36  0086               	movwf	6
  4164  0F37  3021               	movlw	33
  4165  0F38  0087               	movwf	7
  4166  0F39  304F               	movlw	79
  4167  0F3A  0601               	xorwf	1,w
  4168  0F3B  1D03               	btfss	3,2
  4169  0F3C  2F3E               	goto	u3011
  4170  0F3D  2F3F               	goto	u3010
  4171  0F3E                     u3011:
  4172  0F3E  2F71               	goto	l2243
  4173  0F3F                     u3010:
  4174  0F3F                     l2231:
  4175  0F3F  308C               	movlw	140
  4176  0F40  0086               	movwf	6
  4177  0F41  3021               	movlw	33
  4178  0F42  0087               	movwf	7
  4179  0F43  3141               	addfsr 1,1
  4180  0F44  304E               	movlw	78
  4181  0F45  0601               	xorwf	1,w
  4182  0F46  1D03               	btfss	3,2
  4183  0F47  2F49               	goto	u3021
  4184  0F48  2F4A               	goto	u3020
  4185  0F49                     u3021:
  4186  0F49  2F71               	goto	l2243
  4187  0F4A                     u3020:
  4188  0F4A                     l2233:
  4189  0F4A  308C               	movlw	140
  4190  0F4B  0086               	movwf	6
  4191  0F4C  3021               	movlw	33
  4192  0F4D  0087               	movwf	7
  4193  0F4E  3142               	addfsr 1,2
  4194  0F4F  3030               	movlw	48
  4195  0F50  0601               	xorwf	1,w
  4196  0F51  1D03               	btfss	3,2
  4197  0F52  2F54               	goto	u3031
  4198  0F53  2F55               	goto	u3030
  4199  0F54                     u3031:
  4200  0F54  2F71               	goto	l2243
  4201  0F55                     u3030:
  4202  0F55                     l2235:
  4203  0F55  308C               	movlw	140
  4204  0F56  0086               	movwf	6
  4205  0F57  3021               	movlw	33
  4206  0F58  0087               	movwf	7
  4207  0F59  3143               	addfsr 1,3
  4208  0F5A  3038               	movlw	56
  4209  0F5B  0601               	xorwf	1,w
  4210  0F5C  1D03               	btfss	3,2
  4211  0F5D  2F5F               	goto	u3041
  4212  0F5E  2F60               	goto	u3040
  4213  0F5F                     u3041:
  4214  0F5F  2F71               	goto	l2243
  4215  0F60                     u3040:
  4216  0F60                     l2237:
  4217  0F60  308C               	movlw	140
  4218  0F61  0086               	movwf	6
  4219  0F62  3021               	movlw	33
  4220  0F63  0087               	movwf	7
  4221  0F64  3144               	addfsr 1,4
  4222  0F65  3023               	movlw	35
  4223  0F66  0601               	xorwf	1,w
  4224  0F67  1D03               	btfss	3,2
  4225  0F68  2F6A               	goto	u3051
  4226  0F69  2F6B               	goto	u3050
  4227  0F6A                     u3051:
  4228  0F6A  2F71               	goto	l2243
  4229  0F6B                     u3050:
  4230  0F6B                     l2239:
  4231                           
  4232                           ;main.c: 128:             LATCbits.LATC7 =1 ;
  4233  0F6B  0022               	movlb	2	; select bank2
  4234  0F6C  178E               	bsf	14,7	;volatile
  4235  0F6D                     l2241:
  4236                           
  4237                           ;main.c: 129:             state_8 = 0;
  4238  0F6D  0020               	movlb	0	; select bank0
  4239  0F6E  01CD               	clrf	_state_8
  4240                           
  4241                           ;main.c: 130:             count = 0;
  4242  0F6F  01C8               	clrf	_count
  4243  0F70  01C9               	clrf	_count+1
  4244  0F71                     l2243:
  4245                           
  4246                           ;main.c: 132:         if ((str[0]=='O')&&(str[1]=='N')&&(str[2]=='*')&&(str[3]=='#')){
  4247  0F71  308C               	movlw	140
  4248  0F72  0086               	movwf	6
  4249  0F73  3021               	movlw	33
  4250  0F74  0087               	movwf	7
  4251  0F75  304F               	movlw	79
  4252  0F76  0601               	xorwf	1,w
  4253  0F77  1D03               	btfss	3,2
  4254  0F78  2F7A               	goto	u3061
  4255  0F79  2F7B               	goto	u3060
  4256  0F7A                     u3061:
  4257  0F7A  2FAA               	goto	l2271
  4258  0F7B                     u3060:
  4259  0F7B                     l2245:
  4260  0F7B  308C               	movlw	140
  4261  0F7C  0086               	movwf	6
  4262  0F7D  3021               	movlw	33
  4263  0F7E  0087               	movwf	7
  4264  0F7F  3141               	addfsr 1,1
  4265  0F80  304E               	movlw	78
  4266  0F81  0601               	xorwf	1,w
  4267  0F82  1D03               	btfss	3,2
  4268  0F83  2F85               	goto	u3071
  4269  0F84  2F86               	goto	u3070
  4270  0F85                     u3071:
  4271  0F85  2FAA               	goto	l2271
  4272  0F86                     u3070:
  4273  0F86                     l2247:
  4274  0F86  308C               	movlw	140
  4275  0F87  0086               	movwf	6
  4276  0F88  3021               	movlw	33
  4277  0F89  0087               	movwf	7
  4278  0F8A  3142               	addfsr 1,2
  4279  0F8B  302A               	movlw	42
  4280  0F8C  0601               	xorwf	1,w
  4281  0F8D  1D03               	btfss	3,2
  4282  0F8E  2F90               	goto	u3081
  4283  0F8F  2F91               	goto	u3080
  4284  0F90                     u3081:
  4285  0F90  2FAA               	goto	l2271
  4286  0F91                     u3080:
  4287  0F91                     l2249:
  4288  0F91  308C               	movlw	140
  4289  0F92  0086               	movwf	6
  4290  0F93  3021               	movlw	33
  4291  0F94  0087               	movwf	7
  4292  0F95  3143               	addfsr 1,3
  4293  0F96  3023               	movlw	35
  4294  0F97  0601               	xorwf	1,w
  4295  0F98  1D03               	btfss	3,2
  4296  0F99  2F9B               	goto	u3091
  4297  0F9A  2F9C               	goto	u3090
  4298  0F9B                     u3091:
  4299  0F9B  2FAA               	goto	l2271
  4300  0F9C                     u3090:
  4301  0F9C                     l2251:
  4302                           
  4303                           ;main.c: 133:             LATC = 0xFF ;
  4304  0F9C  30FF               	movlw	255
  4305  0F9D  0022               	movlb	2	; select bank2
  4306  0F9E  008E               	movwf	14	;volatile
  4307  0F9F                     l2253:
  4308                           
  4309                           ;main.c: 134:             state_1 = 0;
  4310  0F9F  0020               	movlb	0	; select bank0
  4311  0FA0  01D4               	clrf	_state_1
  4312  0FA1                     l2255:
  4313                           
  4314                           ;main.c: 135:             state_2 = 0;
  4315  0FA1  01D3               	clrf	_state_2
  4316  0FA2                     l2257:
  4317                           
  4318                           ;main.c: 136:             state_3 = 0;
  4319  0FA2  01D2               	clrf	_state_3
  4320  0FA3                     l2259:
  4321                           
  4322                           ;main.c: 137:             state_4 = 0;
  4323  0FA3  01D1               	clrf	_state_4
  4324  0FA4                     l2261:
  4325                           
  4326                           ;main.c: 138:             state_5 = 0;
  4327  0FA4  01D0               	clrf	_state_5
  4328  0FA5                     l2263:
  4329                           
  4330                           ;main.c: 139:             state_6 = 0;
  4331  0FA5  01CF               	clrf	_state_6
  4332  0FA6                     l2265:
  4333                           
  4334                           ;main.c: 140:             state_7 = 0;
  4335  0FA6  01CE               	clrf	_state_7
  4336  0FA7                     l2267:
  4337                           
  4338                           ;main.c: 141:             state_8 = 0;
  4339  0FA7  01CD               	clrf	_state_8
  4340  0FA8                     l2269:
  4341                           
  4342                           ;main.c: 142:             count = 0;
  4343  0FA8  01C8               	clrf	_count
  4344  0FA9  01C9               	clrf	_count+1
  4345  0FAA                     l2271:
  4346                           
  4347                           ;main.c: 146:         if ((str[0]=='O')&&(str[1]=='F')&&(str[2]=='F')&&(str[3]=='0')&&(s
      +                          tr[4]=='1')&&(str[5]=='#')){
  4348  0FAA  308C               	movlw	140
  4349  0FAB  0086               	movwf	6
  4350  0FAC  3021               	movlw	33
  4351  0FAD  0087               	movwf	7
  4352  0FAE  304F               	movlw	79
  4353  0FAF  0601               	xorwf	1,w
  4354  0FB0  1D03               	btfss	3,2
  4355  0FB1  2FB3               	goto	u3101
  4356  0FB2  2FB4               	goto	u3100
  4357  0FB3                     u3101:
  4358  0FB3  2FF4               	goto	l2289
  4359  0FB4                     u3100:
  4360  0FB4                     l2273:
  4361  0FB4  308C               	movlw	140
  4362  0FB5  0086               	movwf	6
  4363  0FB6  3021               	movlw	33
  4364  0FB7  0087               	movwf	7
  4365  0FB8  3141               	addfsr 1,1
  4366  0FB9  3046               	movlw	70
  4367  0FBA  0601               	xorwf	1,w
  4368  0FBB  1D03               	btfss	3,2
  4369  0FBC  2FBE               	goto	u3111
  4370  0FBD  2FBF               	goto	u3110
  4371  0FBE                     u3111:
  4372  0FBE  2FF4               	goto	l2289
  4373  0FBF                     u3110:
  4374  0FBF                     l2275:
  4375  0FBF  308C               	movlw	140
  4376  0FC0  0086               	movwf	6
  4377  0FC1  3021               	movlw	33
  4378  0FC2  0087               	movwf	7
  4379  0FC3  3142               	addfsr 1,2
  4380  0FC4  3046               	movlw	70
  4381  0FC5  0601               	xorwf	1,w
  4382  0FC6  1D03               	btfss	3,2
  4383  0FC7  2FC9               	goto	u3121
  4384  0FC8  2FCA               	goto	u3120
  4385  0FC9                     u3121:
  4386  0FC9  2FF4               	goto	l2289
  4387  0FCA                     u3120:
  4388  0FCA                     l2277:
  4389  0FCA  308C               	movlw	140
  4390  0FCB  0086               	movwf	6
  4391  0FCC  3021               	movlw	33
  4392  0FCD  0087               	movwf	7
  4393  0FCE  3143               	addfsr 1,3
  4394  0FCF  3030               	movlw	48
  4395  0FD0  0601               	xorwf	1,w
  4396  0FD1  1D03               	btfss	3,2
  4397  0FD2  2FD4               	goto	u3131
  4398  0FD3  2FD5               	goto	u3130
  4399  0FD4                     u3131:
  4400  0FD4  2FF4               	goto	l2289
  4401  0FD5                     u3130:
  4402  0FD5                     l2279:
  4403  0FD5  308C               	movlw	140
  4404  0FD6  0086               	movwf	6
  4405  0FD7  3021               	movlw	33
  4406  0FD8  0087               	movwf	7
  4407  0FD9  3144               	addfsr 1,4
  4408  0FDA  3031               	movlw	49
  4409  0FDB  0601               	xorwf	1,w
  4410  0FDC  1D03               	btfss	3,2
  4411  0FDD  2FDF               	goto	u3141
  4412  0FDE  2FE0               	goto	u3140
  4413  0FDF                     u3141:
  4414  0FDF  2FF4               	goto	l2289
  4415  0FE0                     u3140:
  4416  0FE0                     l2281:
  4417  0FE0  308C               	movlw	140
  4418  0FE1  0086               	movwf	6
  4419  0FE2  3021               	movlw	33
  4420  0FE3  0087               	movwf	7
  4421  0FE4  3145               	addfsr 1,5
  4422  0FE5  3023               	movlw	35
  4423  0FE6  0601               	xorwf	1,w
  4424  0FE7  1D03               	btfss	3,2
  4425  0FE8  2FEA               	goto	u3151
  4426  0FE9  2FEB               	goto	u3150
  4427  0FEA                     u3151:
  4428  0FEA  2FF4               	goto	l2289
  4429  0FEB                     u3150:
  4430  0FEB                     l2283:
  4431                           
  4432                           ;main.c: 147:             LATCbits.LATC0 =0 ;
  4433  0FEB  0022               	movlb	2	; select bank2
  4434  0FEC  100E               	bcf	14,0	;volatile
  4435  0FED                     l2285:
  4436                           
  4437                           ;main.c: 148:             state_1 = 2;
  4438  0FED  3002               	movlw	2
  4439  0FEE  0020               	movlb	0	; select bank0
  4440  0FEF  00E5               	movwf	??_main
  4441  0FF0  0865               	movf	??_main,w
  4442  0FF1  00D4               	movwf	_state_1
  4443  0FF2                     l2287:
  4444                           
  4445                           ;main.c: 149:             count = 0;
  4446  0FF2  01C8               	clrf	_count
  4447  0FF3  01C9               	clrf	_count+1
  4448  0FF4                     l2289:
  4449                           
  4450                           ;main.c: 151:         if ((str[0]=='O')&&(str[1]=='F')&&(str[2]=='F')&&(str[3]=='0')&&(s
      +                          tr[4]=='2')&&(str[5]=='#')){
  4451  0FF4  308C               	movlw	140
  4452  0FF5  0086               	movwf	6
  4453  0FF6  3021               	movlw	33
  4454  0FF7  0087               	movwf	7
  4455  0FF8  304F               	movlw	79
  4456  0FF9  0601               	xorwf	1,w
  4457  0FFA  1D03               	btfss	3,2
  4458  0FFB  2FFE               	goto	u3161
  4459  0FFC  318D  2D17         	goto	u3160
  4460  0FFE                     u3161:
  4461  0FFE  318D  2D57         	goto	l2307
  4462                           
  4463                           	psect	maintext_split_2
  4464  0D17                     u3160:
  4465  0D17                     l2291:
  4466  0D17  308C               	movlw	140
  4467  0D18  0086               	movwf	6
  4468  0D19  3021               	movlw	33
  4469  0D1A  0087               	movwf	7
  4470  0D1B  3141               	addfsr 1,1
  4471  0D1C  3046               	movlw	70
  4472  0D1D  0601               	xorwf	1,w
  4473  0D1E  1D03               	btfss	3,2
  4474  0D1F  2D21               	goto	u3171
  4475  0D20  2D22               	goto	u3170
  4476  0D21                     u3171:
  4477  0D21  2D57               	goto	l2307
  4478  0D22                     u3170:
  4479  0D22                     l2293:
  4480  0D22  308C               	movlw	140
  4481  0D23  0086               	movwf	6
  4482  0D24  3021               	movlw	33
  4483  0D25  0087               	movwf	7
  4484  0D26  3142               	addfsr 1,2
  4485  0D27  3046               	movlw	70
  4486  0D28  0601               	xorwf	1,w
  4487  0D29  1D03               	btfss	3,2
  4488  0D2A  2D2C               	goto	u3181
  4489  0D2B  2D2D               	goto	u3180
  4490  0D2C                     u3181:
  4491  0D2C  2D57               	goto	l2307
  4492  0D2D                     u3180:
  4493  0D2D                     l2295:
  4494  0D2D  308C               	movlw	140
  4495  0D2E  0086               	movwf	6
  4496  0D2F  3021               	movlw	33
  4497  0D30  0087               	movwf	7
  4498  0D31  3143               	addfsr 1,3
  4499  0D32  3030               	movlw	48
  4500  0D33  0601               	xorwf	1,w
  4501  0D34  1D03               	btfss	3,2
  4502  0D35  2D37               	goto	u3191
  4503  0D36  2D38               	goto	u3190
  4504  0D37                     u3191:
  4505  0D37  2D57               	goto	l2307
  4506  0D38                     u3190:
  4507  0D38                     l2297:
  4508  0D38  308C               	movlw	140
  4509  0D39  0086               	movwf	6
  4510  0D3A  3021               	movlw	33
  4511  0D3B  0087               	movwf	7
  4512  0D3C  3144               	addfsr 1,4
  4513  0D3D  3032               	movlw	50
  4514  0D3E  0601               	xorwf	1,w
  4515  0D3F  1D03               	btfss	3,2
  4516  0D40  2D42               	goto	u3201
  4517  0D41  2D43               	goto	u3200
  4518  0D42                     u3201:
  4519  0D42  2D57               	goto	l2307
  4520  0D43                     u3200:
  4521  0D43                     l2299:
  4522  0D43  308C               	movlw	140
  4523  0D44  0086               	movwf	6
  4524  0D45  3021               	movlw	33
  4525  0D46  0087               	movwf	7
  4526  0D47  3145               	addfsr 1,5
  4527  0D48  3023               	movlw	35
  4528  0D49  0601               	xorwf	1,w
  4529  0D4A  1D03               	btfss	3,2
  4530  0D4B  2D4D               	goto	u3211
  4531  0D4C  2D4E               	goto	u3210
  4532  0D4D                     u3211:
  4533  0D4D  2D57               	goto	l2307
  4534  0D4E                     u3210:
  4535  0D4E                     l2301:
  4536                           
  4537                           ;main.c: 152:             LATCbits.LATC1 =0 ;
  4538  0D4E  0022               	movlb	2	; select bank2
  4539  0D4F  108E               	bcf	14,1	;volatile
  4540  0D50                     l2303:
  4541                           
  4542                           ;main.c: 153:             state_2 = 2;
  4543  0D50  3002               	movlw	2
  4544  0D51  0020               	movlb	0	; select bank0
  4545  0D52  00E5               	movwf	??_main
  4546  0D53  0865               	movf	??_main,w
  4547  0D54  00D3               	movwf	_state_2
  4548  0D55                     l2305:
  4549                           
  4550                           ;main.c: 154:             count = 0;
  4551  0D55  01C8               	clrf	_count
  4552  0D56  01C9               	clrf	_count+1
  4553  0D57                     l2307:
  4554                           
  4555                           ;main.c: 156:         if ((str[0]=='O')&&(str[1]=='F')&&(str[2]=='F')&&(str[3]=='0')&&(s
      +                          tr[4]=='3')&&(str[5]=='#')){
  4556  0D57  308C               	movlw	140
  4557  0D58  0086               	movwf	6
  4558  0D59  3021               	movlw	33
  4559  0D5A  0087               	movwf	7
  4560  0D5B  304F               	movlw	79
  4561  0D5C  0601               	xorwf	1,w
  4562  0D5D  1D03               	btfss	3,2
  4563  0D5E  2D60               	goto	u3221
  4564  0D5F  2D61               	goto	u3220
  4565  0D60                     u3221:
  4566  0D60  2DA1               	goto	l2325
  4567  0D61                     u3220:
  4568  0D61                     l2309:
  4569  0D61  308C               	movlw	140
  4570  0D62  0086               	movwf	6
  4571  0D63  3021               	movlw	33
  4572  0D64  0087               	movwf	7
  4573  0D65  3141               	addfsr 1,1
  4574  0D66  3046               	movlw	70
  4575  0D67  0601               	xorwf	1,w
  4576  0D68  1D03               	btfss	3,2
  4577  0D69  2D6B               	goto	u3231
  4578  0D6A  2D6C               	goto	u3230
  4579  0D6B                     u3231:
  4580  0D6B  2DA1               	goto	l2325
  4581  0D6C                     u3230:
  4582  0D6C                     l2311:
  4583  0D6C  308C               	movlw	140
  4584  0D6D  0086               	movwf	6
  4585  0D6E  3021               	movlw	33
  4586  0D6F  0087               	movwf	7
  4587  0D70  3142               	addfsr 1,2
  4588  0D71  3046               	movlw	70
  4589  0D72  0601               	xorwf	1,w
  4590  0D73  1D03               	btfss	3,2
  4591  0D74  2D76               	goto	u3241
  4592  0D75  2D77               	goto	u3240
  4593  0D76                     u3241:
  4594  0D76  2DA1               	goto	l2325
  4595  0D77                     u3240:
  4596  0D77                     l2313:
  4597  0D77  308C               	movlw	140
  4598  0D78  0086               	movwf	6
  4599  0D79  3021               	movlw	33
  4600  0D7A  0087               	movwf	7
  4601  0D7B  3143               	addfsr 1,3
  4602  0D7C  3030               	movlw	48
  4603  0D7D  0601               	xorwf	1,w
  4604  0D7E  1D03               	btfss	3,2
  4605  0D7F  2D81               	goto	u3251
  4606  0D80  2D82               	goto	u3250
  4607  0D81                     u3251:
  4608  0D81  2DA1               	goto	l2325
  4609  0D82                     u3250:
  4610  0D82                     l2315:
  4611  0D82  308C               	movlw	140
  4612  0D83  0086               	movwf	6
  4613  0D84  3021               	movlw	33
  4614  0D85  0087               	movwf	7
  4615  0D86  3144               	addfsr 1,4
  4616  0D87  3033               	movlw	51
  4617  0D88  0601               	xorwf	1,w
  4618  0D89  1D03               	btfss	3,2
  4619  0D8A  2D8C               	goto	u3261
  4620  0D8B  2D8D               	goto	u3260
  4621  0D8C                     u3261:
  4622  0D8C  2DA1               	goto	l2325
  4623  0D8D                     u3260:
  4624  0D8D                     l2317:
  4625  0D8D  308C               	movlw	140
  4626  0D8E  0086               	movwf	6
  4627  0D8F  3021               	movlw	33
  4628  0D90  0087               	movwf	7
  4629  0D91  3145               	addfsr 1,5
  4630  0D92  3023               	movlw	35
  4631  0D93  0601               	xorwf	1,w
  4632  0D94  1D03               	btfss	3,2
  4633  0D95  2D97               	goto	u3271
  4634  0D96  2D98               	goto	u3270
  4635  0D97                     u3271:
  4636  0D97  2DA1               	goto	l2325
  4637  0D98                     u3270:
  4638  0D98                     l2319:
  4639                           
  4640                           ;main.c: 157:             LATCbits.LATC2 =0 ;
  4641  0D98  0022               	movlb	2	; select bank2
  4642  0D99  110E               	bcf	14,2	;volatile
  4643  0D9A                     l2321:
  4644                           
  4645                           ;main.c: 158:             state_3 = 2;
  4646  0D9A  3002               	movlw	2
  4647  0D9B  0020               	movlb	0	; select bank0
  4648  0D9C  00E5               	movwf	??_main
  4649  0D9D  0865               	movf	??_main,w
  4650  0D9E  00D2               	movwf	_state_3
  4651  0D9F                     l2323:
  4652                           
  4653                           ;main.c: 159:             count = 0;
  4654  0D9F  01C8               	clrf	_count
  4655  0DA0  01C9               	clrf	_count+1
  4656  0DA1                     l2325:
  4657                           
  4658                           ;main.c: 161:         if ((str[0]=='O')&&(str[1]=='F')&&(str[2]=='F')&&(str[3]=='0')&&(s
      +                          tr[4]=='4')&&(str[5]=='#')){
  4659  0DA1  308C               	movlw	140
  4660  0DA2  0086               	movwf	6
  4661  0DA3  3021               	movlw	33
  4662  0DA4  0087               	movwf	7
  4663  0DA5  304F               	movlw	79
  4664  0DA6  0601               	xorwf	1,w
  4665  0DA7  1D03               	btfss	3,2
  4666  0DA8  2DAA               	goto	u3281
  4667  0DA9  2DAB               	goto	u3280
  4668  0DAA                     u3281:
  4669  0DAA  2DEB               	goto	l2343
  4670  0DAB                     u3280:
  4671  0DAB                     l2327:
  4672  0DAB  308C               	movlw	140
  4673  0DAC  0086               	movwf	6
  4674  0DAD  3021               	movlw	33
  4675  0DAE  0087               	movwf	7
  4676  0DAF  3141               	addfsr 1,1
  4677  0DB0  3046               	movlw	70
  4678  0DB1  0601               	xorwf	1,w
  4679  0DB2  1D03               	btfss	3,2
  4680  0DB3  2DB5               	goto	u3291
  4681  0DB4  2DB6               	goto	u3290
  4682  0DB5                     u3291:
  4683  0DB5  2DEB               	goto	l2343
  4684  0DB6                     u3290:
  4685  0DB6                     l2329:
  4686  0DB6  308C               	movlw	140
  4687  0DB7  0086               	movwf	6
  4688  0DB8  3021               	movlw	33
  4689  0DB9  0087               	movwf	7
  4690  0DBA  3142               	addfsr 1,2
  4691  0DBB  3046               	movlw	70
  4692  0DBC  0601               	xorwf	1,w
  4693  0DBD  1D03               	btfss	3,2
  4694  0DBE  2DC0               	goto	u3301
  4695  0DBF  2DC1               	goto	u3300
  4696  0DC0                     u3301:
  4697  0DC0  2DEB               	goto	l2343
  4698  0DC1                     u3300:
  4699  0DC1                     l2331:
  4700  0DC1  308C               	movlw	140
  4701  0DC2  0086               	movwf	6
  4702  0DC3  3021               	movlw	33
  4703  0DC4  0087               	movwf	7
  4704  0DC5  3143               	addfsr 1,3
  4705  0DC6  3030               	movlw	48
  4706  0DC7  0601               	xorwf	1,w
  4707  0DC8  1D03               	btfss	3,2
  4708  0DC9  2DCB               	goto	u3311
  4709  0DCA  2DCC               	goto	u3310
  4710  0DCB                     u3311:
  4711  0DCB  2DEB               	goto	l2343
  4712  0DCC                     u3310:
  4713  0DCC                     l2333:
  4714  0DCC  308C               	movlw	140
  4715  0DCD  0086               	movwf	6
  4716  0DCE  3021               	movlw	33
  4717  0DCF  0087               	movwf	7
  4718  0DD0  3144               	addfsr 1,4
  4719  0DD1  3034               	movlw	52
  4720  0DD2  0601               	xorwf	1,w
  4721  0DD3  1D03               	btfss	3,2
  4722  0DD4  2DD6               	goto	u3321
  4723  0DD5  2DD7               	goto	u3320
  4724  0DD6                     u3321:
  4725  0DD6  2DEB               	goto	l2343
  4726  0DD7                     u3320:
  4727  0DD7                     l2335:
  4728  0DD7  308C               	movlw	140
  4729  0DD8  0086               	movwf	6
  4730  0DD9  3021               	movlw	33
  4731  0DDA  0087               	movwf	7
  4732  0DDB  3145               	addfsr 1,5
  4733  0DDC  3023               	movlw	35
  4734  0DDD  0601               	xorwf	1,w
  4735  0DDE  1D03               	btfss	3,2
  4736  0DDF  2DE1               	goto	u3331
  4737  0DE0  2DE2               	goto	u3330
  4738  0DE1                     u3331:
  4739  0DE1  2DEB               	goto	l2343
  4740  0DE2                     u3330:
  4741  0DE2                     l2337:
  4742                           
  4743                           ;main.c: 162:             LATCbits.LATC3 =0 ;
  4744  0DE2  0022               	movlb	2	; select bank2
  4745  0DE3  118E               	bcf	14,3	;volatile
  4746  0DE4                     l2339:
  4747                           
  4748                           ;main.c: 163:             state_4 = 2;
  4749  0DE4  3002               	movlw	2
  4750  0DE5  0020               	movlb	0	; select bank0
  4751  0DE6  00E5               	movwf	??_main
  4752  0DE7  0865               	movf	??_main,w
  4753  0DE8  00D1               	movwf	_state_4
  4754  0DE9                     l2341:
  4755                           
  4756                           ;main.c: 164:             count = 0;
  4757  0DE9  01C8               	clrf	_count
  4758  0DEA  01C9               	clrf	_count+1
  4759  0DEB                     l2343:
  4760                           
  4761                           ;main.c: 166:         if ((str[0]=='O')&&(str[1]=='F')&&(str[2]=='F')&&(str[3]=='0')&&(s
      +                          tr[4]=='5')&&(str[5]=='#')){
  4762  0DEB  308C               	movlw	140
  4763  0DEC  0086               	movwf	6
  4764  0DED  3021               	movlw	33
  4765  0DEE  0087               	movwf	7
  4766  0DEF  304F               	movlw	79
  4767  0DF0  0601               	xorwf	1,w
  4768  0DF1  1D03               	btfss	3,2
  4769  0DF2  2DF4               	goto	u3341
  4770  0DF3  2DF5               	goto	u3340
  4771  0DF4                     u3341:
  4772  0DF4  2E35               	goto	l2361
  4773  0DF5                     u3340:
  4774  0DF5                     l2345:
  4775  0DF5  308C               	movlw	140
  4776  0DF6  0086               	movwf	6
  4777  0DF7  3021               	movlw	33
  4778  0DF8  0087               	movwf	7
  4779  0DF9  3141               	addfsr 1,1
  4780  0DFA  3046               	movlw	70
  4781  0DFB  0601               	xorwf	1,w
  4782  0DFC  1D03               	btfss	3,2
  4783  0DFD  2DFF               	goto	u3351
  4784  0DFE  2E00               	goto	u3350
  4785  0DFF                     u3351:
  4786  0DFF  2E35               	goto	l2361
  4787  0E00                     u3350:
  4788  0E00                     l2347:
  4789  0E00  308C               	movlw	140
  4790  0E01  0086               	movwf	6
  4791  0E02  3021               	movlw	33
  4792  0E03  0087               	movwf	7
  4793  0E04  3142               	addfsr 1,2
  4794  0E05  3046               	movlw	70
  4795  0E06  0601               	xorwf	1,w
  4796  0E07  1D03               	btfss	3,2
  4797  0E08  2E0A               	goto	u3361
  4798  0E09  2E0B               	goto	u3360
  4799  0E0A                     u3361:
  4800  0E0A  2E35               	goto	l2361
  4801  0E0B                     u3360:
  4802  0E0B                     l2349:
  4803  0E0B  308C               	movlw	140
  4804  0E0C  0086               	movwf	6
  4805  0E0D  3021               	movlw	33
  4806  0E0E  0087               	movwf	7
  4807  0E0F  3143               	addfsr 1,3
  4808  0E10  3030               	movlw	48
  4809  0E11  0601               	xorwf	1,w
  4810  0E12  1D03               	btfss	3,2
  4811  0E13  2E15               	goto	u3371
  4812  0E14  2E16               	goto	u3370
  4813  0E15                     u3371:
  4814  0E15  2E35               	goto	l2361
  4815  0E16                     u3370:
  4816  0E16                     l2351:
  4817  0E16  308C               	movlw	140
  4818  0E17  0086               	movwf	6
  4819  0E18  3021               	movlw	33
  4820  0E19  0087               	movwf	7
  4821  0E1A  3144               	addfsr 1,4
  4822  0E1B  3035               	movlw	53
  4823  0E1C  0601               	xorwf	1,w
  4824  0E1D  1D03               	btfss	3,2
  4825  0E1E  2E20               	goto	u3381
  4826  0E1F  2E21               	goto	u3380
  4827  0E20                     u3381:
  4828  0E20  2E35               	goto	l2361
  4829  0E21                     u3380:
  4830  0E21                     l2353:
  4831  0E21  308C               	movlw	140
  4832  0E22  0086               	movwf	6
  4833  0E23  3021               	movlw	33
  4834  0E24  0087               	movwf	7
  4835  0E25  3145               	addfsr 1,5
  4836  0E26  3023               	movlw	35
  4837  0E27  0601               	xorwf	1,w
  4838  0E28  1D03               	btfss	3,2
  4839  0E29  2E2B               	goto	u3391
  4840  0E2A  2E2C               	goto	u3390
  4841  0E2B                     u3391:
  4842  0E2B  2E35               	goto	l2361
  4843  0E2C                     u3390:
  4844  0E2C                     l2355:
  4845                           
  4846                           ;main.c: 167:             LATCbits.LATC4 =0 ;
  4847  0E2C  0022               	movlb	2	; select bank2
  4848  0E2D  120E               	bcf	14,4	;volatile
  4849  0E2E                     l2357:
  4850                           
  4851                           ;main.c: 168:             state_5 = 2;
  4852  0E2E  3002               	movlw	2
  4853  0E2F  0020               	movlb	0	; select bank0
  4854  0E30  00E5               	movwf	??_main
  4855  0E31  0865               	movf	??_main,w
  4856  0E32  00D0               	movwf	_state_5
  4857  0E33                     l2359:
  4858                           
  4859                           ;main.c: 169:             count = 0;
  4860  0E33  01C8               	clrf	_count
  4861  0E34  01C9               	clrf	_count+1
  4862  0E35                     l2361:
  4863                           
  4864                           ;main.c: 171:         if ((str[0]=='O')&&(str[1]=='F')&&(str[2]=='F')&&(str[3]=='0')&&(s
      +                          tr[4]=='6')&&(str[5]=='#')){
  4865  0E35  308C               	movlw	140
  4866  0E36  0086               	movwf	6
  4867  0E37  3021               	movlw	33
  4868  0E38  0087               	movwf	7
  4869  0E39  304F               	movlw	79
  4870  0E3A  0601               	xorwf	1,w
  4871  0E3B  1D03               	btfss	3,2
  4872  0E3C  2E3E               	goto	u3401
  4873  0E3D  2E3F               	goto	u3400
  4874  0E3E                     u3401:
  4875  0E3E  2E7F               	goto	l2379
  4876  0E3F                     u3400:
  4877  0E3F                     l2363:
  4878  0E3F  308C               	movlw	140
  4879  0E40  0086               	movwf	6
  4880  0E41  3021               	movlw	33
  4881  0E42  0087               	movwf	7
  4882  0E43  3141               	addfsr 1,1
  4883  0E44  3046               	movlw	70
  4884  0E45  0601               	xorwf	1,w
  4885  0E46  1D03               	btfss	3,2
  4886  0E47  2E49               	goto	u3411
  4887  0E48  2E4A               	goto	u3410
  4888  0E49                     u3411:
  4889  0E49  2E7F               	goto	l2379
  4890  0E4A                     u3410:
  4891  0E4A                     l2365:
  4892  0E4A  308C               	movlw	140
  4893  0E4B  0086               	movwf	6
  4894  0E4C  3021               	movlw	33
  4895  0E4D  0087               	movwf	7
  4896  0E4E  3142               	addfsr 1,2
  4897  0E4F  3046               	movlw	70
  4898  0E50  0601               	xorwf	1,w
  4899  0E51  1D03               	btfss	3,2
  4900  0E52  2E54               	goto	u3421
  4901  0E53  2E55               	goto	u3420
  4902  0E54                     u3421:
  4903  0E54  2E7F               	goto	l2379
  4904  0E55                     u3420:
  4905  0E55                     l2367:
  4906  0E55  308C               	movlw	140
  4907  0E56  0086               	movwf	6
  4908  0E57  3021               	movlw	33
  4909  0E58  0087               	movwf	7
  4910  0E59  3143               	addfsr 1,3
  4911  0E5A  3030               	movlw	48
  4912  0E5B  0601               	xorwf	1,w
  4913  0E5C  1D03               	btfss	3,2
  4914  0E5D  2E5F               	goto	u3431
  4915  0E5E  2E60               	goto	u3430
  4916  0E5F                     u3431:
  4917  0E5F  2E7F               	goto	l2379
  4918  0E60                     u3430:
  4919  0E60                     l2369:
  4920  0E60  308C               	movlw	140
  4921  0E61  0086               	movwf	6
  4922  0E62  3021               	movlw	33
  4923  0E63  0087               	movwf	7
  4924  0E64  3144               	addfsr 1,4
  4925  0E65  3036               	movlw	54
  4926  0E66  0601               	xorwf	1,w
  4927  0E67  1D03               	btfss	3,2
  4928  0E68  2E6A               	goto	u3441
  4929  0E69  2E6B               	goto	u3440
  4930  0E6A                     u3441:
  4931  0E6A  2E7F               	goto	l2379
  4932  0E6B                     u3440:
  4933  0E6B                     l2371:
  4934  0E6B  308C               	movlw	140
  4935  0E6C  0086               	movwf	6
  4936  0E6D  3021               	movlw	33
  4937  0E6E  0087               	movwf	7
  4938  0E6F  3145               	addfsr 1,5
  4939  0E70  3023               	movlw	35
  4940  0E71  0601               	xorwf	1,w
  4941  0E72  1D03               	btfss	3,2
  4942  0E73  2E75               	goto	u3451
  4943  0E74  2E76               	goto	u3450
  4944  0E75                     u3451:
  4945  0E75  2E7F               	goto	l2379
  4946  0E76                     u3450:
  4947  0E76                     l2373:
  4948                           
  4949                           ;main.c: 172:             LATCbits.LATC5 =0;
  4950  0E76  0022               	movlb	2	; select bank2
  4951  0E77  128E               	bcf	14,5	;volatile
  4952  0E78                     l2375:
  4953                           
  4954                           ;main.c: 173:             state_6 = 2;
  4955  0E78  3002               	movlw	2
  4956  0E79  0020               	movlb	0	; select bank0
  4957  0E7A  00E5               	movwf	??_main
  4958  0E7B  0865               	movf	??_main,w
  4959  0E7C  00CF               	movwf	_state_6
  4960  0E7D                     l2377:
  4961                           
  4962                           ;main.c: 174:             count = 0;
  4963  0E7D  01C8               	clrf	_count
  4964  0E7E  01C9               	clrf	_count+1
  4965  0E7F                     l2379:
  4966                           
  4967                           ;main.c: 176:         if ((str[0]=='O')&&(str[1]=='F')&&(str[2]=='F')&&(str[3]=='0')&&(s
      +                          tr[4]=='7')&&(str[5]=='#')){
  4968  0E7F  308C               	movlw	140
  4969  0E80  0086               	movwf	6
  4970  0E81  3021               	movlw	33
  4971  0E82  0087               	movwf	7
  4972  0E83  304F               	movlw	79
  4973  0E84  0601               	xorwf	1,w
  4974  0E85  1D03               	btfss	3,2
  4975  0E86  2E89               	goto	u3461
  4976  0E87  3180  28CD         	goto	u3460
  4977  0E89                     u3461:
  4978  0E89  3181  290D         	goto	l2397
  4979                           
  4980                           	psect	maintext_split_3
  4981  00CD                     u3460:
  4982  00CD                     l2381:
  4983  00CD  308C               	movlw	140
  4984  00CE  0086               	movwf	6
  4985  00CF  3021               	movlw	33
  4986  00D0  0087               	movwf	7
  4987  00D1  3141               	addfsr 1,1
  4988  00D2  3046               	movlw	70
  4989  00D3  0601               	xorwf	1,w
  4990  00D4  1D03               	btfss	3,2
  4991  00D5  28D7               	goto	u3471
  4992  00D6  28D8               	goto	u3470
  4993  00D7                     u3471:
  4994  00D7  290D               	goto	l2397
  4995  00D8                     u3470:
  4996  00D8                     l2383:
  4997  00D8  308C               	movlw	140
  4998  00D9  0086               	movwf	6
  4999  00DA  3021               	movlw	33
  5000  00DB  0087               	movwf	7
  5001  00DC  3142               	addfsr 1,2
  5002  00DD  3046               	movlw	70
  5003  00DE  0601               	xorwf	1,w
  5004  00DF  1D03               	btfss	3,2
  5005  00E0  28E2               	goto	u3481
  5006  00E1  28E3               	goto	u3480
  5007  00E2                     u3481:
  5008  00E2  290D               	goto	l2397
  5009  00E3                     u3480:
  5010  00E3                     l2385:
  5011  00E3  308C               	movlw	140
  5012  00E4  0086               	movwf	6
  5013  00E5  3021               	movlw	33
  5014  00E6  0087               	movwf	7
  5015  00E7  3143               	addfsr 1,3
  5016  00E8  3030               	movlw	48
  5017  00E9  0601               	xorwf	1,w
  5018  00EA  1D03               	btfss	3,2
  5019  00EB  28ED               	goto	u3491
  5020  00EC  28EE               	goto	u3490
  5021  00ED                     u3491:
  5022  00ED  290D               	goto	l2397
  5023  00EE                     u3490:
  5024  00EE                     l2387:
  5025  00EE  308C               	movlw	140
  5026  00EF  0086               	movwf	6
  5027  00F0  3021               	movlw	33
  5028  00F1  0087               	movwf	7
  5029  00F2  3144               	addfsr 1,4
  5030  00F3  3037               	movlw	55
  5031  00F4  0601               	xorwf	1,w
  5032  00F5  1D03               	btfss	3,2
  5033  00F6  28F8               	goto	u3501
  5034  00F7  28F9               	goto	u3500
  5035  00F8                     u3501:
  5036  00F8  290D               	goto	l2397
  5037  00F9                     u3500:
  5038  00F9                     l2389:
  5039  00F9  308C               	movlw	140
  5040  00FA  0086               	movwf	6
  5041  00FB  3021               	movlw	33
  5042  00FC  0087               	movwf	7
  5043  00FD  3145               	addfsr 1,5
  5044  00FE  3023               	movlw	35
  5045  00FF  0601               	xorwf	1,w
  5046  0100  1D03               	btfss	3,2
  5047  0101  2903               	goto	u3511
  5048  0102  2904               	goto	u3510
  5049  0103                     u3511:
  5050  0103  290D               	goto	l2397
  5051  0104                     u3510:
  5052  0104                     l2391:
  5053                           
  5054                           ;main.c: 177:             LATCbits.LATC6 =0 ;
  5055  0104  0022               	movlb	2	; select bank2
  5056  0105  130E               	bcf	14,6	;volatile
  5057  0106                     l2393:
  5058                           
  5059                           ;main.c: 178:             state_7 = 2;
  5060  0106  3002               	movlw	2
  5061  0107  0020               	movlb	0	; select bank0
  5062  0108  00E5               	movwf	??_main
  5063  0109  0865               	movf	??_main,w
  5064  010A  00CE               	movwf	_state_7
  5065  010B                     l2395:
  5066                           
  5067                           ;main.c: 179:             count = 0;
  5068  010B  01C8               	clrf	_count
  5069  010C  01C9               	clrf	_count+1
  5070  010D                     l2397:
  5071                           
  5072                           ;main.c: 181:         if ((str[0]=='O')&&(str[1]=='F')&&(str[2]=='F')&&(str[3]=='0')&&(s
      +                          tr[4]=='8')&&(str[5]=='#')){
  5073  010D  308C               	movlw	140
  5074  010E  0086               	movwf	6
  5075  010F  3021               	movlw	33
  5076  0110  0087               	movwf	7
  5077  0111  304F               	movlw	79
  5078  0112  0601               	xorwf	1,w
  5079  0113  1D03               	btfss	3,2
  5080  0114  2916               	goto	u3521
  5081  0115  2917               	goto	u3520
  5082  0116                     u3521:
  5083  0116  2957               	goto	l2415
  5084  0117                     u3520:
  5085  0117                     l2399:
  5086  0117  308C               	movlw	140
  5087  0118  0086               	movwf	6
  5088  0119  3021               	movlw	33
  5089  011A  0087               	movwf	7
  5090  011B  3141               	addfsr 1,1
  5091  011C  3046               	movlw	70
  5092  011D  0601               	xorwf	1,w
  5093  011E  1D03               	btfss	3,2
  5094  011F  2921               	goto	u3531
  5095  0120  2922               	goto	u3530
  5096  0121                     u3531:
  5097  0121  2957               	goto	l2415
  5098  0122                     u3530:
  5099  0122                     l2401:
  5100  0122  308C               	movlw	140
  5101  0123  0086               	movwf	6
  5102  0124  3021               	movlw	33
  5103  0125  0087               	movwf	7
  5104  0126  3142               	addfsr 1,2
  5105  0127  3046               	movlw	70
  5106  0128  0601               	xorwf	1,w
  5107  0129  1D03               	btfss	3,2
  5108  012A  292C               	goto	u3541
  5109  012B  292D               	goto	u3540
  5110  012C                     u3541:
  5111  012C  2957               	goto	l2415
  5112  012D                     u3540:
  5113  012D                     l2403:
  5114  012D  308C               	movlw	140
  5115  012E  0086               	movwf	6
  5116  012F  3021               	movlw	33
  5117  0130  0087               	movwf	7
  5118  0131  3143               	addfsr 1,3
  5119  0132  3030               	movlw	48
  5120  0133  0601               	xorwf	1,w
  5121  0134  1D03               	btfss	3,2
  5122  0135  2937               	goto	u3551
  5123  0136  2938               	goto	u3550
  5124  0137                     u3551:
  5125  0137  2957               	goto	l2415
  5126  0138                     u3550:
  5127  0138                     l2405:
  5128  0138  308C               	movlw	140
  5129  0139  0086               	movwf	6
  5130  013A  3021               	movlw	33
  5131  013B  0087               	movwf	7
  5132  013C  3144               	addfsr 1,4
  5133  013D  3038               	movlw	56
  5134  013E  0601               	xorwf	1,w
  5135  013F  1D03               	btfss	3,2
  5136  0140  2942               	goto	u3561
  5137  0141  2943               	goto	u3560
  5138  0142                     u3561:
  5139  0142  2957               	goto	l2415
  5140  0143                     u3560:
  5141  0143                     l2407:
  5142  0143  308C               	movlw	140
  5143  0144  0086               	movwf	6
  5144  0145  3021               	movlw	33
  5145  0146  0087               	movwf	7
  5146  0147  3145               	addfsr 1,5
  5147  0148  3023               	movlw	35
  5148  0149  0601               	xorwf	1,w
  5149  014A  1D03               	btfss	3,2
  5150  014B  294D               	goto	u3571
  5151  014C  294E               	goto	u3570
  5152  014D                     u3571:
  5153  014D  2957               	goto	l2415
  5154  014E                     u3570:
  5155  014E                     l2409:
  5156                           
  5157                           ;main.c: 182:             LATCbits.LATC7 =0 ;
  5158  014E  0022               	movlb	2	; select bank2
  5159  014F  138E               	bcf	14,7	;volatile
  5160  0150                     l2411:
  5161                           
  5162                           ;main.c: 183:             state_8 = 2;
  5163  0150  3002               	movlw	2
  5164  0151  0020               	movlb	0	; select bank0
  5165  0152  00E5               	movwf	??_main
  5166  0153  0865               	movf	??_main,w
  5167  0154  00CD               	movwf	_state_8
  5168  0155                     l2413:
  5169                           
  5170                           ;main.c: 184:             count = 0;
  5171  0155  01C8               	clrf	_count
  5172  0156  01C9               	clrf	_count+1
  5173  0157                     l2415:
  5174                           
  5175                           ;main.c: 186:         if ((str[0]=='O')&&(str[1]=='F')&&(str[2]=='F')&&(str[3]=='*')&&(s
      +                          tr[4]=='#')){
  5176  0157  308C               	movlw	140
  5177  0158  0086               	movwf	6
  5178  0159  3021               	movlw	33
  5179  015A  0087               	movwf	7
  5180  015B  304F               	movlw	79
  5181  015C  0601               	xorwf	1,w
  5182  015D  1D03               	btfss	3,2
  5183  015E  2960               	goto	u3581
  5184  015F  2961               	goto	u3580
  5185  0160                     u3581:
  5186  0160  29B2               	goto	l2431
  5187  0161                     u3580:
  5188  0161                     l2417:
  5189  0161  308C               	movlw	140
  5190  0162  0086               	movwf	6
  5191  0163  3021               	movlw	33
  5192  0164  0087               	movwf	7
  5193  0165  3141               	addfsr 1,1
  5194  0166  3046               	movlw	70
  5195  0167  0601               	xorwf	1,w
  5196  0168  1D03               	btfss	3,2
  5197  0169  296B               	goto	u3591
  5198  016A  296C               	goto	u3590
  5199  016B                     u3591:
  5200  016B  29B2               	goto	l2431
  5201  016C                     u3590:
  5202  016C                     l2419:
  5203  016C  308C               	movlw	140
  5204  016D  0086               	movwf	6
  5205  016E  3021               	movlw	33
  5206  016F  0087               	movwf	7
  5207  0170  3142               	addfsr 1,2
  5208  0171  3046               	movlw	70
  5209  0172  0601               	xorwf	1,w
  5210  0173  1D03               	btfss	3,2
  5211  0174  2976               	goto	u3601
  5212  0175  2977               	goto	u3600
  5213  0176                     u3601:
  5214  0176  29B2               	goto	l2431
  5215  0177                     u3600:
  5216  0177                     l2421:
  5217  0177  308C               	movlw	140
  5218  0178  0086               	movwf	6
  5219  0179  3021               	movlw	33
  5220  017A  0087               	movwf	7
  5221  017B  3143               	addfsr 1,3
  5222  017C  302A               	movlw	42
  5223  017D  0601               	xorwf	1,w
  5224  017E  1D03               	btfss	3,2
  5225  017F  2981               	goto	u3611
  5226  0180  2982               	goto	u3610
  5227  0181                     u3611:
  5228  0181  29B2               	goto	l2431
  5229  0182                     u3610:
  5230  0182                     l2423:
  5231  0182  308C               	movlw	140
  5232  0183  0086               	movwf	6
  5233  0184  3021               	movlw	33
  5234  0185  0087               	movwf	7
  5235  0186  3144               	addfsr 1,4
  5236  0187  3023               	movlw	35
  5237  0188  0601               	xorwf	1,w
  5238  0189  1D03               	btfss	3,2
  5239  018A  298C               	goto	u3621
  5240  018B  298D               	goto	u3620
  5241  018C                     u3621:
  5242  018C  29B2               	goto	l2431
  5243  018D                     u3620:
  5244  018D                     l2425:
  5245                           
  5246                           ;main.c: 187:             state_1 = 2;
  5247  018D  3002               	movlw	2
  5248  018E  0020               	movlb	0	; select bank0
  5249  018F  00E5               	movwf	??_main
  5250  0190  0865               	movf	??_main,w
  5251  0191  00D4               	movwf	_state_1
  5252                           
  5253                           ;main.c: 188:             state_2 = 2;
  5254  0192  3002               	movlw	2
  5255  0193  00E5               	movwf	??_main
  5256  0194  0865               	movf	??_main,w
  5257  0195  00D3               	movwf	_state_2
  5258                           
  5259                           ;main.c: 189:             state_3 = 2;
  5260  0196  3002               	movlw	2
  5261  0197  00E5               	movwf	??_main
  5262  0198  0865               	movf	??_main,w
  5263  0199  00D2               	movwf	_state_3
  5264                           
  5265                           ;main.c: 190:             state_4 = 2;
  5266  019A  3002               	movlw	2
  5267  019B  00E5               	movwf	??_main
  5268  019C  0865               	movf	??_main,w
  5269  019D  00D1               	movwf	_state_4
  5270                           
  5271                           ;main.c: 191:             state_5 = 2;
  5272  019E  3002               	movlw	2
  5273  019F  00E5               	movwf	??_main
  5274  01A0  0865               	movf	??_main,w
  5275  01A1  00D0               	movwf	_state_5
  5276                           
  5277                           ;main.c: 192:             state_6 = 2;
  5278  01A2  3002               	movlw	2
  5279  01A3  00E5               	movwf	??_main
  5280  01A4  0865               	movf	??_main,w
  5281  01A5  00CF               	movwf	_state_6
  5282                           
  5283                           ;main.c: 193:             state_7 = 2;
  5284  01A6  3002               	movlw	2
  5285  01A7  00E5               	movwf	??_main
  5286  01A8  0865               	movf	??_main,w
  5287  01A9  00CE               	movwf	_state_7
  5288                           
  5289                           ;main.c: 194:             state_8 = 2;
  5290  01AA  3002               	movlw	2
  5291  01AB  00E5               	movwf	??_main
  5292  01AC  0865               	movf	??_main,w
  5293  01AD  00CD               	movwf	_state_8
  5294  01AE                     l2427:
  5295                           
  5296                           ;main.c: 195:             count = 0;
  5297  01AE  01C8               	clrf	_count
  5298  01AF  01C9               	clrf	_count+1
  5299  01B0                     l2429:
  5300                           
  5301                           ;main.c: 196:             LATC = 0x00 ;
  5302  01B0  0022               	movlb	2	; select bank2
  5303  01B1  018E               	clrf	14	;volatile
  5304  01B2                     l2431:
  5305                           
  5306                           ;main.c: 199:         if (count == 1){
  5307  01B2  0020               	movlb	0	; select bank0
  5308  01B3  0348               	decf	_count,w
  5309  01B4  0449               	iorwf	_count+1,w
  5310  01B5  1D03               	btfss	3,2
  5311  01B6  29B8               	goto	u3631
  5312  01B7  29B9               	goto	u3630
  5313  01B8                     u3631:
  5314  01B8  2A51               	goto	l2463
  5315  01B9                     u3630:
  5316  01B9                     l2433:
  5317                           
  5318                           ;main.c: 200:             for (i=0 ; i<10 ; i++){
  5319  01B9  01CA               	clrf	_i
  5320  01BA  01CB               	clrf	_i+1
  5321  01BB  29BF               	goto	l286
  5322  01BC                     l2439:
  5323  01BC  318A  2265  3180   	fcall	_Check_Blynk
  5324  01BF                     l286:
  5325  01BF  3189  21F5  3180   	fcall	_EUSART_is_rx_ready
  5326  01C2  3A00               	xorlw	0
  5327  01C3  1903               	skipnz
  5328  01C4  29C6               	goto	u3641
  5329  01C5  29C7               	goto	u3640
  5330  01C6                     u3641:
  5331  01C6  29BC               	goto	l2439
  5332  01C7                     u3640:
  5333  01C7                     l2441:
  5334                           
  5335                           ;main.c: 202:                 str[i]=EUSART_Read();
  5336  01C7  318A  2235  3180   	fcall	_EUSART_Read
  5337  01CA  0020               	movlb	0	; select bank0
  5338  01CB  00E5               	movwf	??_main
  5339  01CC  308C               	movlw	140
  5340  01CD  00E6               	movwf	??_main+1
  5341  01CE  3021               	movlw	33
  5342  01CF  00E7               	movwf	??_main+2
  5343  01D0  084A               	movf	_i,w
  5344  01D1  0766               	addwf	??_main+1,w
  5345  01D2  00E8               	movwf	??_main+3
  5346  01D3  084B               	movf	_i+1,w
  5347  01D4  3D67               	addwfc	??_main+2,w
  5348  01D5  00E9               	movwf	??_main+4
  5349  01D6  0868               	movf	??_main+3,w
  5350  01D7  0086               	movwf	6
  5351  01D8  0869               	movf	??_main+4,w
  5352  01D9  0087               	movwf	7
  5353  01DA  0865               	movf	??_main,w
  5354  01DB  0081               	movwf	1
  5355  01DC                     l2443:
  5356                           
  5357                           ;main.c: 203:                 if (str[i]=='#') i=11;
  5358  01DC  308C               	movlw	140
  5359  01DD  00E5               	movwf	??_main
  5360  01DE  3021               	movlw	33
  5361  01DF  00E6               	movwf	??_main+1
  5362  01E0  084A               	movf	_i,w
  5363  01E1  0765               	addwf	??_main,w
  5364  01E2  0086               	movwf	6
  5365  01E3  084B               	movf	_i+1,w
  5366  01E4  3D66               	addwfc	??_main+1,w
  5367  01E5  0087               	movwf	7
  5368  01E6  3023               	movlw	35
  5369  01E7  0601               	xorwf	1,w
  5370  01E8  1D03               	btfss	3,2
  5371  01E9  29EB               	goto	u3651
  5372  01EA  29EC               	goto	u3650
  5373  01EB                     u3651:
  5374  01EB  29F0               	goto	l289
  5375  01EC                     u3650:
  5376  01EC                     l2445:
  5377  01EC  300B               	movlw	11
  5378  01ED  00CA               	movwf	_i
  5379  01EE  3000               	movlw	0
  5380  01EF  00CB               	movwf	_i+1
  5381  01F0                     l289:
  5382                           
  5383                           ;main.c: 204:             }
  5384  01F0  3001               	movlw	1
  5385  01F1  07CA               	addwf	_i,f
  5386  01F2  3000               	movlw	0
  5387  01F3  3DCB               	addwfc	_i+1,f
  5388  01F4  084B               	movf	_i+1,w
  5389  01F5  3A80               	xorlw	128
  5390  01F6  00E5               	movwf	??_main
  5391  01F7  3080               	movlw	128
  5392  01F8  0265               	subwf	??_main,w
  5393  01F9  1D03               	skipz
  5394  01FA  29FD               	goto	u3665
  5395  01FB  300A               	movlw	10
  5396  01FC  024A               	subwf	_i,w
  5397  01FD                     u3665:
  5398  01FD  1C03               	skipc
  5399  01FE  2A00               	goto	u3661
  5400  01FF  2A01               	goto	u3660
  5401  0200                     u3661:
  5402  0200  29BF               	goto	l286
  5403  0201                     u3660:
  5404  0201  2A51               	goto	l2463
  5405  0202                     l291:
  5406                           
  5407                           ;main.c: 209:             state_1 = 1;
  5408  0202  0020               	movlb	0	; select bank0
  5409  0203  01D4               	clrf	_state_1
  5410  0204  0AD4               	incf	_state_1,f
  5411  0205                     l2447:
  5412                           
  5413                           ;main.c: 210:             count = 1;
  5414  0205  3001               	movlw	1
  5415  0206  00C8               	movwf	_count
  5416  0207  3000               	movlw	0
  5417  0208  00C9               	movwf	_count+1
  5418  0209                     l2449:
  5419                           
  5420                           ;main.c: 211:             for (i=0 ; i<10 ; i++){
  5421  0209  01CA               	clrf	_i
  5422  020A  01CB               	clrf	_i+1
  5423  020B  2A0F               	goto	l294
  5424  020C                     l2455:
  5425  020C  318A  2265  3180   	fcall	_Check_Blynk
  5426  020F                     l294:
  5427  020F  3189  21F5  3180   	fcall	_EUSART_is_rx_ready
  5428  0212  3A00               	xorlw	0
  5429  0213  1903               	skipnz
  5430  0214  2A16               	goto	u3671
  5431  0215  2A17               	goto	u3670
  5432  0216                     u3671:
  5433  0216  2A0C               	goto	l2455
  5434  0217                     u3670:
  5435  0217                     l2457:
  5436                           
  5437                           ;main.c: 213:                 str[i]=EUSART_Read();
  5438  0217  318A  2235  3180   	fcall	_EUSART_Read
  5439  021A  0020               	movlb	0	; select bank0
  5440  021B  00E5               	movwf	??_main
  5441  021C  308C               	movlw	140
  5442  021D  00E6               	movwf	??_main+1
  5443  021E  3021               	movlw	33
  5444  021F  00E7               	movwf	??_main+2
  5445  0220  084A               	movf	_i,w
  5446  0221  0766               	addwf	??_main+1,w
  5447  0222  00E8               	movwf	??_main+3
  5448  0223  084B               	movf	_i+1,w
  5449  0224  3D67               	addwfc	??_main+2,w
  5450  0225  00E9               	movwf	??_main+4
  5451  0226  0868               	movf	??_main+3,w
  5452  0227  0086               	movwf	6
  5453  0228  0869               	movf	??_main+4,w
  5454  0229  0087               	movwf	7
  5455  022A  0865               	movf	??_main,w
  5456  022B  0081               	movwf	1
  5457  022C                     l2459:
  5458                           
  5459                           ;main.c: 214:                 if (str[i]=='#') i=11;
  5460  022C  308C               	movlw	140
  5461  022D  00E5               	movwf	??_main
  5462  022E  3021               	movlw	33
  5463  022F  00E6               	movwf	??_main+1
  5464  0230  084A               	movf	_i,w
  5465  0231  0765               	addwf	??_main,w
  5466  0232  0086               	movwf	6
  5467  0233  084B               	movf	_i+1,w
  5468  0234  3D66               	addwfc	??_main+1,w
  5469  0235  0087               	movwf	7
  5470  0236  3023               	movlw	35
  5471  0237  0601               	xorwf	1,w
  5472  0238  1D03               	btfss	3,2
  5473  0239  2A3B               	goto	u3681
  5474  023A  2A3C               	goto	u3680
  5475  023B                     u3681:
  5476  023B  2A40               	goto	l297
  5477  023C                     u3680:
  5478  023C                     l2461:
  5479  023C  300B               	movlw	11
  5480  023D  00CA               	movwf	_i
  5481  023E  3000               	movlw	0
  5482  023F  00CB               	movwf	_i+1
  5483  0240                     l297:
  5484                           
  5485                           ;main.c: 215:             }
  5486  0240  3001               	movlw	1
  5487  0241  07CA               	addwf	_i,f
  5488  0242  3000               	movlw	0
  5489  0243  3DCB               	addwfc	_i+1,f
  5490  0244  084B               	movf	_i+1,w
  5491  0245  3A80               	xorlw	128
  5492  0246  00E5               	movwf	??_main
  5493  0247  3080               	movlw	128
  5494  0248  0265               	subwf	??_main,w
  5495  0249  1D03               	skipz
  5496  024A  2A4D               	goto	u3695
  5497  024B  300A               	movlw	10
  5498  024C  024A               	subwf	_i,w
  5499  024D                     u3695:
  5500  024D  1C03               	skipc
  5501  024E  2A50               	goto	u3691
  5502  024F  2A51               	goto	u3690
  5503  0250                     u3691:
  5504  0250  2A0F               	goto	l294
  5505  0251                     u3690:
  5506  0251                     l2463:
  5507                           
  5508                           ;main.c: 208:         while ((str[0]=='B')&&(str[1]=='L')&&(str[2]=='Y')&&(str[3]=='N')&
      +                          &(str[4]=='K')&&(str[5]=='0')&&(str[6]=='1')&&(str[7]=='#')){
  5509  0251  308C               	movlw	140
  5510  0252  0086               	movwf	6
  5511  0253  3021               	movlw	33
  5512  0254  0087               	movwf	7
  5513  0255  3042               	movlw	66
  5514  0256  0601               	xorwf	1,w
  5515  0257  1D03               	btfss	3,2
  5516  0258  2A5A               	goto	u3701
  5517  0259  2A5B               	goto	u3700
  5518  025A                     u3701:
  5519  025A  2AF8               	goto	l2495
  5520  025B                     u3700:
  5521  025B                     l2465:
  5522  025B  308C               	movlw	140
  5523  025C  0086               	movwf	6
  5524  025D  3021               	movlw	33
  5525  025E  0087               	movwf	7
  5526  025F  3141               	addfsr 1,1
  5527  0260  304C               	movlw	76
  5528  0261  0601               	xorwf	1,w
  5529  0262  1D03               	btfss	3,2
  5530  0263  2A65               	goto	u3711
  5531  0264  2A66               	goto	u3710
  5532  0265                     u3711:
  5533  0265  2AF8               	goto	l2495
  5534  0266                     u3710:
  5535  0266                     l2467:
  5536  0266  308C               	movlw	140
  5537  0267  0086               	movwf	6
  5538  0268  3021               	movlw	33
  5539  0269  0087               	movwf	7
  5540  026A  3142               	addfsr 1,2
  5541  026B  3059               	movlw	89
  5542  026C  0601               	xorwf	1,w
  5543  026D  1D03               	btfss	3,2
  5544  026E  2A70               	goto	u3721
  5545  026F  2A71               	goto	u3720
  5546  0270                     u3721:
  5547  0270  2AF8               	goto	l2495
  5548  0271                     u3720:
  5549  0271                     l2469:
  5550  0271  308C               	movlw	140
  5551  0272  0086               	movwf	6
  5552  0273  3021               	movlw	33
  5553  0274  0087               	movwf	7
  5554  0275  3143               	addfsr 1,3
  5555  0276  304E               	movlw	78
  5556  0277  0601               	xorwf	1,w
  5557  0278  1D03               	btfss	3,2
  5558  0279  2A7B               	goto	u3731
  5559  027A  2A7C               	goto	u3730
  5560  027B                     u3731:
  5561  027B  2AF8               	goto	l2495
  5562  027C                     u3730:
  5563  027C                     l2471:
  5564  027C  308C               	movlw	140
  5565  027D  0086               	movwf	6
  5566  027E  3021               	movlw	33
  5567  027F  0087               	movwf	7
  5568  0280  3144               	addfsr 1,4
  5569  0281  304B               	movlw	75
  5570  0282  0601               	xorwf	1,w
  5571  0283  1D03               	btfss	3,2
  5572  0284  2A86               	goto	u3741
  5573  0285  2A87               	goto	u3740
  5574  0286                     u3741:
  5575  0286  2AF8               	goto	l2495
  5576  0287                     u3740:
  5577  0287                     l2473:
  5578  0287  308C               	movlw	140
  5579  0288  0086               	movwf	6
  5580  0289  3021               	movlw	33
  5581  028A  0087               	movwf	7
  5582  028B  3145               	addfsr 1,5
  5583  028C  3030               	movlw	48
  5584  028D  0601               	xorwf	1,w
  5585  028E  1D03               	btfss	3,2
  5586  028F  2A91               	goto	u3751
  5587  0290  2A92               	goto	u3750
  5588  0291                     u3751:
  5589  0291  2AF8               	goto	l2495
  5590  0292                     u3750:
  5591  0292                     l2475:
  5592  0292  308C               	movlw	140
  5593  0293  0086               	movwf	6
  5594  0294  3021               	movlw	33
  5595  0295  0087               	movwf	7
  5596  0296  3146               	addfsr 1,6
  5597  0297  3031               	movlw	49
  5598  0298  0601               	xorwf	1,w
  5599  0299  1D03               	btfss	3,2
  5600  029A  2A9C               	goto	u3761
  5601  029B  2A9D               	goto	u3760
  5602  029C                     u3761:
  5603  029C  2AF8               	goto	l2495
  5604  029D                     u3760:
  5605  029D                     l2477:
  5606  029D  308C               	movlw	140
  5607  029E  0086               	movwf	6
  5608  029F  3021               	movlw	33
  5609  02A0  0087               	movwf	7
  5610  02A1  3147               	addfsr 1,7
  5611  02A2  3023               	movlw	35
  5612  02A3  0601               	xorwf	1,w
  5613  02A4  1903               	btfsc	3,2
  5614  02A5  2AA7               	goto	u3771
  5615  02A6  2AA8               	goto	u3770
  5616  02A7                     u3771:
  5617  02A7  2A02               	goto	l291
  5618  02A8                     u3770:
  5619  02A8  2AF8               	goto	l2495
  5620  02A9                     l302:
  5621                           
  5622                           ;main.c: 218:             state_2 = 1;
  5623  02A9  0020               	movlb	0	; select bank0
  5624  02AA  01D3               	clrf	_state_2
  5625  02AB  0AD3               	incf	_state_2,f
  5626  02AC                     l2479:
  5627                           
  5628                           ;main.c: 219:             count = 1;
  5629  02AC  3001               	movlw	1
  5630  02AD  00C8               	movwf	_count
  5631  02AE  3000               	movlw	0
  5632  02AF  00C9               	movwf	_count+1
  5633  02B0                     l2481:
  5634                           
  5635                           ;main.c: 220:             for (i=0 ; i<10 ; i++){
  5636  02B0  01CA               	clrf	_i
  5637  02B1  01CB               	clrf	_i+1
  5638  02B2  2AB6               	goto	l305
  5639  02B3                     l2487:
  5640  02B3  318A  2265  3180   	fcall	_Check_Blynk
  5641  02B6                     l305:
  5642  02B6  3189  21F5  3180   	fcall	_EUSART_is_rx_ready
  5643  02B9  3A00               	xorlw	0
  5644  02BA  1903               	skipnz
  5645  02BB  2ABD               	goto	u3781
  5646  02BC  2ABE               	goto	u3780
  5647  02BD                     u3781:
  5648  02BD  2AB3               	goto	l2487
  5649  02BE                     u3780:
  5650  02BE                     l2489:
  5651                           
  5652                           ;main.c: 222:                 str[i]=EUSART_Read();
  5653  02BE  318A  2235  3180   	fcall	_EUSART_Read
  5654  02C1  0020               	movlb	0	; select bank0
  5655  02C2  00E5               	movwf	??_main
  5656  02C3  308C               	movlw	140
  5657  02C4  00E6               	movwf	??_main+1
  5658  02C5  3021               	movlw	33
  5659  02C6  00E7               	movwf	??_main+2
  5660  02C7  084A               	movf	_i,w
  5661  02C8  0766               	addwf	??_main+1,w
  5662  02C9  00E8               	movwf	??_main+3
  5663  02CA  084B               	movf	_i+1,w
  5664  02CB  3D67               	addwfc	??_main+2,w
  5665  02CC  00E9               	movwf	??_main+4
  5666  02CD  0868               	movf	??_main+3,w
  5667  02CE  0086               	movwf	6
  5668  02CF  0869               	movf	??_main+4,w
  5669  02D0  0087               	movwf	7
  5670  02D1  0865               	movf	??_main,w
  5671  02D2  0081               	movwf	1
  5672  02D3                     l2491:
  5673                           
  5674                           ;main.c: 223:                 if (str[i]=='#') i=11;
  5675  02D3  308C               	movlw	140
  5676  02D4  00E5               	movwf	??_main
  5677  02D5  3021               	movlw	33
  5678  02D6  00E6               	movwf	??_main+1
  5679  02D7  084A               	movf	_i,w
  5680  02D8  0765               	addwf	??_main,w
  5681  02D9  0086               	movwf	6
  5682  02DA  084B               	movf	_i+1,w
  5683  02DB  3D66               	addwfc	??_main+1,w
  5684  02DC  0087               	movwf	7
  5685  02DD  3023               	movlw	35
  5686  02DE  0601               	xorwf	1,w
  5687  02DF  1D03               	btfss	3,2
  5688  02E0  2AE2               	goto	u3791
  5689  02E1  2AE3               	goto	u3790
  5690  02E2                     u3791:
  5691  02E2  2AE7               	goto	l308
  5692  02E3                     u3790:
  5693  02E3                     l2493:
  5694  02E3  300B               	movlw	11
  5695  02E4  00CA               	movwf	_i
  5696  02E5  3000               	movlw	0
  5697  02E6  00CB               	movwf	_i+1
  5698  02E7                     l308:
  5699                           
  5700                           ;main.c: 224:             }
  5701  02E7  3001               	movlw	1
  5702  02E8  07CA               	addwf	_i,f
  5703  02E9  3000               	movlw	0
  5704  02EA  3DCB               	addwfc	_i+1,f
  5705  02EB  084B               	movf	_i+1,w
  5706  02EC  3A80               	xorlw	128
  5707  02ED  00E5               	movwf	??_main
  5708  02EE  3080               	movlw	128
  5709  02EF  0265               	subwf	??_main,w
  5710  02F0  1D03               	skipz
  5711  02F1  2AF4               	goto	u3805
  5712  02F2  300A               	movlw	10
  5713  02F3  024A               	subwf	_i,w
  5714  02F4                     u3805:
  5715  02F4  1C03               	skipc
  5716  02F5  2AF7               	goto	u3801
  5717  02F6  2AF8               	goto	u3800
  5718  02F7                     u3801:
  5719  02F7  2AB6               	goto	l305
  5720  02F8                     u3800:
  5721  02F8                     l2495:
  5722                           
  5723                           ;main.c: 217:         while ((str[0]=='B')&&(str[1]=='L')&&(str[2]=='Y')&&(str[3]=='N')&
      +                          &(str[4]=='K')&&(str[5]=='0')&&(str[6]=='2')&&(str[7]=='#')){
  5724  02F8  308C               	movlw	140
  5725  02F9  0086               	movwf	6
  5726  02FA  3021               	movlw	33
  5727  02FB  0087               	movwf	7
  5728  02FC  3042               	movlw	66
  5729  02FD  0601               	xorwf	1,w
  5730  02FE  1D03               	btfss	3,2
  5731  02FF  2B01               	goto	u3811
  5732  0300  2B02               	goto	u3810
  5733  0301                     u3811:
  5734  0301  2B9F               	goto	l2527
  5735  0302                     u3810:
  5736  0302                     l2497:
  5737  0302  308C               	movlw	140
  5738  0303  0086               	movwf	6
  5739  0304  3021               	movlw	33
  5740  0305  0087               	movwf	7
  5741  0306  3141               	addfsr 1,1
  5742  0307  304C               	movlw	76
  5743  0308  0601               	xorwf	1,w
  5744  0309  1D03               	btfss	3,2
  5745  030A  2B0C               	goto	u3821
  5746  030B  2B0D               	goto	u3820
  5747  030C                     u3821:
  5748  030C  2B9F               	goto	l2527
  5749  030D                     u3820:
  5750  030D                     l2499:
  5751  030D  308C               	movlw	140
  5752  030E  0086               	movwf	6
  5753  030F  3021               	movlw	33
  5754  0310  0087               	movwf	7
  5755  0311  3142               	addfsr 1,2
  5756  0312  3059               	movlw	89
  5757  0313  0601               	xorwf	1,w
  5758  0314  1D03               	btfss	3,2
  5759  0315  2B17               	goto	u3831
  5760  0316  2B18               	goto	u3830
  5761  0317                     u3831:
  5762  0317  2B9F               	goto	l2527
  5763  0318                     u3830:
  5764  0318                     l2501:
  5765  0318  308C               	movlw	140
  5766  0319  0086               	movwf	6
  5767  031A  3021               	movlw	33
  5768  031B  0087               	movwf	7
  5769  031C  3143               	addfsr 1,3
  5770  031D  304E               	movlw	78
  5771  031E  0601               	xorwf	1,w
  5772  031F  1D03               	btfss	3,2
  5773  0320  2B22               	goto	u3841
  5774  0321  2B23               	goto	u3840
  5775  0322                     u3841:
  5776  0322  2B9F               	goto	l2527
  5777  0323                     u3840:
  5778  0323                     l2503:
  5779  0323  308C               	movlw	140
  5780  0324  0086               	movwf	6
  5781  0325  3021               	movlw	33
  5782  0326  0087               	movwf	7
  5783  0327  3144               	addfsr 1,4
  5784  0328  304B               	movlw	75
  5785  0329  0601               	xorwf	1,w
  5786  032A  1D03               	btfss	3,2
  5787  032B  2B2D               	goto	u3851
  5788  032C  2B2E               	goto	u3850
  5789  032D                     u3851:
  5790  032D  2B9F               	goto	l2527
  5791  032E                     u3850:
  5792  032E                     l2505:
  5793  032E  308C               	movlw	140
  5794  032F  0086               	movwf	6
  5795  0330  3021               	movlw	33
  5796  0331  0087               	movwf	7
  5797  0332  3145               	addfsr 1,5
  5798  0333  3030               	movlw	48
  5799  0334  0601               	xorwf	1,w
  5800  0335  1D03               	btfss	3,2
  5801  0336  2B38               	goto	u3861
  5802  0337  2B39               	goto	u3860
  5803  0338                     u3861:
  5804  0338  2B9F               	goto	l2527
  5805  0339                     u3860:
  5806  0339                     l2507:
  5807  0339  308C               	movlw	140
  5808  033A  0086               	movwf	6
  5809  033B  3021               	movlw	33
  5810  033C  0087               	movwf	7
  5811  033D  3146               	addfsr 1,6
  5812  033E  3032               	movlw	50
  5813  033F  0601               	xorwf	1,w
  5814  0340  1D03               	btfss	3,2
  5815  0341  2B43               	goto	u3871
  5816  0342  2B44               	goto	u3870
  5817  0343                     u3871:
  5818  0343  2B9F               	goto	l2527
  5819  0344                     u3870:
  5820  0344                     l2509:
  5821  0344  308C               	movlw	140
  5822  0345  0086               	movwf	6
  5823  0346  3021               	movlw	33
  5824  0347  0087               	movwf	7
  5825  0348  3147               	addfsr 1,7
  5826  0349  3023               	movlw	35
  5827  034A  0601               	xorwf	1,w
  5828  034B  1903               	btfsc	3,2
  5829  034C  2B4E               	goto	u3881
  5830  034D  2B4F               	goto	u3880
  5831  034E                     u3881:
  5832  034E  2AA9               	goto	l302
  5833  034F                     u3880:
  5834  034F  2B9F               	goto	l2527
  5835  0350                     l313:
  5836                           
  5837                           ;main.c: 227:             state_3 = 1;
  5838  0350  0020               	movlb	0	; select bank0
  5839  0351  01D2               	clrf	_state_3
  5840  0352  0AD2               	incf	_state_3,f
  5841  0353                     l2511:
  5842                           
  5843                           ;main.c: 228:             count = 1;
  5844  0353  3001               	movlw	1
  5845  0354  00C8               	movwf	_count
  5846  0355  3000               	movlw	0
  5847  0356  00C9               	movwf	_count+1
  5848  0357                     l2513:
  5849                           
  5850                           ;main.c: 229:             for (i=0 ; i<10 ; i++){
  5851  0357  01CA               	clrf	_i
  5852  0358  01CB               	clrf	_i+1
  5853  0359  2B5D               	goto	l316
  5854  035A                     l2519:
  5855  035A  318A  2265  3180   	fcall	_Check_Blynk
  5856  035D                     l316:
  5857  035D  3189  21F5  3180   	fcall	_EUSART_is_rx_ready
  5858  0360  3A00               	xorlw	0
  5859  0361  1903               	skipnz
  5860  0362  2B64               	goto	u3891
  5861  0363  2B65               	goto	u3890
  5862  0364                     u3891:
  5863  0364  2B5A               	goto	l2519
  5864  0365                     u3890:
  5865  0365                     l2521:
  5866                           
  5867                           ;main.c: 231:                 str[i]=EUSART_Read();
  5868  0365  318A  2235  3180   	fcall	_EUSART_Read
  5869  0368  0020               	movlb	0	; select bank0
  5870  0369  00E5               	movwf	??_main
  5871  036A  308C               	movlw	140
  5872  036B  00E6               	movwf	??_main+1
  5873  036C  3021               	movlw	33
  5874  036D  00E7               	movwf	??_main+2
  5875  036E  084A               	movf	_i,w
  5876  036F  0766               	addwf	??_main+1,w
  5877  0370  00E8               	movwf	??_main+3
  5878  0371  084B               	movf	_i+1,w
  5879  0372  3D67               	addwfc	??_main+2,w
  5880  0373  00E9               	movwf	??_main+4
  5881  0374  0868               	movf	??_main+3,w
  5882  0375  0086               	movwf	6
  5883  0376  0869               	movf	??_main+4,w
  5884  0377  0087               	movwf	7
  5885  0378  0865               	movf	??_main,w
  5886  0379  0081               	movwf	1
  5887  037A                     l2523:
  5888                           
  5889                           ;main.c: 232:                 if (str[i]=='#') i=11;
  5890  037A  308C               	movlw	140
  5891  037B  00E5               	movwf	??_main
  5892  037C  3021               	movlw	33
  5893  037D  00E6               	movwf	??_main+1
  5894  037E  084A               	movf	_i,w
  5895  037F  0765               	addwf	??_main,w
  5896  0380  0086               	movwf	6
  5897  0381  084B               	movf	_i+1,w
  5898  0382  3D66               	addwfc	??_main+1,w
  5899  0383  0087               	movwf	7
  5900  0384  3023               	movlw	35
  5901  0385  0601               	xorwf	1,w
  5902  0386  1D03               	btfss	3,2
  5903  0387  2B89               	goto	u3901
  5904  0388  2B8A               	goto	u3900
  5905  0389                     u3901:
  5906  0389  2B8E               	goto	l319
  5907  038A                     u3900:
  5908  038A                     l2525:
  5909  038A  300B               	movlw	11
  5910  038B  00CA               	movwf	_i
  5911  038C  3000               	movlw	0
  5912  038D  00CB               	movwf	_i+1
  5913  038E                     l319:
  5914                           
  5915                           ;main.c: 233:             }
  5916  038E  3001               	movlw	1
  5917  038F  07CA               	addwf	_i,f
  5918  0390  3000               	movlw	0
  5919  0391  3DCB               	addwfc	_i+1,f
  5920  0392  084B               	movf	_i+1,w
  5921  0393  3A80               	xorlw	128
  5922  0394  00E5               	movwf	??_main
  5923  0395  3080               	movlw	128
  5924  0396  0265               	subwf	??_main,w
  5925  0397  1D03               	skipz
  5926  0398  2B9B               	goto	u3915
  5927  0399  300A               	movlw	10
  5928  039A  024A               	subwf	_i,w
  5929  039B                     u3915:
  5930  039B  1C03               	skipc
  5931  039C  2B9E               	goto	u3911
  5932  039D  2B9F               	goto	u3910
  5933  039E                     u3911:
  5934  039E  2B5D               	goto	l316
  5935  039F                     u3910:
  5936  039F                     l2527:
  5937                           
  5938                           ;main.c: 226:         while ((str[0]=='B')&&(str[1]=='L')&&(str[2]=='Y')&&(str[3]=='N')&
      +                          &(str[4]=='K')&&(str[5]=='0')&&(str[6]=='3')&&(str[7]=='#')){
  5939  039F  308C               	movlw	140
  5940  03A0  0086               	movwf	6
  5941  03A1  3021               	movlw	33
  5942  03A2  0087               	movwf	7
  5943  03A3  3042               	movlw	66
  5944  03A4  0601               	xorwf	1,w
  5945  03A5  1D03               	btfss	3,2
  5946  03A6  2BA8               	goto	u3921
  5947  03A7  2BA9               	goto	u3920
  5948  03A8                     u3921:
  5949  03A8  2C46               	goto	l2559
  5950  03A9                     u3920:
  5951  03A9                     l2529:
  5952  03A9  308C               	movlw	140
  5953  03AA  0086               	movwf	6
  5954  03AB  3021               	movlw	33
  5955  03AC  0087               	movwf	7
  5956  03AD  3141               	addfsr 1,1
  5957  03AE  304C               	movlw	76
  5958  03AF  0601               	xorwf	1,w
  5959  03B0  1D03               	btfss	3,2
  5960  03B1  2BB3               	goto	u3931
  5961  03B2  2BB4               	goto	u3930
  5962  03B3                     u3931:
  5963  03B3  2C46               	goto	l2559
  5964  03B4                     u3930:
  5965  03B4                     l2531:
  5966  03B4  308C               	movlw	140
  5967  03B5  0086               	movwf	6
  5968  03B6  3021               	movlw	33
  5969  03B7  0087               	movwf	7
  5970  03B8  3142               	addfsr 1,2
  5971  03B9  3059               	movlw	89
  5972  03BA  0601               	xorwf	1,w
  5973  03BB  1D03               	btfss	3,2
  5974  03BC  2BBE               	goto	u3941
  5975  03BD  2BBF               	goto	u3940
  5976  03BE                     u3941:
  5977  03BE  2C46               	goto	l2559
  5978  03BF                     u3940:
  5979  03BF                     l2533:
  5980  03BF  308C               	movlw	140
  5981  03C0  0086               	movwf	6
  5982  03C1  3021               	movlw	33
  5983  03C2  0087               	movwf	7
  5984  03C3  3143               	addfsr 1,3
  5985  03C4  304E               	movlw	78
  5986  03C5  0601               	xorwf	1,w
  5987  03C6  1D03               	btfss	3,2
  5988  03C7  2BC9               	goto	u3951
  5989  03C8  2BCA               	goto	u3950
  5990  03C9                     u3951:
  5991  03C9  2C46               	goto	l2559
  5992  03CA                     u3950:
  5993  03CA                     l2535:
  5994  03CA  308C               	movlw	140
  5995  03CB  0086               	movwf	6
  5996  03CC  3021               	movlw	33
  5997  03CD  0087               	movwf	7
  5998  03CE  3144               	addfsr 1,4
  5999  03CF  304B               	movlw	75
  6000  03D0  0601               	xorwf	1,w
  6001  03D1  1D03               	btfss	3,2
  6002  03D2  2BD4               	goto	u3961
  6003  03D3  2BD5               	goto	u3960
  6004  03D4                     u3961:
  6005  03D4  2C46               	goto	l2559
  6006  03D5                     u3960:
  6007  03D5                     l2537:
  6008  03D5  308C               	movlw	140
  6009  03D6  0086               	movwf	6
  6010  03D7  3021               	movlw	33
  6011  03D8  0087               	movwf	7
  6012  03D9  3145               	addfsr 1,5
  6013  03DA  3030               	movlw	48
  6014  03DB  0601               	xorwf	1,w
  6015  03DC  1D03               	btfss	3,2
  6016  03DD  2BDF               	goto	u3971
  6017  03DE  2BE0               	goto	u3970
  6018  03DF                     u3971:
  6019  03DF  2C46               	goto	l2559
  6020  03E0                     u3970:
  6021  03E0                     l2539:
  6022  03E0  308C               	movlw	140
  6023  03E1  0086               	movwf	6
  6024  03E2  3021               	movlw	33
  6025  03E3  0087               	movwf	7
  6026  03E4  3146               	addfsr 1,6
  6027  03E5  3033               	movlw	51
  6028  03E6  0601               	xorwf	1,w
  6029  03E7  1D03               	btfss	3,2
  6030  03E8  2BEA               	goto	u3981
  6031  03E9  2BEB               	goto	u3980
  6032  03EA                     u3981:
  6033  03EA  2C46               	goto	l2559
  6034  03EB                     u3980:
  6035  03EB                     l2541:
  6036  03EB  308C               	movlw	140
  6037  03EC  0086               	movwf	6
  6038  03ED  3021               	movlw	33
  6039  03EE  0087               	movwf	7
  6040  03EF  3147               	addfsr 1,7
  6041  03F0  3023               	movlw	35
  6042  03F1  0601               	xorwf	1,w
  6043  03F2  1903               	btfsc	3,2
  6044  03F3  2BF5               	goto	u3991
  6045  03F4  2BF6               	goto	u3990
  6046  03F5                     u3991:
  6047  03F5  2B50               	goto	l313
  6048  03F6                     u3990:
  6049  03F6  2C46               	goto	l2559
  6050  03F7                     l324:
  6051                           
  6052                           ;main.c: 236:             state_4 = 1;
  6053  03F7  0020               	movlb	0	; select bank0
  6054  03F8  01D1               	clrf	_state_4
  6055  03F9  0AD1               	incf	_state_4,f
  6056  03FA                     l2543:
  6057                           
  6058                           ;main.c: 237:             count = 1;
  6059  03FA  3001               	movlw	1
  6060  03FB  00C8               	movwf	_count
  6061  03FC  3000               	movlw	0
  6062  03FD  00C9               	movwf	_count+1
  6063  03FE                     l2545:
  6064                           
  6065                           ;main.c: 238:             for (i=0 ; i<10 ; i++){
  6066  03FE  01CA               	clrf	_i
  6067  03FF  01CB               	clrf	_i+1
  6068  0400  2C04               	goto	l327
  6069  0401                     l2551:
  6070  0401  318A  2265  3180   	fcall	_Check_Blynk
  6071  0404                     l327:
  6072  0404  3189  21F5  3180   	fcall	_EUSART_is_rx_ready
  6073  0407  3A00               	xorlw	0
  6074  0408  1903               	skipnz
  6075  0409  2C0B               	goto	u4001
  6076  040A  2C0C               	goto	u4000
  6077  040B                     u4001:
  6078  040B  2C01               	goto	l2551
  6079  040C                     u4000:
  6080  040C                     l2553:
  6081                           
  6082                           ;main.c: 240:                 str[i]=EUSART_Read();
  6083  040C  318A  2235  3180   	fcall	_EUSART_Read
  6084  040F  0020               	movlb	0	; select bank0
  6085  0410  00E5               	movwf	??_main
  6086  0411  308C               	movlw	140
  6087  0412  00E6               	movwf	??_main+1
  6088  0413  3021               	movlw	33
  6089  0414  00E7               	movwf	??_main+2
  6090  0415  084A               	movf	_i,w
  6091  0416  0766               	addwf	??_main+1,w
  6092  0417  00E8               	movwf	??_main+3
  6093  0418  084B               	movf	_i+1,w
  6094  0419  3D67               	addwfc	??_main+2,w
  6095  041A  00E9               	movwf	??_main+4
  6096  041B  0868               	movf	??_main+3,w
  6097  041C  0086               	movwf	6
  6098  041D  0869               	movf	??_main+4,w
  6099  041E  0087               	movwf	7
  6100  041F  0865               	movf	??_main,w
  6101  0420  0081               	movwf	1
  6102  0421                     l2555:
  6103                           
  6104                           ;main.c: 241:                 if (str[i]=='#') i=11;
  6105  0421  308C               	movlw	140
  6106  0422  00E5               	movwf	??_main
  6107  0423  3021               	movlw	33
  6108  0424  00E6               	movwf	??_main+1
  6109  0425  084A               	movf	_i,w
  6110  0426  0765               	addwf	??_main,w
  6111  0427  0086               	movwf	6
  6112  0428  084B               	movf	_i+1,w
  6113  0429  3D66               	addwfc	??_main+1,w
  6114  042A  0087               	movwf	7
  6115  042B  3023               	movlw	35
  6116  042C  0601               	xorwf	1,w
  6117  042D  1D03               	btfss	3,2
  6118  042E  2C30               	goto	u4011
  6119  042F  2C31               	goto	u4010
  6120  0430                     u4011:
  6121  0430  2C35               	goto	l330
  6122  0431                     u4010:
  6123  0431                     l2557:
  6124  0431  300B               	movlw	11
  6125  0432  00CA               	movwf	_i
  6126  0433  3000               	movlw	0
  6127  0434  00CB               	movwf	_i+1
  6128  0435                     l330:
  6129                           
  6130                           ;main.c: 242:             }
  6131  0435  3001               	movlw	1
  6132  0436  07CA               	addwf	_i,f
  6133  0437  3000               	movlw	0
  6134  0438  3DCB               	addwfc	_i+1,f
  6135  0439  084B               	movf	_i+1,w
  6136  043A  3A80               	xorlw	128
  6137  043B  00E5               	movwf	??_main
  6138  043C  3080               	movlw	128
  6139  043D  0265               	subwf	??_main,w
  6140  043E  1D03               	skipz
  6141  043F  2C42               	goto	u4025
  6142  0440  300A               	movlw	10
  6143  0441  024A               	subwf	_i,w
  6144  0442                     u4025:
  6145  0442  1C03               	skipc
  6146  0443  2C45               	goto	u4021
  6147  0444  2C46               	goto	u4020
  6148  0445                     u4021:
  6149  0445  2C04               	goto	l327
  6150  0446                     u4020:
  6151  0446                     l2559:
  6152                           
  6153                           ;main.c: 235:         while ((str[0]=='B')&&(str[1]=='L')&&(str[2]=='Y')&&(str[3]=='N')&
      +                          &(str[4]=='K')&&(str[5]=='0')&&(str[6]=='4')&&(str[7]=='#')){
  6154  0446  308C               	movlw	140
  6155  0447  0086               	movwf	6
  6156  0448  3021               	movlw	33
  6157  0449  0087               	movwf	7
  6158  044A  3042               	movlw	66
  6159  044B  0601               	xorwf	1,w
  6160  044C  1D03               	btfss	3,2
  6161  044D  2C4F               	goto	u4031
  6162  044E  2C50               	goto	u4030
  6163  044F                     u4031:
  6164  044F  2CED               	goto	l2591
  6165  0450                     u4030:
  6166  0450                     l2561:
  6167  0450  308C               	movlw	140
  6168  0451  0086               	movwf	6
  6169  0452  3021               	movlw	33
  6170  0453  0087               	movwf	7
  6171  0454  3141               	addfsr 1,1
  6172  0455  304C               	movlw	76
  6173  0456  0601               	xorwf	1,w
  6174  0457  1D03               	btfss	3,2
  6175  0458  2C5A               	goto	u4041
  6176  0459  2C5B               	goto	u4040
  6177  045A                     u4041:
  6178  045A  2CED               	goto	l2591
  6179  045B                     u4040:
  6180  045B                     l2563:
  6181  045B  308C               	movlw	140
  6182  045C  0086               	movwf	6
  6183  045D  3021               	movlw	33
  6184  045E  0087               	movwf	7
  6185  045F  3142               	addfsr 1,2
  6186  0460  3059               	movlw	89
  6187  0461  0601               	xorwf	1,w
  6188  0462  1D03               	btfss	3,2
  6189  0463  2C65               	goto	u4051
  6190  0464  2C66               	goto	u4050
  6191  0465                     u4051:
  6192  0465  2CED               	goto	l2591
  6193  0466                     u4050:
  6194  0466                     l2565:
  6195  0466  308C               	movlw	140
  6196  0467  0086               	movwf	6
  6197  0468  3021               	movlw	33
  6198  0469  0087               	movwf	7
  6199  046A  3143               	addfsr 1,3
  6200  046B  304E               	movlw	78
  6201  046C  0601               	xorwf	1,w
  6202  046D  1D03               	btfss	3,2
  6203  046E  2C70               	goto	u4061
  6204  046F  2C71               	goto	u4060
  6205  0470                     u4061:
  6206  0470  2CED               	goto	l2591
  6207  0471                     u4060:
  6208  0471                     l2567:
  6209  0471  308C               	movlw	140
  6210  0472  0086               	movwf	6
  6211  0473  3021               	movlw	33
  6212  0474  0087               	movwf	7
  6213  0475  3144               	addfsr 1,4
  6214  0476  304B               	movlw	75
  6215  0477  0601               	xorwf	1,w
  6216  0478  1D03               	btfss	3,2
  6217  0479  2C7B               	goto	u4071
  6218  047A  2C7C               	goto	u4070
  6219  047B                     u4071:
  6220  047B  2CED               	goto	l2591
  6221  047C                     u4070:
  6222  047C                     l2569:
  6223  047C  308C               	movlw	140
  6224  047D  0086               	movwf	6
  6225  047E  3021               	movlw	33
  6226  047F  0087               	movwf	7
  6227  0480  3145               	addfsr 1,5
  6228  0481  3030               	movlw	48
  6229  0482  0601               	xorwf	1,w
  6230  0483  1D03               	btfss	3,2
  6231  0484  2C86               	goto	u4081
  6232  0485  2C87               	goto	u4080
  6233  0486                     u4081:
  6234  0486  2CED               	goto	l2591
  6235  0487                     u4080:
  6236  0487                     l2571:
  6237  0487  308C               	movlw	140
  6238  0488  0086               	movwf	6
  6239  0489  3021               	movlw	33
  6240  048A  0087               	movwf	7
  6241  048B  3146               	addfsr 1,6
  6242  048C  3034               	movlw	52
  6243  048D  0601               	xorwf	1,w
  6244  048E  1D03               	btfss	3,2
  6245  048F  2C91               	goto	u4091
  6246  0490  2C92               	goto	u4090
  6247  0491                     u4091:
  6248  0491  2CED               	goto	l2591
  6249  0492                     u4090:
  6250  0492                     l2573:
  6251  0492  308C               	movlw	140
  6252  0493  0086               	movwf	6
  6253  0494  3021               	movlw	33
  6254  0495  0087               	movwf	7
  6255  0496  3147               	addfsr 1,7
  6256  0497  3023               	movlw	35
  6257  0498  0601               	xorwf	1,w
  6258  0499  1903               	btfsc	3,2
  6259  049A  2C9C               	goto	u4101
  6260  049B  2C9D               	goto	u4100
  6261  049C                     u4101:
  6262  049C  2BF7               	goto	l324
  6263  049D                     u4100:
  6264  049D  2CED               	goto	l2591
  6265  049E                     l335:
  6266                           
  6267                           ;main.c: 245:             state_5 = 1;
  6268  049E  0020               	movlb	0	; select bank0
  6269  049F  01D0               	clrf	_state_5
  6270  04A0  0AD0               	incf	_state_5,f
  6271  04A1                     l2575:
  6272                           
  6273                           ;main.c: 246:             count = 1;
  6274  04A1  3001               	movlw	1
  6275  04A2  00C8               	movwf	_count
  6276  04A3  3000               	movlw	0
  6277  04A4  00C9               	movwf	_count+1
  6278  04A5                     l2577:
  6279                           
  6280                           ;main.c: 247:             for (i=0 ; i<10 ; i++){
  6281  04A5  01CA               	clrf	_i
  6282  04A6  01CB               	clrf	_i+1
  6283  04A7  2CAB               	goto	l338
  6284  04A8                     l2583:
  6285  04A8  318A  2265  3180   	fcall	_Check_Blynk
  6286  04AB                     l338:
  6287  04AB  3189  21F5  3180   	fcall	_EUSART_is_rx_ready
  6288  04AE  3A00               	xorlw	0
  6289  04AF  1903               	skipnz
  6290  04B0  2CB2               	goto	u4111
  6291  04B1  2CB3               	goto	u4110
  6292  04B2                     u4111:
  6293  04B2  2CA8               	goto	l2583
  6294  04B3                     u4110:
  6295  04B3                     l2585:
  6296                           
  6297                           ;main.c: 249:                 str[i]=EUSART_Read();
  6298  04B3  318A  2235  3180   	fcall	_EUSART_Read
  6299  04B6  0020               	movlb	0	; select bank0
  6300  04B7  00E5               	movwf	??_main
  6301  04B8  308C               	movlw	140
  6302  04B9  00E6               	movwf	??_main+1
  6303  04BA  3021               	movlw	33
  6304  04BB  00E7               	movwf	??_main+2
  6305  04BC  084A               	movf	_i,w
  6306  04BD  0766               	addwf	??_main+1,w
  6307  04BE  00E8               	movwf	??_main+3
  6308  04BF  084B               	movf	_i+1,w
  6309  04C0  3D67               	addwfc	??_main+2,w
  6310  04C1  00E9               	movwf	??_main+4
  6311  04C2  0868               	movf	??_main+3,w
  6312  04C3  0086               	movwf	6
  6313  04C4  0869               	movf	??_main+4,w
  6314  04C5  0087               	movwf	7
  6315  04C6  0865               	movf	??_main,w
  6316  04C7  0081               	movwf	1
  6317  04C8                     l2587:
  6318                           
  6319                           ;main.c: 250:                 if (str[i]=='#') i=11;
  6320  04C8  308C               	movlw	140
  6321  04C9  00E5               	movwf	??_main
  6322  04CA  3021               	movlw	33
  6323  04CB  00E6               	movwf	??_main+1
  6324  04CC  084A               	movf	_i,w
  6325  04CD  0765               	addwf	??_main,w
  6326  04CE  0086               	movwf	6
  6327  04CF  084B               	movf	_i+1,w
  6328  04D0  3D66               	addwfc	??_main+1,w
  6329  04D1  0087               	movwf	7
  6330  04D2  3023               	movlw	35
  6331  04D3  0601               	xorwf	1,w
  6332  04D4  1D03               	btfss	3,2
  6333  04D5  2CD7               	goto	u4121
  6334  04D6  2CD8               	goto	u4120
  6335  04D7                     u4121:
  6336  04D7  2CDC               	goto	l341
  6337  04D8                     u4120:
  6338  04D8                     l2589:
  6339  04D8  300B               	movlw	11
  6340  04D9  00CA               	movwf	_i
  6341  04DA  3000               	movlw	0
  6342  04DB  00CB               	movwf	_i+1
  6343  04DC                     l341:
  6344                           
  6345                           ;main.c: 251:             }
  6346  04DC  3001               	movlw	1
  6347  04DD  07CA               	addwf	_i,f
  6348  04DE  3000               	movlw	0
  6349  04DF  3DCB               	addwfc	_i+1,f
  6350  04E0  084B               	movf	_i+1,w
  6351  04E1  3A80               	xorlw	128
  6352  04E2  00E5               	movwf	??_main
  6353  04E3  3080               	movlw	128
  6354  04E4  0265               	subwf	??_main,w
  6355  04E5  1D03               	skipz
  6356  04E6  2CE9               	goto	u4135
  6357  04E7  300A               	movlw	10
  6358  04E8  024A               	subwf	_i,w
  6359  04E9                     u4135:
  6360  04E9  1C03               	skipc
  6361  04EA  2CEC               	goto	u4131
  6362  04EB  2CED               	goto	u4130
  6363  04EC                     u4131:
  6364  04EC  2CAB               	goto	l338
  6365  04ED                     u4130:
  6366  04ED                     l2591:
  6367                           
  6368                           ;main.c: 244:         while ((str[0]=='B')&&(str[1]=='L')&&(str[2]=='Y')&&(str[3]=='N')&
      +                          &(str[4]=='K')&&(str[5]=='0')&&(str[6]=='5')&&(str[7]=='#')){
  6369  04ED  308C               	movlw	140
  6370  04EE  0086               	movwf	6
  6371  04EF  3021               	movlw	33
  6372  04F0  0087               	movwf	7
  6373  04F1  3042               	movlw	66
  6374  04F2  0601               	xorwf	1,w
  6375  04F3  1D03               	btfss	3,2
  6376  04F4  2CF6               	goto	u4141
  6377  04F5  2CF7               	goto	u4140
  6378  04F6                     u4141:
  6379  04F6  2D94               	goto	l2623
  6380  04F7                     u4140:
  6381  04F7                     l2593:
  6382  04F7  308C               	movlw	140
  6383  04F8  0086               	movwf	6
  6384  04F9  3021               	movlw	33
  6385  04FA  0087               	movwf	7
  6386  04FB  3141               	addfsr 1,1
  6387  04FC  304C               	movlw	76
  6388  04FD  0601               	xorwf	1,w
  6389  04FE  1D03               	btfss	3,2
  6390  04FF  2D01               	goto	u4151
  6391  0500  2D02               	goto	u4150
  6392  0501                     u4151:
  6393  0501  2D94               	goto	l2623
  6394  0502                     u4150:
  6395  0502                     l2595:
  6396  0502  308C               	movlw	140
  6397  0503  0086               	movwf	6
  6398  0504  3021               	movlw	33
  6399  0505  0087               	movwf	7
  6400  0506  3142               	addfsr 1,2
  6401  0507  3059               	movlw	89
  6402  0508  0601               	xorwf	1,w
  6403  0509  1D03               	btfss	3,2
  6404  050A  2D0C               	goto	u4161
  6405  050B  2D0D               	goto	u4160
  6406  050C                     u4161:
  6407  050C  2D94               	goto	l2623
  6408  050D                     u4160:
  6409  050D                     l2597:
  6410  050D  308C               	movlw	140
  6411  050E  0086               	movwf	6
  6412  050F  3021               	movlw	33
  6413  0510  0087               	movwf	7
  6414  0511  3143               	addfsr 1,3
  6415  0512  304E               	movlw	78
  6416  0513  0601               	xorwf	1,w
  6417  0514  1D03               	btfss	3,2
  6418  0515  2D17               	goto	u4171
  6419  0516  2D18               	goto	u4170
  6420  0517                     u4171:
  6421  0517  2D94               	goto	l2623
  6422  0518                     u4170:
  6423  0518                     l2599:
  6424  0518  308C               	movlw	140
  6425  0519  0086               	movwf	6
  6426  051A  3021               	movlw	33
  6427  051B  0087               	movwf	7
  6428  051C  3144               	addfsr 1,4
  6429  051D  304B               	movlw	75
  6430  051E  0601               	xorwf	1,w
  6431  051F  1D03               	btfss	3,2
  6432  0520  2D22               	goto	u4181
  6433  0521  2D23               	goto	u4180
  6434  0522                     u4181:
  6435  0522  2D94               	goto	l2623
  6436  0523                     u4180:
  6437  0523                     l2601:
  6438  0523  308C               	movlw	140
  6439  0524  0086               	movwf	6
  6440  0525  3021               	movlw	33
  6441  0526  0087               	movwf	7
  6442  0527  3145               	addfsr 1,5
  6443  0528  3030               	movlw	48
  6444  0529  0601               	xorwf	1,w
  6445  052A  1D03               	btfss	3,2
  6446  052B  2D2D               	goto	u4191
  6447  052C  2D2E               	goto	u4190
  6448  052D                     u4191:
  6449  052D  2D94               	goto	l2623
  6450  052E                     u4190:
  6451  052E                     l2603:
  6452  052E  308C               	movlw	140
  6453  052F  0086               	movwf	6
  6454  0530  3021               	movlw	33
  6455  0531  0087               	movwf	7
  6456  0532  3146               	addfsr 1,6
  6457  0533  3035               	movlw	53
  6458  0534  0601               	xorwf	1,w
  6459  0535  1D03               	btfss	3,2
  6460  0536  2D38               	goto	u4201
  6461  0537  2D39               	goto	u4200
  6462  0538                     u4201:
  6463  0538  2D94               	goto	l2623
  6464  0539                     u4200:
  6465  0539                     l2605:
  6466  0539  308C               	movlw	140
  6467  053A  0086               	movwf	6
  6468  053B  3021               	movlw	33
  6469  053C  0087               	movwf	7
  6470  053D  3147               	addfsr 1,7
  6471  053E  3023               	movlw	35
  6472  053F  0601               	xorwf	1,w
  6473  0540  1903               	btfsc	3,2
  6474  0541  2D43               	goto	u4211
  6475  0542  2D44               	goto	u4210
  6476  0543                     u4211:
  6477  0543  2C9E               	goto	l335
  6478  0544                     u4210:
  6479  0544  2D94               	goto	l2623
  6480  0545                     l346:
  6481                           
  6482                           ;main.c: 254:             state_6 = 1;
  6483  0545  0020               	movlb	0	; select bank0
  6484  0546  01CF               	clrf	_state_6
  6485  0547  0ACF               	incf	_state_6,f
  6486  0548                     l2607:
  6487                           
  6488                           ;main.c: 255:             count = 1;
  6489  0548  3001               	movlw	1
  6490  0549  00C8               	movwf	_count
  6491  054A  3000               	movlw	0
  6492  054B  00C9               	movwf	_count+1
  6493  054C                     l2609:
  6494                           
  6495                           ;main.c: 256:             for (i=0 ; i<10 ; i++){
  6496  054C  01CA               	clrf	_i
  6497  054D  01CB               	clrf	_i+1
  6498  054E  2D52               	goto	l349
  6499  054F                     l2615:
  6500  054F  318A  2265  3180   	fcall	_Check_Blynk
  6501  0552                     l349:
  6502  0552  3189  21F5  3180   	fcall	_EUSART_is_rx_ready
  6503  0555  3A00               	xorlw	0
  6504  0556  1903               	skipnz
  6505  0557  2D59               	goto	u4221
  6506  0558  2D5A               	goto	u4220
  6507  0559                     u4221:
  6508  0559  2D4F               	goto	l2615
  6509  055A                     u4220:
  6510  055A                     l2617:
  6511                           
  6512                           ;main.c: 258:                 str[i]=EUSART_Read();
  6513  055A  318A  2235  3180   	fcall	_EUSART_Read
  6514  055D  0020               	movlb	0	; select bank0
  6515  055E  00E5               	movwf	??_main
  6516  055F  308C               	movlw	140
  6517  0560  00E6               	movwf	??_main+1
  6518  0561  3021               	movlw	33
  6519  0562  00E7               	movwf	??_main+2
  6520  0563  084A               	movf	_i,w
  6521  0564  0766               	addwf	??_main+1,w
  6522  0565  00E8               	movwf	??_main+3
  6523  0566  084B               	movf	_i+1,w
  6524  0567  3D67               	addwfc	??_main+2,w
  6525  0568  00E9               	movwf	??_main+4
  6526  0569  0868               	movf	??_main+3,w
  6527  056A  0086               	movwf	6
  6528  056B  0869               	movf	??_main+4,w
  6529  056C  0087               	movwf	7
  6530  056D  0865               	movf	??_main,w
  6531  056E  0081               	movwf	1
  6532  056F                     l2619:
  6533                           
  6534                           ;main.c: 259:                 if (str[i]=='#') i=11;
  6535  056F  308C               	movlw	140
  6536  0570  00E5               	movwf	??_main
  6537  0571  3021               	movlw	33
  6538  0572  00E6               	movwf	??_main+1
  6539  0573  084A               	movf	_i,w
  6540  0574  0765               	addwf	??_main,w
  6541  0575  0086               	movwf	6
  6542  0576  084B               	movf	_i+1,w
  6543  0577  3D66               	addwfc	??_main+1,w
  6544  0578  0087               	movwf	7
  6545  0579  3023               	movlw	35
  6546  057A  0601               	xorwf	1,w
  6547  057B  1D03               	btfss	3,2
  6548  057C  2D7E               	goto	u4231
  6549  057D  2D7F               	goto	u4230
  6550  057E                     u4231:
  6551  057E  2D83               	goto	l352
  6552  057F                     u4230:
  6553  057F                     l2621:
  6554  057F  300B               	movlw	11
  6555  0580  00CA               	movwf	_i
  6556  0581  3000               	movlw	0
  6557  0582  00CB               	movwf	_i+1
  6558  0583                     l352:
  6559                           
  6560                           ;main.c: 260:             }
  6561  0583  3001               	movlw	1
  6562  0584  07CA               	addwf	_i,f
  6563  0585  3000               	movlw	0
  6564  0586  3DCB               	addwfc	_i+1,f
  6565  0587  084B               	movf	_i+1,w
  6566  0588  3A80               	xorlw	128
  6567  0589  00E5               	movwf	??_main
  6568  058A  3080               	movlw	128
  6569  058B  0265               	subwf	??_main,w
  6570  058C  1D03               	skipz
  6571  058D  2D90               	goto	u4245
  6572  058E  300A               	movlw	10
  6573  058F  024A               	subwf	_i,w
  6574  0590                     u4245:
  6575  0590  1C03               	skipc
  6576  0591  2D93               	goto	u4241
  6577  0592  2D94               	goto	u4240
  6578  0593                     u4241:
  6579  0593  2D52               	goto	l349
  6580  0594                     u4240:
  6581  0594                     l2623:
  6582                           
  6583                           ;main.c: 253:         while ((str[0]=='B')&&(str[1]=='L')&&(str[2]=='Y')&&(str[3]=='N')&
      +                          &(str[4]=='K')&&(str[5]=='0')&&(str[6]=='6')&&(str[7]=='#')){
  6584  0594  308C               	movlw	140
  6585  0595  0086               	movwf	6
  6586  0596  3021               	movlw	33
  6587  0597  0087               	movwf	7
  6588  0598  3042               	movlw	66
  6589  0599  0601               	xorwf	1,w
  6590  059A  1D03               	btfss	3,2
  6591  059B  2D9D               	goto	u4251
  6592  059C  2D9E               	goto	u4250
  6593  059D                     u4251:
  6594  059D  2E3B               	goto	l2655
  6595  059E                     u4250:
  6596  059E                     l2625:
  6597  059E  308C               	movlw	140
  6598  059F  0086               	movwf	6
  6599  05A0  3021               	movlw	33
  6600  05A1  0087               	movwf	7
  6601  05A2  3141               	addfsr 1,1
  6602  05A3  304C               	movlw	76
  6603  05A4  0601               	xorwf	1,w
  6604  05A5  1D03               	btfss	3,2
  6605  05A6  2DA8               	goto	u4261
  6606  05A7  2DA9               	goto	u4260
  6607  05A8                     u4261:
  6608  05A8  2E3B               	goto	l2655
  6609  05A9                     u4260:
  6610  05A9                     l2627:
  6611  05A9  308C               	movlw	140
  6612  05AA  0086               	movwf	6
  6613  05AB  3021               	movlw	33
  6614  05AC  0087               	movwf	7
  6615  05AD  3142               	addfsr 1,2
  6616  05AE  3059               	movlw	89
  6617  05AF  0601               	xorwf	1,w
  6618  05B0  1D03               	btfss	3,2
  6619  05B1  2DB3               	goto	u4271
  6620  05B2  2DB4               	goto	u4270
  6621  05B3                     u4271:
  6622  05B3  2E3B               	goto	l2655
  6623  05B4                     u4270:
  6624  05B4                     l2629:
  6625  05B4  308C               	movlw	140
  6626  05B5  0086               	movwf	6
  6627  05B6  3021               	movlw	33
  6628  05B7  0087               	movwf	7
  6629  05B8  3143               	addfsr 1,3
  6630  05B9  304E               	movlw	78
  6631  05BA  0601               	xorwf	1,w
  6632  05BB  1D03               	btfss	3,2
  6633  05BC  2DBE               	goto	u4281
  6634  05BD  2DBF               	goto	u4280
  6635  05BE                     u4281:
  6636  05BE  2E3B               	goto	l2655
  6637  05BF                     u4280:
  6638  05BF                     l2631:
  6639  05BF  308C               	movlw	140
  6640  05C0  0086               	movwf	6
  6641  05C1  3021               	movlw	33
  6642  05C2  0087               	movwf	7
  6643  05C3  3144               	addfsr 1,4
  6644  05C4  304B               	movlw	75
  6645  05C5  0601               	xorwf	1,w
  6646  05C6  1D03               	btfss	3,2
  6647  05C7  2DC9               	goto	u4291
  6648  05C8  2DCA               	goto	u4290
  6649  05C9                     u4291:
  6650  05C9  2E3B               	goto	l2655
  6651  05CA                     u4290:
  6652  05CA                     l2633:
  6653  05CA  308C               	movlw	140
  6654  05CB  0086               	movwf	6
  6655  05CC  3021               	movlw	33
  6656  05CD  0087               	movwf	7
  6657  05CE  3145               	addfsr 1,5
  6658  05CF  3030               	movlw	48
  6659  05D0  0601               	xorwf	1,w
  6660  05D1  1D03               	btfss	3,2
  6661  05D2  2DD4               	goto	u4301
  6662  05D3  2DD5               	goto	u4300
  6663  05D4                     u4301:
  6664  05D4  2E3B               	goto	l2655
  6665  05D5                     u4300:
  6666  05D5                     l2635:
  6667  05D5  308C               	movlw	140
  6668  05D6  0086               	movwf	6
  6669  05D7  3021               	movlw	33
  6670  05D8  0087               	movwf	7
  6671  05D9  3146               	addfsr 1,6
  6672  05DA  3036               	movlw	54
  6673  05DB  0601               	xorwf	1,w
  6674  05DC  1D03               	btfss	3,2
  6675  05DD  2DDF               	goto	u4311
  6676  05DE  2DE0               	goto	u4310
  6677  05DF                     u4311:
  6678  05DF  2E3B               	goto	l2655
  6679  05E0                     u4310:
  6680  05E0                     l2637:
  6681  05E0  308C               	movlw	140
  6682  05E1  0086               	movwf	6
  6683  05E2  3021               	movlw	33
  6684  05E3  0087               	movwf	7
  6685  05E4  3147               	addfsr 1,7
  6686  05E5  3023               	movlw	35
  6687  05E6  0601               	xorwf	1,w
  6688  05E7  1903               	btfsc	3,2
  6689  05E8  2DEA               	goto	u4321
  6690  05E9  2DEB               	goto	u4320
  6691  05EA                     u4321:
  6692  05EA  2D45               	goto	l346
  6693  05EB                     u4320:
  6694  05EB  2E3B               	goto	l2655
  6695  05EC                     l357:
  6696                           
  6697                           ;main.c: 263:             state_7 = 1;
  6698  05EC  0020               	movlb	0	; select bank0
  6699  05ED  01CE               	clrf	_state_7
  6700  05EE  0ACE               	incf	_state_7,f
  6701  05EF                     l2639:
  6702                           
  6703                           ;main.c: 264:             count = 1;
  6704  05EF  3001               	movlw	1
  6705  05F0  00C8               	movwf	_count
  6706  05F1  3000               	movlw	0
  6707  05F2  00C9               	movwf	_count+1
  6708  05F3                     l2641:
  6709                           
  6710                           ;main.c: 265:             for (i=0 ; i<10 ; i++){
  6711  05F3  01CA               	clrf	_i
  6712  05F4  01CB               	clrf	_i+1
  6713  05F5  2DF9               	goto	l360
  6714  05F6                     l2647:
  6715  05F6  318A  2265  3180   	fcall	_Check_Blynk
  6716  05F9                     l360:
  6717  05F9  3189  21F5  3180   	fcall	_EUSART_is_rx_ready
  6718  05FC  3A00               	xorlw	0
  6719  05FD  1903               	skipnz
  6720  05FE  2E00               	goto	u4331
  6721  05FF  2E01               	goto	u4330
  6722  0600                     u4331:
  6723  0600  2DF6               	goto	l2647
  6724  0601                     u4330:
  6725  0601                     l2649:
  6726                           
  6727                           ;main.c: 267:                 str[i]=EUSART_Read();
  6728  0601  318A  2235  3180   	fcall	_EUSART_Read
  6729  0604  0020               	movlb	0	; select bank0
  6730  0605  00E5               	movwf	??_main
  6731  0606  308C               	movlw	140
  6732  0607  00E6               	movwf	??_main+1
  6733  0608  3021               	movlw	33
  6734  0609  00E7               	movwf	??_main+2
  6735  060A  084A               	movf	_i,w
  6736  060B  0766               	addwf	??_main+1,w
  6737  060C  00E8               	movwf	??_main+3
  6738  060D  084B               	movf	_i+1,w
  6739  060E  3D67               	addwfc	??_main+2,w
  6740  060F  00E9               	movwf	??_main+4
  6741  0610  0868               	movf	??_main+3,w
  6742  0611  0086               	movwf	6
  6743  0612  0869               	movf	??_main+4,w
  6744  0613  0087               	movwf	7
  6745  0614  0865               	movf	??_main,w
  6746  0615  0081               	movwf	1
  6747  0616                     l2651:
  6748                           
  6749                           ;main.c: 268:                 if (str[i]=='#') i=11;
  6750  0616  308C               	movlw	140
  6751  0617  00E5               	movwf	??_main
  6752  0618  3021               	movlw	33
  6753  0619  00E6               	movwf	??_main+1
  6754  061A  084A               	movf	_i,w
  6755  061B  0765               	addwf	??_main,w
  6756  061C  0086               	movwf	6
  6757  061D  084B               	movf	_i+1,w
  6758  061E  3D66               	addwfc	??_main+1,w
  6759  061F  0087               	movwf	7
  6760  0620  3023               	movlw	35
  6761  0621  0601               	xorwf	1,w
  6762  0622  1D03               	btfss	3,2
  6763  0623  2E25               	goto	u4341
  6764  0624  2E26               	goto	u4340
  6765  0625                     u4341:
  6766  0625  2E2A               	goto	l363
  6767  0626                     u4340:
  6768  0626                     l2653:
  6769  0626  300B               	movlw	11
  6770  0627  00CA               	movwf	_i
  6771  0628  3000               	movlw	0
  6772  0629  00CB               	movwf	_i+1
  6773  062A                     l363:
  6774                           
  6775                           ;main.c: 269:             }
  6776  062A  3001               	movlw	1
  6777  062B  07CA               	addwf	_i,f
  6778  062C  3000               	movlw	0
  6779  062D  3DCB               	addwfc	_i+1,f
  6780  062E  084B               	movf	_i+1,w
  6781  062F  3A80               	xorlw	128
  6782  0630  00E5               	movwf	??_main
  6783  0631  3080               	movlw	128
  6784  0632  0265               	subwf	??_main,w
  6785  0633  1D03               	skipz
  6786  0634  2E37               	goto	u4355
  6787  0635  300A               	movlw	10
  6788  0636  024A               	subwf	_i,w
  6789  0637                     u4355:
  6790  0637  1C03               	skipc
  6791  0638  2E3A               	goto	u4351
  6792  0639  2E3B               	goto	u4350
  6793  063A                     u4351:
  6794  063A  2DF9               	goto	l360
  6795  063B                     u4350:
  6796  063B                     l2655:
  6797                           
  6798                           ;main.c: 262:         while ((str[0]=='B')&&(str[1]=='L')&&(str[2]=='Y')&&(str[3]=='N')&
      +                          &(str[4]=='K')&&(str[5]=='0')&&(str[6]=='7')&&(str[7]=='#')){
  6799  063B  308C               	movlw	140
  6800  063C  0086               	movwf	6
  6801  063D  3021               	movlw	33
  6802  063E  0087               	movwf	7
  6803  063F  3042               	movlw	66
  6804  0640  0601               	xorwf	1,w
  6805  0641  1D03               	btfss	3,2
  6806  0642  2E44               	goto	u4361
  6807  0643  2E45               	goto	u4360
  6808  0644                     u4361:
  6809  0644  2EE2               	goto	l2687
  6810  0645                     u4360:
  6811  0645                     l2657:
  6812  0645  308C               	movlw	140
  6813  0646  0086               	movwf	6
  6814  0647  3021               	movlw	33
  6815  0648  0087               	movwf	7
  6816  0649  3141               	addfsr 1,1
  6817  064A  304C               	movlw	76
  6818  064B  0601               	xorwf	1,w
  6819  064C  1D03               	btfss	3,2
  6820  064D  2E4F               	goto	u4371
  6821  064E  2E50               	goto	u4370
  6822  064F                     u4371:
  6823  064F  2EE2               	goto	l2687
  6824  0650                     u4370:
  6825  0650                     l2659:
  6826  0650  308C               	movlw	140
  6827  0651  0086               	movwf	6
  6828  0652  3021               	movlw	33
  6829  0653  0087               	movwf	7
  6830  0654  3142               	addfsr 1,2
  6831  0655  3059               	movlw	89
  6832  0656  0601               	xorwf	1,w
  6833  0657  1D03               	btfss	3,2
  6834  0658  2E5A               	goto	u4381
  6835  0659  2E5B               	goto	u4380
  6836  065A                     u4381:
  6837  065A  2EE2               	goto	l2687
  6838  065B                     u4380:
  6839  065B                     l2661:
  6840  065B  308C               	movlw	140
  6841  065C  0086               	movwf	6
  6842  065D  3021               	movlw	33
  6843  065E  0087               	movwf	7
  6844  065F  3143               	addfsr 1,3
  6845  0660  304E               	movlw	78
  6846  0661  0601               	xorwf	1,w
  6847  0662  1D03               	btfss	3,2
  6848  0663  2E65               	goto	u4391
  6849  0664  2E66               	goto	u4390
  6850  0665                     u4391:
  6851  0665  2EE2               	goto	l2687
  6852  0666                     u4390:
  6853  0666                     l2663:
  6854  0666  308C               	movlw	140
  6855  0667  0086               	movwf	6
  6856  0668  3021               	movlw	33
  6857  0669  0087               	movwf	7
  6858  066A  3144               	addfsr 1,4
  6859  066B  304B               	movlw	75
  6860  066C  0601               	xorwf	1,w
  6861  066D  1D03               	btfss	3,2
  6862  066E  2E70               	goto	u4401
  6863  066F  2E71               	goto	u4400
  6864  0670                     u4401:
  6865  0670  2EE2               	goto	l2687
  6866  0671                     u4400:
  6867  0671                     l2665:
  6868  0671  308C               	movlw	140
  6869  0672  0086               	movwf	6
  6870  0673  3021               	movlw	33
  6871  0674  0087               	movwf	7
  6872  0675  3145               	addfsr 1,5
  6873  0676  3030               	movlw	48
  6874  0677  0601               	xorwf	1,w
  6875  0678  1D03               	btfss	3,2
  6876  0679  2E7B               	goto	u4411
  6877  067A  2E7C               	goto	u4410
  6878  067B                     u4411:
  6879  067B  2EE2               	goto	l2687
  6880  067C                     u4410:
  6881  067C                     l2667:
  6882  067C  308C               	movlw	140
  6883  067D  0086               	movwf	6
  6884  067E  3021               	movlw	33
  6885  067F  0087               	movwf	7
  6886  0680  3146               	addfsr 1,6
  6887  0681  3037               	movlw	55
  6888  0682  0601               	xorwf	1,w
  6889  0683  1D03               	btfss	3,2
  6890  0684  2E86               	goto	u4421
  6891  0685  2E87               	goto	u4420
  6892  0686                     u4421:
  6893  0686  2EE2               	goto	l2687
  6894  0687                     u4420:
  6895  0687                     l2669:
  6896  0687  308C               	movlw	140
  6897  0688  0086               	movwf	6
  6898  0689  3021               	movlw	33
  6899  068A  0087               	movwf	7
  6900  068B  3147               	addfsr 1,7
  6901  068C  3023               	movlw	35
  6902  068D  0601               	xorwf	1,w
  6903  068E  1903               	btfsc	3,2
  6904  068F  2E91               	goto	u4431
  6905  0690  2E92               	goto	u4430
  6906  0691                     u4431:
  6907  0691  2DEC               	goto	l357
  6908  0692                     u4430:
  6909  0692  2EE2               	goto	l2687
  6910  0693                     l368:
  6911                           
  6912                           ;main.c: 272:             state_8 = 1;
  6913  0693  0020               	movlb	0	; select bank0
  6914  0694  01CD               	clrf	_state_8
  6915  0695  0ACD               	incf	_state_8,f
  6916  0696                     l2671:
  6917                           
  6918                           ;main.c: 273:             count = 1;
  6919  0696  3001               	movlw	1
  6920  0697  00C8               	movwf	_count
  6921  0698  3000               	movlw	0
  6922  0699  00C9               	movwf	_count+1
  6923  069A                     l2673:
  6924                           
  6925                           ;main.c: 274:             for (i=0 ; i<10 ; i++){
  6926  069A  01CA               	clrf	_i
  6927  069B  01CB               	clrf	_i+1
  6928  069C  2EA0               	goto	l371
  6929  069D                     l2679:
  6930  069D  318A  2265  3180   	fcall	_Check_Blynk
  6931  06A0                     l371:
  6932  06A0  3189  21F5  3180   	fcall	_EUSART_is_rx_ready
  6933  06A3  3A00               	xorlw	0
  6934  06A4  1903               	skipnz
  6935  06A5  2EA7               	goto	u4441
  6936  06A6  2EA8               	goto	u4440
  6937  06A7                     u4441:
  6938  06A7  2E9D               	goto	l2679
  6939  06A8                     u4440:
  6940  06A8                     l2681:
  6941                           
  6942                           ;main.c: 276:                 str[i]=EUSART_Read();
  6943  06A8  318A  2235  3180   	fcall	_EUSART_Read
  6944  06AB  0020               	movlb	0	; select bank0
  6945  06AC  00E5               	movwf	??_main
  6946  06AD  308C               	movlw	140
  6947  06AE  00E6               	movwf	??_main+1
  6948  06AF  3021               	movlw	33
  6949  06B0  00E7               	movwf	??_main+2
  6950  06B1  084A               	movf	_i,w
  6951  06B2  0766               	addwf	??_main+1,w
  6952  06B3  00E8               	movwf	??_main+3
  6953  06B4  084B               	movf	_i+1,w
  6954  06B5  3D67               	addwfc	??_main+2,w
  6955  06B6  00E9               	movwf	??_main+4
  6956  06B7  0868               	movf	??_main+3,w
  6957  06B8  0086               	movwf	6
  6958  06B9  0869               	movf	??_main+4,w
  6959  06BA  0087               	movwf	7
  6960  06BB  0865               	movf	??_main,w
  6961  06BC  0081               	movwf	1
  6962  06BD                     l2683:
  6963                           
  6964                           ;main.c: 277:                 if (str[i]=='#') i=11;
  6965  06BD  308C               	movlw	140
  6966  06BE  00E5               	movwf	??_main
  6967  06BF  3021               	movlw	33
  6968  06C0  00E6               	movwf	??_main+1
  6969  06C1  084A               	movf	_i,w
  6970  06C2  0765               	addwf	??_main,w
  6971  06C3  0086               	movwf	6
  6972  06C4  084B               	movf	_i+1,w
  6973  06C5  3D66               	addwfc	??_main+1,w
  6974  06C6  0087               	movwf	7
  6975  06C7  3023               	movlw	35
  6976  06C8  0601               	xorwf	1,w
  6977  06C9  1D03               	btfss	3,2
  6978  06CA  2ECC               	goto	u4451
  6979  06CB  2ECD               	goto	u4450
  6980  06CC                     u4451:
  6981  06CC  2ED1               	goto	l374
  6982  06CD                     u4450:
  6983  06CD                     l2685:
  6984  06CD  300B               	movlw	11
  6985  06CE  00CA               	movwf	_i
  6986  06CF  3000               	movlw	0
  6987  06D0  00CB               	movwf	_i+1
  6988  06D1                     l374:
  6989                           
  6990                           ;main.c: 278:             }
  6991  06D1  3001               	movlw	1
  6992  06D2  07CA               	addwf	_i,f
  6993  06D3  3000               	movlw	0
  6994  06D4  3DCB               	addwfc	_i+1,f
  6995  06D5  084B               	movf	_i+1,w
  6996  06D6  3A80               	xorlw	128
  6997  06D7  00E5               	movwf	??_main
  6998  06D8  3080               	movlw	128
  6999  06D9  0265               	subwf	??_main,w
  7000  06DA  1D03               	skipz
  7001  06DB  2EDE               	goto	u4465
  7002  06DC  300A               	movlw	10
  7003  06DD  024A               	subwf	_i,w
  7004  06DE                     u4465:
  7005  06DE  1C03               	skipc
  7006  06DF  2EE1               	goto	u4461
  7007  06E0  2EE2               	goto	u4460
  7008  06E1                     u4461:
  7009  06E1  2EA0               	goto	l371
  7010  06E2                     u4460:
  7011  06E2                     l2687:
  7012                           
  7013                           ;main.c: 271:         while ((str[0]=='B')&&(str[1]=='L')&&(str[2]=='Y')&&(str[3]=='N')&
      +                          &(str[4]=='K')&&(str[5]=='0')&&(str[6]=='8')&&(str[7]=='#')){
  7014  06E2  308C               	movlw	140
  7015  06E3  0086               	movwf	6
  7016  06E4  3021               	movlw	33
  7017  06E5  0087               	movwf	7
  7018  06E6  3042               	movlw	66
  7019  06E7  0601               	xorwf	1,w
  7020  06E8  1D03               	btfss	3,2
  7021  06E9  2EEB               	goto	u4471
  7022  06EA  2EEC               	goto	u4470
  7023  06EB                     u4471:
  7024  06EB  2F97               	goto	l2719
  7025  06EC                     u4470:
  7026  06EC                     l2689:
  7027  06EC  308C               	movlw	140
  7028  06ED  0086               	movwf	6
  7029  06EE  3021               	movlw	33
  7030  06EF  0087               	movwf	7
  7031  06F0  3141               	addfsr 1,1
  7032  06F1  304C               	movlw	76
  7033  06F2  0601               	xorwf	1,w
  7034  06F3  1D03               	btfss	3,2
  7035  06F4  2EF6               	goto	u4481
  7036  06F5  2EF7               	goto	u4480
  7037  06F6                     u4481:
  7038  06F6  2F97               	goto	l2719
  7039  06F7                     u4480:
  7040  06F7                     l2691:
  7041  06F7  308C               	movlw	140
  7042  06F8  0086               	movwf	6
  7043  06F9  3021               	movlw	33
  7044  06FA  0087               	movwf	7
  7045  06FB  3142               	addfsr 1,2
  7046  06FC  3059               	movlw	89
  7047  06FD  0601               	xorwf	1,w
  7048  06FE  1D03               	btfss	3,2
  7049  06FF  2F01               	goto	u4491
  7050  0700  2F02               	goto	u4490
  7051  0701                     u4491:
  7052  0701  2F97               	goto	l2719
  7053  0702                     u4490:
  7054  0702                     l2693:
  7055  0702  308C               	movlw	140
  7056  0703  0086               	movwf	6
  7057  0704  3021               	movlw	33
  7058  0705  0087               	movwf	7
  7059  0706  3143               	addfsr 1,3
  7060  0707  304E               	movlw	78
  7061  0708  0601               	xorwf	1,w
  7062  0709  1D03               	btfss	3,2
  7063  070A  2F0C               	goto	u4501
  7064  070B  2F0D               	goto	u4500
  7065  070C                     u4501:
  7066  070C  2F97               	goto	l2719
  7067  070D                     u4500:
  7068  070D                     l2695:
  7069  070D  308C               	movlw	140
  7070  070E  0086               	movwf	6
  7071  070F  3021               	movlw	33
  7072  0710  0087               	movwf	7
  7073  0711  3144               	addfsr 1,4
  7074  0712  304B               	movlw	75
  7075  0713  0601               	xorwf	1,w
  7076  0714  1D03               	btfss	3,2
  7077  0715  2F17               	goto	u4511
  7078  0716  2F18               	goto	u4510
  7079  0717                     u4511:
  7080  0717  2F97               	goto	l2719
  7081  0718                     u4510:
  7082  0718                     l2697:
  7083  0718  308C               	movlw	140
  7084  0719  0086               	movwf	6
  7085  071A  3021               	movlw	33
  7086  071B  0087               	movwf	7
  7087  071C  3145               	addfsr 1,5
  7088  071D  3030               	movlw	48
  7089  071E  0601               	xorwf	1,w
  7090  071F  1D03               	btfss	3,2
  7091  0720  2F22               	goto	u4521
  7092  0721  2F23               	goto	u4520
  7093  0722                     u4521:
  7094  0722  2F97               	goto	l2719
  7095  0723                     u4520:
  7096  0723                     l2699:
  7097  0723  308C               	movlw	140
  7098  0724  0086               	movwf	6
  7099  0725  3021               	movlw	33
  7100  0726  0087               	movwf	7
  7101  0727  3146               	addfsr 1,6
  7102  0728  3038               	movlw	56
  7103  0729  0601               	xorwf	1,w
  7104  072A  1D03               	btfss	3,2
  7105  072B  2F2D               	goto	u4531
  7106  072C  2F2E               	goto	u4530
  7107  072D                     u4531:
  7108  072D  2F97               	goto	l2719
  7109  072E                     u4530:
  7110  072E                     l2701:
  7111  072E  308C               	movlw	140
  7112  072F  0086               	movwf	6
  7113  0730  3021               	movlw	33
  7114  0731  0087               	movwf	7
  7115  0732  3147               	addfsr 1,7
  7116  0733  3023               	movlw	35
  7117  0734  0601               	xorwf	1,w
  7118  0735  1903               	btfsc	3,2
  7119  0736  2F38               	goto	u4541
  7120  0737  2F39               	goto	u4540
  7121  0738                     u4541:
  7122  0738  2E93               	goto	l368
  7123  0739                     u4540:
  7124  0739  2F97               	goto	l2719
  7125  073A                     l379:
  7126                           
  7127                           ;main.c: 281:             state_1 = 1;
  7128  073A  0020               	movlb	0	; select bank0
  7129  073B  01D4               	clrf	_state_1
  7130  073C  0AD4               	incf	_state_1,f
  7131                           
  7132                           ;main.c: 282:             state_2 = 1;
  7133  073D  01D3               	clrf	_state_2
  7134  073E  0AD3               	incf	_state_2,f
  7135                           
  7136                           ;main.c: 283:             state_3 = 1;
  7137  073F  01D2               	clrf	_state_3
  7138  0740  0AD2               	incf	_state_3,f
  7139                           
  7140                           ;main.c: 284:             state_4 = 1;
  7141  0741  01D1               	clrf	_state_4
  7142  0742  0AD1               	incf	_state_4,f
  7143                           
  7144                           ;main.c: 285:             state_5 = 1;
  7145  0743  01D0               	clrf	_state_5
  7146  0744  0AD0               	incf	_state_5,f
  7147                           
  7148                           ;main.c: 286:             state_6 = 1;
  7149  0745  01CF               	clrf	_state_6
  7150  0746  0ACF               	incf	_state_6,f
  7151                           
  7152                           ;main.c: 287:             state_7 = 1;
  7153  0747  01CE               	clrf	_state_7
  7154  0748  0ACE               	incf	_state_7,f
  7155                           
  7156                           ;main.c: 288:             state_8 = 1;
  7157  0749  01CD               	clrf	_state_8
  7158  074A  0ACD               	incf	_state_8,f
  7159  074B                     l2703:
  7160                           
  7161                           ;main.c: 289:             count = 1;
  7162  074B  3001               	movlw	1
  7163  074C  00C8               	movwf	_count
  7164  074D  3000               	movlw	0
  7165  074E  00C9               	movwf	_count+1
  7166  074F                     l2705:
  7167                           
  7168                           ;main.c: 290:             for (i=0 ; i<10 ; i++){
  7169  074F  01CA               	clrf	_i
  7170  0750  01CB               	clrf	_i+1
  7171  0751  2F55               	goto	l382
  7172  0752                     l2711:
  7173  0752  318A  2265  3180   	fcall	_Check_Blynk
  7174  0755                     l382:
  7175  0755  3189  21F5  3180   	fcall	_EUSART_is_rx_ready
  7176  0758  3A00               	xorlw	0
  7177  0759  1903               	skipnz
  7178  075A  2F5C               	goto	u4551
  7179  075B  2F5D               	goto	u4550
  7180  075C                     u4551:
  7181  075C  2F52               	goto	l2711
  7182  075D                     u4550:
  7183  075D                     l2713:
  7184                           
  7185                           ;main.c: 292:                 str[i]=EUSART_Read();
  7186  075D  318A  2235  3180   	fcall	_EUSART_Read
  7187  0760  0020               	movlb	0	; select bank0
  7188  0761  00E5               	movwf	??_main
  7189  0762  308C               	movlw	140
  7190  0763  00E6               	movwf	??_main+1
  7191  0764  3021               	movlw	33
  7192  0765  00E7               	movwf	??_main+2
  7193  0766  084A               	movf	_i,w
  7194  0767  0766               	addwf	??_main+1,w
  7195  0768  00E8               	movwf	??_main+3
  7196  0769  084B               	movf	_i+1,w
  7197  076A  3D67               	addwfc	??_main+2,w
  7198  076B  00E9               	movwf	??_main+4
  7199  076C  0868               	movf	??_main+3,w
  7200  076D  0086               	movwf	6
  7201  076E  0869               	movf	??_main+4,w
  7202  076F  0087               	movwf	7
  7203  0770  0865               	movf	??_main,w
  7204  0771  0081               	movwf	1
  7205  0772                     l2715:
  7206                           
  7207                           ;main.c: 293:                 if (str[i]=='#') i=11;
  7208  0772  308C               	movlw	140
  7209  0773  00E5               	movwf	??_main
  7210  0774  3021               	movlw	33
  7211  0775  00E6               	movwf	??_main+1
  7212  0776  084A               	movf	_i,w
  7213  0777  0765               	addwf	??_main,w
  7214  0778  0086               	movwf	6
  7215  0779  084B               	movf	_i+1,w
  7216  077A  3D66               	addwfc	??_main+1,w
  7217  077B  0087               	movwf	7
  7218  077C  3023               	movlw	35
  7219  077D  0601               	xorwf	1,w
  7220  077E  1D03               	btfss	3,2
  7221  077F  2F81               	goto	u4561
  7222  0780  2F82               	goto	u4560
  7223  0781                     u4561:
  7224  0781  2F86               	goto	l385
  7225  0782                     u4560:
  7226  0782                     l2717:
  7227  0782  300B               	movlw	11
  7228  0783  00CA               	movwf	_i
  7229  0784  3000               	movlw	0
  7230  0785  00CB               	movwf	_i+1
  7231  0786                     l385:
  7232                           
  7233                           ;main.c: 294:             }
  7234  0786  3001               	movlw	1
  7235  0787  07CA               	addwf	_i,f
  7236  0788  3000               	movlw	0
  7237  0789  3DCB               	addwfc	_i+1,f
  7238  078A  084B               	movf	_i+1,w
  7239  078B  3A80               	xorlw	128
  7240  078C  00E5               	movwf	??_main
  7241  078D  3080               	movlw	128
  7242  078E  0265               	subwf	??_main,w
  7243  078F  1D03               	skipz
  7244  0790  2F93               	goto	u4575
  7245  0791  300A               	movlw	10
  7246  0792  024A               	subwf	_i,w
  7247  0793                     u4575:
  7248  0793  1C03               	skipc
  7249  0794  2F96               	goto	u4571
  7250  0795  2F97               	goto	u4570
  7251  0796                     u4571:
  7252  0796  2F55               	goto	l382
  7253  0797                     u4570:
  7254  0797                     l2719:
  7255                           
  7256                           ;main.c: 280:         while ((str[0]=='B')&&(str[1]=='L')&&(str[2]=='Y')&&(str[3]=='N')&
      +                          &(str[4]=='K')&&(str[5]=='*')&&(str[6]=='#')){
  7257  0797  308C               	movlw	140
  7258  0798  0086               	movwf	6
  7259  0799  3021               	movlw	33
  7260  079A  0087               	movwf	7
  7261  079B  3042               	movlw	66
  7262  079C  0601               	xorwf	1,w
  7263  079D  1D03               	btfss	3,2
  7264  079E  2FA0               	goto	u4581
  7265  079F  2FA2               	goto	u4580
  7266  07A0                     u4581:
  7267  07A0  318B  2BCC         	goto	l2115
  7268  07A2                     u4580:
  7269  07A2                     l2721:
  7270  07A2  308C               	movlw	140
  7271  07A3  0086               	movwf	6
  7272  07A4  3021               	movlw	33
  7273  07A5  0087               	movwf	7
  7274  07A6  3141               	addfsr 1,1
  7275  07A7  304C               	movlw	76
  7276  07A8  0601               	xorwf	1,w
  7277  07A9  1D03               	btfss	3,2
  7278  07AA  2FAC               	goto	u4591
  7279  07AB  2FAD               	goto	u4590
  7280  07AC                     u4591:
  7281  07AC  2FA0               	goto	u4581
  7282  07AD                     u4590:
  7283  07AD                     l2723:
  7284  07AD  308C               	movlw	140
  7285  07AE  0086               	movwf	6
  7286  07AF  3021               	movlw	33
  7287  07B0  0087               	movwf	7
  7288  07B1  3142               	addfsr 1,2
  7289  07B2  3059               	movlw	89
  7290  07B3  0601               	xorwf	1,w
  7291  07B4  1D03               	btfss	3,2
  7292  07B5  2FB7               	goto	u4601
  7293  07B6  2FB8               	goto	u4600
  7294  07B7                     u4601:
  7295  07B7  2FA0               	goto	u4581
  7296  07B8                     u4600:
  7297  07B8                     l2725:
  7298  07B8  308C               	movlw	140
  7299  07B9  0086               	movwf	6
  7300  07BA  3021               	movlw	33
  7301  07BB  0087               	movwf	7
  7302  07BC  3143               	addfsr 1,3
  7303  07BD  304E               	movlw	78
  7304  07BE  0601               	xorwf	1,w
  7305  07BF  1D03               	btfss	3,2
  7306  07C0  2FC2               	goto	u4611
  7307  07C1  2FC3               	goto	u4610
  7308  07C2                     u4611:
  7309  07C2  2FA0               	goto	u4581
  7310  07C3                     u4610:
  7311  07C3                     l2727:
  7312  07C3  308C               	movlw	140
  7313  07C4  0086               	movwf	6
  7314  07C5  3021               	movlw	33
  7315  07C6  0087               	movwf	7
  7316  07C7  3144               	addfsr 1,4
  7317  07C8  304B               	movlw	75
  7318  07C9  0601               	xorwf	1,w
  7319  07CA  1D03               	btfss	3,2
  7320  07CB  2FCD               	goto	u4621
  7321  07CC  2FCE               	goto	u4620
  7322  07CD                     u4621:
  7323  07CD  2FA0               	goto	u4581
  7324  07CE                     u4620:
  7325  07CE                     l2729:
  7326  07CE  308C               	movlw	140
  7327  07CF  0086               	movwf	6
  7328  07D0  3021               	movlw	33
  7329  07D1  0087               	movwf	7
  7330  07D2  3145               	addfsr 1,5
  7331  07D3  302A               	movlw	42
  7332  07D4  0601               	xorwf	1,w
  7333  07D5  1D03               	btfss	3,2
  7334  07D6  2FD8               	goto	u4631
  7335  07D7  2FD9               	goto	u4630
  7336  07D8                     u4631:
  7337  07D8  2FA0               	goto	u4581
  7338  07D9                     u4630:
  7339  07D9                     l2731:
  7340  07D9  308C               	movlw	140
  7341  07DA  0086               	movwf	6
  7342  07DB  3021               	movlw	33
  7343  07DC  0087               	movwf	7
  7344  07DD  3146               	addfsr 1,6
  7345  07DE  3023               	movlw	35
  7346  07DF  0601               	xorwf	1,w
  7347  07E0  1903               	btfsc	3,2
  7348  07E1  2FE3               	goto	u4641
  7349  07E2  2FE4               	goto	u4640
  7350  07E3                     u4641:
  7351  07E3  2F3A               	goto	l379
  7352  07E4                     u4640:
  7353  07E4  2FA0               	goto	u4581
  7354  07E5  3180  2802         	ljmp	start
  7355  07E7                     __end_of_main:

Data Sizes:
    Strings     32
    Constant    0
    Data        0
    BSS         53
    Persistent  38
    Stack       0

Auto Spaces:
    Space          Size  Autos    Used
    COMMON           14     14      14
    BANK0            80     21      80
    BANK1            80      0       0
    BANK2            80      0       0
    BANK3            80      0       0
    BANK4            76      0       0
    BANK5             0      0       0
    BANK6             0      0       0

Pointer List with Targets:

    vfpfcnvrt@ap	PTR PTR void  size(1) Largest target is 1
		 -> printf@ap(BANK0[1]), 

    S690$source	PTR const unsigned char  size(1) Largest target is 0

    fputc@fp...source	PTR const unsigned char  size(1) Largest target is 0

    S690$buffer	PTR unsigned char  size(1) Largest target is 0

    fputc@fp...buffer	PTR unsigned char  size(1) Largest target is 0

    fputc@fp	PTR struct _IO_FILE size(1) Largest target is 0
		 -> NULL(NULL[0]), 

    vfprintf@ap	PTR PTR void  size(1) Largest target is 1
		 -> printf@ap(BANK0[1]), 

    vfprintf@fp	PTR struct _IO_FILE size(1) Largest target is 0
		 -> NULL(NULL[0]), 

    vfprintf@fmt	PTR const unsigned char  size(2) Largest target is 32
		 -> STR_1(CODE[32]), 

    vfprintf@cfmt	PTR unsigned char  size(2) Largest target is 32
		 -> STR_1(CODE[32]), 

    vfpfcnvrt@fp	PTR struct _IO_FILE size(1) Largest target is 0
		 -> NULL(NULL[0]), 

    vfpfcnvrt@fmt	PTR PTR unsigned char  size(1) Largest target is 2
		 -> vfprintf@cfmt(BANK0[2]), 

    printf@fmt	PTR const unsigned char  size(2) Largest target is 32
		 -> STR_1(CODE[32]), 

    printf@ap	PTR void [1] size(1) Largest target is 2
		 -> ?_printf(BANK0[2]), 

    EUSART_SetErrorHandler@interruptHandler	PTR FTN()void  size(2) Largest target is 1
		 -> EUSART_DefaultErrorHandler(), 

    EUSART_ErrorHandler	PTR FTN()void  size(2) Largest target is 1
		 -> Absolute function(), EUSART_DefaultErrorHandler(), 

    EUSART_SetOverrunErrorHandler@interruptHandler	PTR FTN()void  size(2) Largest target is 1
		 -> EUSART_DefaultOverrunErrorHandler(), 

    EUSART_OverrunErrorHandler	PTR FTN()void  size(2) Largest target is 1
		 -> Absolute function(), EUSART_DefaultOverrunErrorHandler(), 

    EUSART_SetFramingErrorHandler@interruptHandler	PTR FTN()void  size(2) Largest target is 1
		 -> EUSART_DefaultFramingErrorHandler(), 

    EUSART_FramingErrorHandler	PTR FTN()void  size(2) Largest target is 1
		 -> Absolute function(), EUSART_DefaultFramingErrorHandler(), 


Critical Paths under _main in COMMON

    _main->_printf
    _vfprintf->_vfpfcnvrt
    _vfpfcnvrt->_fputc
    _fputc->_putch
    _putch->_EUSART_Write
    _putch->_EUSART_is_tx_ready
    _EUSART_Initialize->_EUSART_SetErrorHandler
    _EUSART_Initialize->_EUSART_SetFramingErrorHandler
    _EUSART_Initialize->_EUSART_SetOverrunErrorHandler
    _Check_Blynk->_LED_1_Blynk
    _Check_Blynk->_LED_2_Blynk
    _Check_Blynk->_LED_3_Blynk
    _Check_Blynk->_LED_4_Blynk
    _Check_Blynk->_LED_5_Blynk
    _Check_Blynk->_LED_6_Blynk
    _Check_Blynk->_LED_7_Blynk
    _Check_Blynk->_LED_8_Blynk

Critical Paths under _main in BANK0

    _main->_printf
    _printf->_vfprintf
    _vfprintf->_vfpfcnvrt

Critical Paths under _main in BANK1

    None.

Critical Paths under _main in BANK2

    None.

Critical Paths under _main in BANK3

    None.

Critical Paths under _main in BANK4

    None.

Critical Paths under _main in BANK5

    None.

Critical Paths under _main in BANK6

    None.

Call Graph Tables:

 ---------------------------------------------------------------------------------
 (Depth) Function   	        Calls       Base Space   Used Autos Params    Refs
 ---------------------------------------------------------------------------------
 (0) _main                                                 5     5      0    1930
                                             16 BANK0      5     5      0
                        _Check_Blynk
                        _EUSART_Read
                 _EUSART_is_rx_ready
                  _SYSTEM_Initialize
                             _printf
 ---------------------------------------------------------------------------------
 (1) _printf                                               6     4      2    1636
                                             13 COMMON     1     1      0
                                             13 BANK0      3     1      2
                           _vfprintf
 ---------------------------------------------------------------------------------
 (2) _vfprintf                                             8     5      3    1508
                                              5 BANK0      8     5      3
                          _vfpfcnvrt
 ---------------------------------------------------------------------------------
 (3) _vfpfcnvrt                                           40    38      2    1184
                                             10 COMMON     3     1      2
                                              0 BANK0      5     5      0
                              _fputc
 ---------------------------------------------------------------------------------
 (4) _fputc                                                8     5      3     784
                                              2 COMMON     8     5      3
                              _putch
 ---------------------------------------------------------------------------------
 (5) _putch                                                1     1      0      68
                                              1 COMMON     1     1      0
                       _EUSART_Write
                 _EUSART_is_tx_ready
 ---------------------------------------------------------------------------------
 (6) _EUSART_is_tx_ready                                   1     1      0      24
                                              0 COMMON     1     1      0
 ---------------------------------------------------------------------------------
 (6) _EUSART_Write                                         1     1      0      22
                                              0 COMMON     1     1      0
 ---------------------------------------------------------------------------------
 (1) _SYSTEM_Initialize                                    0     0      0     294
                  _EUSART_Initialize
              _OSCILLATOR_Initialize
             _PIN_MANAGER_Initialize
                     _WDT_Initialize
 ---------------------------------------------------------------------------------
 (2) _WDT_Initialize                                       0     0      0       0
 ---------------------------------------------------------------------------------
 (2) _PIN_MANAGER_Initialize                               0     0      0       0
 ---------------------------------------------------------------------------------
 (2) _OSCILLATOR_Initialize                                0     0      0       0
 ---------------------------------------------------------------------------------
 (2) _EUSART_Initialize                                    0     0      0     294
             _EUSART_SetErrorHandler
      _EUSART_SetFramingErrorHandler
      _EUSART_SetOverrunErrorHandler
 ---------------------------------------------------------------------------------
 (3) _EUSART_SetOverrunErrorHandler                        2     0      2      98
                                              0 COMMON     2     0      2
 ---------------------------------------------------------------------------------
 (3) _EUSART_SetFramingErrorHandler                        2     0      2      98
                                              0 COMMON     2     0      2
 ---------------------------------------------------------------------------------
 (3) _EUSART_SetErrorHandler                               2     0      2      98
                                              0 COMMON     2     0      2
 ---------------------------------------------------------------------------------
 (1) _EUSART_is_rx_ready                                   0     0      0       0
 ---------------------------------------------------------------------------------
 (1) _EUSART_Read                                          0     0      0       0
 ---------------------------------------------------------------------------------
 (1) _Check_Blynk                                          0     0      0       0
                        _LED_1_Blynk
                        _LED_2_Blynk
                        _LED_3_Blynk
                        _LED_4_Blynk
                        _LED_5_Blynk
                        _LED_6_Blynk
                        _LED_7_Blynk
                        _LED_8_Blynk
 ---------------------------------------------------------------------------------
 (2) _LED_8_Blynk                                          1     1      0       0
                                              0 COMMON     1     1      0
 ---------------------------------------------------------------------------------
 (2) _LED_7_Blynk                                          1     1      0       0
                                              0 COMMON     1     1      0
 ---------------------------------------------------------------------------------
 (2) _LED_6_Blynk                                          1     1      0       0
                                              0 COMMON     1     1      0
 ---------------------------------------------------------------------------------
 (2) _LED_5_Blynk                                          1     1      0       0
                                              0 COMMON     1     1      0
 ---------------------------------------------------------------------------------
 (2) _LED_4_Blynk                                          1     1      0       0
                                              0 COMMON     1     1      0
 ---------------------------------------------------------------------------------
 (2) _LED_3_Blynk                                          1     1      0       0
                                              0 COMMON     1     1      0
 ---------------------------------------------------------------------------------
 (2) _LED_2_Blynk                                          1     1      0       0
                                              0 COMMON     1     1      0
 ---------------------------------------------------------------------------------
 (2) _LED_1_Blynk                                          1     1      0       0
                                              0 COMMON     1     1      0
 ---------------------------------------------------------------------------------
 Estimated maximum stack depth 6
 ---------------------------------------------------------------------------------

 Call Graph Graphs:

 _main (ROOT)
   _Check_Blynk
     _LED_1_Blynk
     _LED_2_Blynk
     _LED_3_Blynk
     _LED_4_Blynk
     _LED_5_Blynk
     _LED_6_Blynk
     _LED_7_Blynk
     _LED_8_Blynk
   _EUSART_Read
   _EUSART_is_rx_ready
   _SYSTEM_Initialize
     _EUSART_Initialize
       _EUSART_SetErrorHandler
       _EUSART_SetFramingErrorHandler
       _EUSART_SetOverrunErrorHandler
     _OSCILLATOR_Initialize
     _PIN_MANAGER_Initialize
     _WDT_Initialize
   _printf
     _vfprintf
       _vfpfcnvrt
         _fputc
           _putch
             _EUSART_Write
             _EUSART_is_tx_ready

 Address spaces:
Name               Size   Autos  Total    Cost      Usage
BIGRAM             1F0      0       0       0        0.0%
NULL                 0      0       0       0        0.0%
CODE                 0      0       0       0        0.0%
BITCOMMON            E      0       0       1        0.0%
BITSFR0              0      0       0       1        0.0%
SFR0                 0      0       0       1        0.0%
COMMON               E      E       E       2      100.0%
BITSFR1              0      0       0       2        0.0%
SFR1                 0      0       0       2        0.0%
BITSFR2              0      0       0       3        0.0%
SFR2                 0      0       0       3        0.0%
STACK                0      0       0       3        0.0%
BITSFR3              0      0       0       4        0.0%
SFR3                 0      0       0       4        0.0%
ABS                  0      0      5E       4        0.0%
BITBANK0            50      0       0       5        0.0%
BITSFR4              0      0       0       5        0.0%
SFR4                 0      0       0       5        0.0%
BANK0               50     15      50       6      100.0%
BITSFR5              0      0       0       6        0.0%
SFR5                 0      0       0       6        0.0%
BITBANK1            50      0       0       7        0.0%
BITSFR6              0      0       0       7        0.0%
SFR6                 0      0       0       7        0.0%
BANK1               50      0       0       8        0.0%
BITSFR7              0      0       0       8        0.0%
SFR7                 0      0       0       8        0.0%
BITBANK2            50      0       0       9        0.0%
BITSFR8              0      0       0       9        0.0%
SFR8                 0      0       0       9        0.0%
BANK2               50      0       0      10        0.0%
BITSFR9              0      0       0      10        0.0%
SFR9                 0      0       0      10        0.0%
BITBANK3            50      0       0      11        0.0%
BITSFR10             0      0       0      11        0.0%
SFR10                0      0       0      11        0.0%
BANK3               50      0       0      12        0.0%
BITSFR11             0      0       0      12        0.0%
SFR11                0      0       0      12        0.0%
BITBANK4            50      0       0      13        0.0%
BITSFR12             0      0       0      13        0.0%
SFR12                0      0       0      13        0.0%
BANK4               4C      0       0      14        0.0%
BITSFR13             0      0       0      14        0.0%
SFR13                0      0       0      14        0.0%
BITBANK5            50      0       0      15        0.0%
BITSFR14             0      0       0      15        0.0%
SFR14                0      0       0      15        0.0%
BITSFR15             0      0       0      16        0.0%
SFR15                0      0       0      16        0.0%
BANK5                0      0       0      16        0.0%
BITBANK6            10      0       0      17        0.0%
BITSFR16             0      0       0      17        0.0%
SFR16                0      0       0      17        0.0%
BITSFR17             0      0       0      18        0.0%
SFR17                0      0       0      18        0.0%
BANK6                0      0       0      18        0.0%
BITSFR18             0      0       0      19        0.0%
SFR18                0      0       0      19        0.0%
DATA                 0      0      5E      19        0.0%
BITSFR19             0      0       0      20        0.0%
SFR19                0      0       0      20        0.0%
BITSFR20             0      0       0      21        0.0%
SFR20                0      0       0      21        0.0%
BITSFR21             0      0       0      22        0.0%
SFR21                0      0       0      22        0.0%
BITSFR22             0      0       0      23        0.0%
SFR22                0      0       0      23        0.0%
BITSFR23             0      0       0      24        0.0%
SFR23                0      0       0      24        0.0%
BITSFR24             0      0       0      25        0.0%
SFR24                0      0       0      25        0.0%
BITSFR25             0      0       0      26        0.0%
SFR25                0      0       0      26        0.0%
BITSFR26             0      0       0      27        0.0%
SFR26                0      0       0      27        0.0%
BITSFR27             0      0       0      28        0.0%
SFR27                0      0       0      28        0.0%
BITSFR28             0      0       0      29        0.0%
SFR28                0      0       0      29        0.0%
BITSFR29             0      0       0      30        0.0%
SFR29                0      0       0      30        0.0%
BITSFR30             0      0       0      31        0.0%
SFR30                0      0       0      31        0.0%
BITSFR31             0      0       0      32        0.0%
SFR31                0      0       0      32        0.0%


Microchip Technology PIC Macro Assembler V2.36 build 20220127204148 
Symbol Table                                                                                   Sat Jun 11 23:13:03 2022

                                            _i 004A                                             l40 0A11  
                                           l43 09F4                                             l53 0ACE  
                                           l37 0A34                                             l63 0B06  
                                           l48 0AB2                                             l73 0B3E  
                                           l58 0AEA                                             l83 0B76  
                                           l68 0B22                                             l78 0B5A  
                                           l86 0A7D                                            l200 0A05  
                                          l203 0A0B                                            l115 0A96  
                                          l206 09FF                                            l302 02A9  
                                          l161 0B98                                            l313 0350  
                                          l305 02B6                                            l330 0435  
                                          l252 0011                                            l324 03F7  
                                          l316 035D                                            l308 02E7  
                                          l341 04DC                                            l261 0BD9  
                                          l182 0A43                                            l166 0A52  
                                          l335 049E                                            l327 0404  
                                          l319 038E                                            l360 05F9  
                                          l352 0583                                            l264 0C0A  
                                          l169 09F9                                            l185 0A13  
                                          l178 0A35                                            l346 0545  
                                          l338 04AB                                            l371 06A0  
                                          l363 062A                                            l291 0202  
                                          l188 0A1B                                            l357 05EC  
                                          l349 0552                                            l382 0755  
                                          l374 06D1                                            l294 020F  
                                          l286 01BF                                            l368 0693  
                                          l385 0786                                            l297 0240  
                                          l289 01F0                                            l379 073A  
                                          l922 0A64                                            l961 0BC0  
                                          l955 00CC                                            l973 0052  
               ?_EUSART_SetFramingErrorHandler 0070                                            _str 218C  
                                          wreg 0009                                   ?_EUSART_Read 0070  
                                         l2001 0ACF                                           l2011 0AE8  
                                         l2003 0AD5                                           l2005 0AD7  
                                         l2021 0AFD                                           l2013 0AEB  
                                         l2101 0A42                                           l2007 0ADF  
                                         l2023 0B04                                           l2015 0AF1  
                                         l2031 0B17                                           l2111 0BC1  
                                         l2009 0AE1                                           l2017 0AF3  
                                         l2033 0B19                                           l2025 0B07  
                                         l2041 0B2B                                           l2105 0A53  
                                         l2201 0EBD                                           l2113 0BC4  
                                         l2019 0AFB                                           l2035 0B20  
                                         l2027 0B0D                                           l2043 0B33  
                                         l2051 0B45                                           l2107 0A58  
                                         l2211 0EF3                                           l2203 0EC7  
                                         l2123 0BD6                                           l2131 0C1B  
                                         l2115 0BCC                                           l2029 0B0F  
                                         l2045 0B35                                           l2037 0B23  
                                         l2053 0B47                                           l2061 0B5B  
                                         l2301 0D4E                                           l2221 0F19  
                                         l2213 0EF5                                           l2205 0ED2  
                                         l2141 0C51                                           l2133 0C25  
                                         l2125 0BE1                                           l2117 0BD3  
                                         l2047 0B3C                                           l2039 0B29  
                                         l2055 0B4F                                           l2071 0B74  
                                         l2063 0B61                                           l2311 0D6C  
                                         l2303 0D50                                           l2231 0F3F  
                                         l2223 0F24                                           l2207 0EDD  
                                         l2215 0EF9                                           l2151 0C77  
                                         l2143 0C53                                           l2135 0C30  
                                         l2127 0BF6                                           l2057 0B51  
                                         l2049 0B3F                                           l2065 0B63  
                                         l2081 0BBC                                           l2073 0B9B  
                                         l2401 0122                                           l2321 0D9A  
                                         l2313 0D77                                           l2305 0D55  
                                         l2241 0F6D                                           l2233 0F4A  
                                         l2225 0F2F                                           l2217 0F03  
                                         l2209 0EE8                                           l2161 0C9D  
                                         l2153 0C82                                           l2137 0C3B  
                                         l2145 0C57                                           l2129 0C06  
                                         l2059 0B58                                           l2067 0B6B  
                                         l2075 0B9F                                           l2411 0150  
                                         l2403 012D                                           l2331 0DC1  
                                         l2323 0D9F                                           l2315 0D82  
                                         l2307 0D57                                           l2251 0F9C  
                                         l2235 0F55                                           l2243 0F71  
                                         l2227 0F31                                           l2219 0F0E  
                                         l2171 0CCB                                           l2163 0CA8  
                                         l2155 0C8D                                           l2147 0C61  
                                         l2139 0C46                                           l2069 0B6D  
                                         l2093 0A35                                           l2085 0A28  
                                         l2077 0BA2                                           l2501 0318  
                                         l2421 0177                                           l2413 0155  
                                         l2405 0138                                           l2341 0DE9  
                                         l2333 0DCC                                           l2317 0D8D  
                                         l2309 0D61                                           l2325 0DA1  
                                         l2261 0FA4                                           l2253 0F9F  
                                         l2245 0F7B                                           l2237 0F60  
                                         l2229 0F35                                           l2181 0CFA  
                                         l2165 0CB3                                           l2173 0CCF  
                                         l2157 0C8F                                           l2149 0C6C  
                                         l2087 0A65                                           l2095 0A3A  
                                         l2079 0BB3                                           l2511 0353  
                                         l2503 0323                                           l2423 0182  
                                         l2431 01B2                                           l2407 0143  
                                         l2415 0157                                           l2351 0E16  
                                         l2335 0DD7                                           l2327 0DAB  
                                         l2343 0DEB                                           l2319 0D98  
                                         l2263 0FA5                                           l2255 0FA1  
                                         l2247 0F86                                           l2271 0FAA  
                                         l2239 0F6B                                           l2191 0E96  
                                         l2183 0D05                                           l2175 0CD9  
                                         l2167 0CBE                                           l2159 0C93  
                                         l2097 0A3B                                           l2089 09F5  
                                         l2601 0523                                           l2521 0365  
                                         l2513 0357                                           l2505 032E  
                                         l2441 01C7                                           l2433 01B9  
                                         l2425 018D                                           l2417 0161  
                                         l2409 014E                                           l2353 0E21  
                                         l2345 0DF5                                           l2361 0E35  
                                         l2337 0DE2                                           l2329 0DB6  
                                         l2281 0FE0                                           l2273 0FB4  
                                         l2265 0FA6                                           l2257 0FA2  
                                         l2249 0F91                                           l2193 0EA1  
                                         l2185 0D07                                           l2177 0CE4  
                                         l2169 0CC9                                           l2099 0A40  
                                         l2603 052E                                           l2531 03B4  
                                         l2523 037A                                           l2507 0339  
                                         l2443 01DC                                           l2427 01AE  
                                         l2419 016C                                           l2371 0E6B  
                                         l2363 0E3F                                           l2355 0E2C  
                                         l2347 0E00                                           l2339 0DE4  
                                         l2291 0D17                                           l2283 0FEB  
                                         l2275 0FBF                                           l2267 0FA7  
                                         l2259 0FA3                                           l2195 0EAC  
                                         l2179 0CEF                                           l2187 0D0B  
                                         l1901 0A00                                           l2701 072E  
                                         l2621 057F                                           l2605 0539  
                                         l2541 03EB                                           l2533 03BF  
                                         l2525 038A                                           l2509 0344  
                                         l2461 023C                                           l2445 01EC  
                                         l2429 01B0                                           l2381 00CD  
                                         l2373 0E76                                           l2365 0E4A  
                                         l2357 0E2E                                           l2349 0E0B  
                                         l2293 0D22                                           l2285 0FED  
                                         l2277 0FCA                                           l2269 0FA8  
                                         l2197 0EB7                                           l2189 0E8B  
                                         l1903 0A06                                           l1911 006E  
                                         l2711 0752                                           l2703 074B  
                                         l2631 05BF                                           l2615 054F  
                                         l2607 0548                                           l2623 0594  
                                         l2551 0401                                           l2543 03FA  
                                         l2535 03CA                                           l2519 035A  
                                         l2527 039F                                           l2471 027C  
                                         l2455 020C                                           l2447 0205  
                                         l2439 01BC                                           l2463 0251  
                                         l2391 0104                                           l2383 00D8  
                                         l2375 0E78                                           l2367 0E55  
                                         l2359 0E33                                           l2295 0D2D  
                                         l2287 0FF2                                           l2279 0FD5  
                                         l2199 0EB9                                           l1905 09FA  
                                         l1921 009A                                           l1913 0072  
                                         l2721 07A2                                           l2713 075D  
                                         l2705 074F                                           l2641 05F3  
                                         l2633 05CA                                           l2625 059E  
                                         l2617 055A                                           l2609 054C  
                                         l2561 0450                                           l2553 040C  
                                         l2545 03FE                                           l2537 03D5  
                                         l2529 03A9                                           l2481 02B0  
                                         l2473 0287                                           l2465 025B  
                                         l2457 0217                                           l2449 0209  
                                         l2393 0106                                           l2385 00E3  
                                         l2377 0E7D                                           l2369 0E60  
                                         l2297 0D38                                           l2289 0FF4  
                                         l1915 0076                                           l1931 00AA  
                                         l1907 0054                                           l2731 07D9  
                                         l2723 07AD                                           l2715 0772  
                                         l2651 0616                                           l2635 05D5  
                                         l2627 05A9                                           l2619 056F  
                                         l2571 0487                                           l2563 045B  
                                         l2555 0421                                           l2539 03E0  
                                         l2491 02D3                                           l2475 0292  
                                         l2467 0266                                           l2459 022C  
                                         l2395 010B                                           l2387 00EE  
                                         l2379 0E7F                                           l2299 0D43  
                                         l1941 0A82                                           l1933 00C3  
                                         l1917 0087                                           l1925 009F  
                                         l1909 0066                                           l2725 07B8  
                                         l2717 0782                                           l2661 065B  
                                         l2653 0626                                           l2637 05E0  
                                         l2629 05B4                                           l2573 0492  
                                         l2565 0466                                           l2557 0431  
                                         l2493 02E3                                           l2477 029D  
                                         l2469 0271                                           l2389 00F9  
                                         l2397 010D                                           l1951 0A8F  
                                         l1943 0A85                                           l1871 0A4F  
                                         l1927 00A7                                           l1919 008F  
                                         l2727 07C3                                           l2719 0797  
                                         l2671 0696                                           l2663 0666  
                                         l2647 05F6                                           l2639 05EF  
                                         l2655 063B                                           l2583 04A8  
                                         l2575 04A1                                           l2567 0471  
                                         l2591 04ED                                           l2559 0446  
                                         l2487 02B3                                           l2479 02AC  
                                         l2495 02F8                                           l2399 0117  
                                         l1961 0A0F                                           l1953 0A91  
                                         l1945 0A88                                           l1873 0A51  
                                         l1865 0A44                                           l1881 0005  
                                         l2729 07CE                                           l2681 06A8  
                                         l2673 069A                                           l2665 0671  
                                         l2657 0645                                           l2649 0601  
                                         l2593 04F7                                           l2585 04B3  
                                         l2577 04A5                                           l2569 047C  
                                         l2497 0302                                           l2489 02BE  
                                         l1971 0B88                                           l1955 0A92  
                                         l1947 0A8B                                           l1939 0A7E  
                                         l1963 09F1                                           l1867 0A45  
                                         l1883 0005                                           l1891 001C  
                                         l2691 06F7                                           l2683 06BD  
                                         l2667 067C                                           l2659 0650  
                                         l2595 0502                                           l2587 04C8  
                                         l2499 030D                                           l1981 0A9F  
                                         l1973 0B8F                                           l1965 0B77  
                                         l1957 0A94                                           l1949 0A8D  
                                         l1877 0A13                                           l1869 0A4A  
                                         l1885 000D                                           l1893 0021  
                                         l2693 0702                                           l2685 06CD  
                                         l2669 0687                                           l2597 050D  
                                         l2589 04D8                                           l1983 0AA7  
                                         l1991 0AB9                                           l1975 0B96  
                                         l1967 0B80                                           l1959 0A0C  
                                         l1879 0A18                                           l1895 002B  
                                         l1887 0012                                           l2695 070D  
                                         l2679 069D                                           l2687 06E2  
                                         l2599 0518                                           l1985 0AA9  
                                         l1977 0A97                                           l1993 0ABB  
                                         l1969 0B81                                           l1897 0049  
                                         l1889 0017                                           l2697 0718  
                                         l2689 06EC                                           l1987 0AB0  
                                         l1979 0A9D                                           l1995 0AC3  
                                         l2699 0723                                           l1997 0AC5  
                                         l1989 0AB3                                           l1999 0ACC  
                                         STR_1 1000                                           u3000 0F2F  
                                         u3001 0F2E                                           u3010 0F3F  
                                         u3011 0F3E                                           u3100 0FB4  
                                         u3020 0F4A                                           u3101 0FB3  
                                         u3021 0F49                                           _LATA 010C  
                                         u3110 0FBF                                           u3030 0F55  
                                         _LATB 010D                                           u3111 0FBE  
                                         u3031 0F54                                           _LATC 010E  
                                         u2400 0049                                           u4000 040C  
                                         u3200 0D43                                           u3120 0FCA  
                                         u3040 0F60                                           u2401 0048  
                                         u4001 040B                                           u3201 0D42  
                                         u3121 0FC9                                           u3041 0F5F  
                                         u2330 0A4A                                           u2410 0066  
                                         u4010 0431                                           u3210 0D4E  
                                         u3130 0FD5                                           u3050 0F6B  
                                         u2331 0A49                                           u2411 0065  
                                         u4011 0430                                           u3211 0D4D  
                                         u3131 0FD4                                           u3051 0F6A  
                                         u2500 0B04                                           u2340 0A4F  
                                         u2420 0087                                           u4100 049D  
                                         u4020 0446                                           u3300 0DC1  
                                         u3220 0D61                                           u3140 0FE0  
                                         u3060 0F7B                                           u2501 0B03  
                                         u2341 0A4E                                           u2405 0045  
                                         u2421 0086                                           u4101 049C  
                                         u4021 0445                                           u3301 0DC0  
                                         u3221 0D60                                           u3141 0FDF  
                                         u3061 0F7A                                           u2430 0A9D  
                                         u2510 0B0D                                           u2350 0A18  
                                         u4110 04B3                                           u4030 0450  
                                         u3310 0DCC                                           u3230 0D6C  
                                         u3150 0FEB                                           u3070 0F86  
                                         u2431 0A9C                                           u2511 0B0C  
                                         u2351 0A17                                           u4111 04B2  
                                         u4031 044F                                           u3311 0DCB  
                                         u3231 0D6B                                           u3151 0FEA  
                                         u3071 0F85                                           u2440 0AB0  
                                         u2520 0B20                                           u2600 0A3A  
                                         u2360 000D                                           u4200 0539  
                                         u4120 04D8                                           u4040 045B  
                                         u3400 0E3F                                           u3320 0DD7  
                                         u3240 0D77                                           u3160 0D17  
                                         u3080 0F91                                           u2441 0AAF  
                                         u2521 0B1F                                           u2601 0A39  
                                         u2361 000C                                           u4201 0538  
                                         u4121 04D7                                           u4041 045A  
                                         u4025 0442                                           u3401 0E3E  
                                         u3321 0DD6                                           u3241 0D76  
                                         u3161 0FFE                                           u3081 0F90  
                                         u2450 0AB9                                           u2530 0B29  
                                         u2610 0A40                                           u2370 0017  
                                         u4210 0544                                           u4130 04ED  
                                         u4050 0466                                           u3410 0E4A  
                                         u3330 0DE2                                           u3250 0D82  
                                         u3170 0D22                                           u3090 0F9C  
                                         u2451 0AB8                                           u2531 0B28  
                                         u2611 0A3F                                           u2371 0016  
                                         u4211 0543                                           u4131 04EC  
                                         u4051 0465                                           u3411 0E49  
                                         u3331 0DE1                                           u3251 0D81  
                                         u3171 0D21                                           u3091 0F9B  
                                         u2460 0ACC                                           u2540 0B3C  
                                         u2380 001C                                           u4300 05D5  
                                         u4220 055A                                           u4140 04F7  
                                         u4060 0471                                           u3500 00F9  
                                         u3420 0E55                                           u3340 0DF5  
                                         u3260 0D8D                                           u3180 0D2D  
                                         u2700 0C51                                           u2620 0BD3  
                                         u2461 0ACB                                           u2541 0B3B  
                                         u2381 001B                                           u4301 05D4  
                                         u4221 0559                                           u4141 04F6  
                                         u4061 0470                                           u3501 00F8  
                                         u3421 0E54                                           u3341 0DF4  
                                         u3261 0D8C                                           u3181 0D2C  
                                         u2701 0C50                                           u2621 0BD2  
                                         u2470 0AD5                                           u2550 0B45  
                                         u2390 002B                                           u4310 05E0  
                                         u4230 057F                                           u4150 0502  
                                         u4070 047C                                           u3510 0104  
                                         u3430 0E60                                           u3350 0E00  
                                         u3270 0D98                                           u3190 0D38  
                                         u2710 0C61                                           u2630 0BE1  
                                         u2471 0AD4                                           u2551 0B44  
                                         u2391 002A                                           u4311 05DF  
                                         u4231 057E                                           u4151 0501  
                                         u4135 04E9                                           u4071 047B  
                                         u3511 0103                                           u3431 0E5F  
                                         u3351 0DFF                                           u3271 0D97  
                                         u3191 0D37                                           u2711 0C60  
                                         u2631 0BE0                                           u2480 0AE8  
                                         u2560 0B58                                           u4400 0671  
                                         u4320 05EB                                           u4240 0594  
                                         u4160 050D                                           u4080 0487  
                                         u3600 0177                                           u3520 0117  
                                         u3440 0E6B                                           u3360 0E0B  
                                         u3280 0DAB                                           u2800 0CC9  
                                         u2720 0C6C                                           u2640 0C06  
                                         u2481 0AE7                                           u2561 0B57  
                                         u4401 0670                                           u4321 05EA  
                                         u4241 0593                                           u4161 050C  
                                         u4081 0486                                           u3601 0176  
                                         u3521 0116                                           u3441 0E6A  
                                         u3361 0E0A                                           u3281 0DAA  
                                         u2801 0CC8                                           u2721 0C6B  
                                         u2641 0C05                                           u2490 0AF1  
                                         u2570 0B61                                           u4410 067C  
                                         u4330 0601                                           u4250 059E  
                                         u4170 0518                                           u4090 0492  
                                         u3610 0182                                           u3530 0122  
                                         u3450 0E76                                           u3370 0E16  
                                         u3290 0DB6                                           u2810 0CD9  
                                         u2730 0C77                                           u2650 0C1B  
                                         u2491 0AF0                                           u2571 0B60  
                                         u4411 067B                                           u4331 0600  
                                         u4251 059D                                           u4171 0517  
                                         u4091 0491                                           u3611 0181  
                                         u3531 0121                                           u3451 0E75  
                                         u3371 0E15                                           u3291 0DB5  
                                         u2811 0CD8                                           u2731 0C76  
                                         u2651 0C1A                                           u2580 0B74  
                                         u4500 070D                                           u4420 0687  
                                         u4340 0626                                           u4260 05A9  
                                         u4180 0523                                           u3700 025B  
                                         u3620 018D                                           u3540 012D  
                                         u3460 00CD                                           u3380 0E21  
                                         u2900 0EB7                                           u2820 0CE4  
                                         u2740 0C82                                           u2660 0C25  
                                         u2581 0B73                                           u4501 070C  
                                         u4421 0686                                           u4341 0625  
                                         u4261 05A8                                           u4245 0590  
                                         u4181 0522                                           u3701 025A  
                                         u3621 018C                                           u3541 012C  
                                         u3461 0E89                                           u3381 0E20  
                                         u2901 0EB6                                           u2821 0CE3  
                                         u2741 0C81                                           u2661 0C24  
                                         u2590 0BBC                                           u4510 0718  
                                         u4430 0692                                           u4350 063B  
                                         u4270 05B4                                           u4190 052E  
                                         u3710 0266                                           u3630 01B9  
                                         u3550 0138                                           u3470 00D8  
                                         u3390 0E2C                                           u2910 0EC7  
                                         u2830 0CEF                                           u2750 0C8D  
                                         u2670 0C30                                           u2591 0BBB  
                                         u4511 0717                                           u4431 0691  
                                         u4351 063A                                           u4271 05B3  
                                         u4191 052D                                           u3711 0265  
                                         u3631 01B8                                           u3551 0137  
                                         u3471 00D7                                           u3391 0E2B  
                                         u2911 0EC6                                           u2831 0CEE  
                                         u2751 0C8C                                           u2671 0C2F  
                                         u2655 0C17                                           u4600 07B8  
                                         u4520 0723                                           u4440 06A8  
                                         u4360 0645                                           u4280 05BF  
                                         u3800 02F8                                           u3720 0271  
                                         u3640 01C7                                           u3560 0143  
                                         u3480 00E3                                           u2920 0ED2  
                                         u2840 0CFA                                           u2760 0C9D  
                                         u2680 0C3B                                           u4601 07B7  
                                         u4521 0722                                           u4441 06A7  
                                         u4361 0644                                           u4281 05BE  
                                         u3801 02F7                                           u3721 0270  
                                         u3641 01C6                                           u3561 0142  
                                         u3481 00E2                                           u2921 0ED1  
                                         u2841 0CF9                                           u2761 0C9C  
                                         u2681 0C3A                                           u4610 07C3  
                                         u4530 072E                                           u4450 06CD  
                                         u4370 0650                                           u4290 05CA  
                                         u3810 0302                                           u3730 027C  
                                         u3650 01EC                                           u3570 014E  
                                         u3490 00EE                                           u2930 0EDD  
                                         u2850 0D05                                           u2770 0CA8  
                                         u2690 0C46                                           u4611 07C2  
                                         u4531 072D                                           u4451 06CC  
                                         u4371 064F                                           u4355 0637  
                                         u4291 05C9                                           u3811 0301  
                                         u3731 027B                                           u3651 01EB  
                                         u3571 014D                                           u3491 00ED  
                                         u2931 0EDC                                           u2851 0D04  
                                         u2771 0CA7                                           u2691 0C45  
                                         u4620 07CE                                           u4540 0739  
                                         u4460 06E2                                           u4380 065B  
                                         u3900 038A                                           u3820 030D  
                                         u3740 0287                                           u3660 0201  
                                         u3580 0161                                           u2940 0EE8  
                                         u2860 0E8B                                           u2780 0CB3  
                                         u4621 07CD                                           u4541 0738  
                                         u4461 06E1                                           u4381 065A  
                                         u3901 0389                                           u3821 030C  
                                         u3805 02F4                                           u3741 0286  
                                         u3661 0200                                           u3581 0160  
                                         u2941 0EE7                                           u2861 0D15  
                                         u2781 0CB2                                           u4630 07D9  
                                         u4550 075D                                           u4470 06EC  
                                         u4390 0666                                           u3910 039F  
                                         u3830 0318                                           u3750 0292  
                                         u3670 0217                                           u3590 016C  
                                         u2950 0EF3                                           u2870 0E96  
                                         u2790 0CBE                                           u4631 07D8  
                                         u4551 075C                                           u4471 06EB  
                                         u4391 0665                                           u3911 039E  
                                         u3831 0317                                           u3751 0291  
                                         u3671 0216                                           u3591 016B  
                                         u2951 0EF2                                           u2871 0E95  
                                         u2791 0CBD                                           u4640 07E4  
                                         u4560 0782                                           u4480 06F7  
                                         u3920 03A9                                           u3840 0323  
                                         u3760 029D                                           u3680 023C  
                                         u2960 0F03                                           u2880 0EA1  
                                         u4641 07E3                                           u4561 0781  
                                         u4481 06F6                                           u4465 06DE  
                                         u3921 03A8                                           u3841 0322  
                                         u3761 029C                                           u3681 023B  
                                         u3665 01FD                                           u2961 0F02  
                                         u2881 0EA0                                           u4570 0797  
                                         u4490 0702                                           u3930 03B4  
                                         u3850 032E                                           u3770 02A8  
                                         u3690 0251                                           u2970 0F0E  
                                         u2890 0EAC                                           u4707 0ADA  
                                         u4571 0796                                           u4491 0701  
                                         u3931 03B3                                           u3915 039B  
                                         u3851 032D                                           u3771 02A7  
                                         u3691 0250                                           u2971 0F0D  
                                         u2891 0EAB                                           u4580 07A2  
                                         u3940 03BF                                           u3860 0339  
                                         u3780 02BE                                           u2980 0F19  
                                         u4717 0ABE                                           u4581 07A0  
                                         u3941 03BE                                           u3861 0338  
                                         u3781 02BD                                           u2981 0F18  
                                         u4590 07AD                                           u3950 03CA  
                                         u3870 0344                                           u3790 02E3  
                                         u2990 0F24                                           u4727 0AA2  
                                         u4591 07AC                                           u4575 0793  
                                         u3951 03C9                                           u3871 0343  
                                         u3791 02E2                                           u3695 024D  
                                         u2991 0F23                                           u3960 03D5  
                                         u3880 034F                                           u4657 0B66  
                                         u3961 03D4                                           u3881 034E  
                                         u3970 03E0                                           u3890 0365  
                                         u4667 0B4A                                           u3971 03DF  
                                         u3891 0364                                           u3980 03EB  
                                         u4677 0B2E                                           u3981 03EA  
                                         u3990 03F6                                           u4687 0B12  
                                         u3991 03F5                                           u4697 0AF6  
                                         _WPUA 020C                                           _WPUB 020D  
                                         _dbuf 0020                                           _main 0BC1  
                                         _prec 0044                                           _nout 0040  
                                         fsr0h 0005                                           fsr1h 0007  
                                         indf0 0000                                           fsr0l 0004  
                                         indf1 0001                                           fsr1l 0006  
                                         btemp 007E                                           start 0002  
                                  _Check_Blynk 0A65                                  ?_EUSART_Write 0070  
                __end_of_OSCILLATOR_Initialize 0A12                                          ?_main 0070  
                                        _RCREG 0199                                          _RCSTA 019D  
                                 vfpfcnvrt@fmt 007A                                          _TRISA 008C  
                                        _TRISB 008D                                          _TRISC 008E  
                                        _TXREG 019A                                          _TXSTA 019E  
                                        _flags 0046                                 _WDT_Initialize 09F1  
                                        _count 0048                                          _fputc 0012  
                                        _width 0042                                          _putch 0004  
                                        status 0003                                          wtemp0 007E  
                              __initialization 07E7                                   __end_of_main 07E7  
                               ??_EUSART_Write 0070                                         ??_main 0065  
                       __end_of_WDT_Initialize 09F5              _EUSART_DefaultFramingErrorHandler 0000  
                   _EUSART_OverrunErrorHandler 006C                                         ?_fputc 0072  
                                       _APFCON 011D                                         _ANSELA 018C  
                                       ?_putch 0070                                         _ANSELB 018D  
                                       _ANSELC 018E                     __end_of_EUSART_is_rx_ready 09FA  
                                       _BORCON 0116                     __end_of_EUSART_is_tx_ready 0A53  
                                       _OSCCON 0099                                         _SPBRGH 019C  
                                       _SPBRGL 019B                                         _WDTCON 0097  
                                 vfprintf@cfmt 0060                                         _printf 0A53  
                                       fputc@c 0072                                ?_WDT_Initialize 0070  
                             __end_of_vfprintf 0BC1                              _SYSTEM_Initialize 0A28  
                      __end_of__initialization 07FD                             ?_SYSTEM_Initialize 0070  
                               __pcstackCOMMON 0070                            ??_SYSTEM_Initialize 0072  
                                __end_of_fputc 0053                                  __end_of_putch 0012  
                               _OPTION_REGbits 0095                ??_EUSART_SetOverrunErrorHandler 0072  
                                      ??_fputc 0075                      __end_of_SYSTEM_Initialize 0A35  
                                      ??_putch 0071                                     __pbssBANK0 0020  
                         __end_of_EUSART_Write 0A1C                                     __pmaintext 0BC1  
                                 ?_Check_Blynk 0070                                        _BAUDCON 019F  
                                      ?_printf 0062                       ??_EUSART_SetErrorHandler 0072  
                                    ?_vfprintf 005A                                        __ptext1 0A53  
                                      __ptext2 0B99                                        __ptext3 0053  
                                      __ptext4 0012                                        __ptext5 0004  
                                      __ptext6 0A44                                        __ptext7 0A12  
                                      __ptext8 0A28                                        __ptext9 09F1  
                        _OSCILLATOR_Initialize 0A0C                       ??_PIN_MANAGER_Initialize 0070  
                                      _state_1 0054                                        _state_2 0053  
                                      _state_3 0052                                        _state_4 0051  
                                      _state_5 0050                                        _state_6 004F  
                                      _state_7 004E                                        _state_8 004D  
                                      clrloop0 0A1D                           end_of_initialization 07FD  
        __end_of_EUSART_SetOverrunErrorHandler 0A0C                  _EUSART_SetOverrunErrorHandler 0A06  
                                      fputc@fp 0074                              _EUSART_Initialize 0B77  
                           ?_EUSART_Initialize 0070                              __end_of_vfpfcnvrt 00CD  
                                    _RCSTAbits 019D                             _EUSART_is_rx_ready 09F5  
                                      psplit$0 A0027                                        psplit$1 270028  
                                      psplit$2 280029                             _EUSART_is_tx_ready 0A44  
                                   ??_vfprintf 005D                            ??_EUSART_Initialize 0072  
                             ??_WDT_Initialize 0070                            ?_EUSART_is_rx_ready 0070  
                          ?_EUSART_is_tx_ready 0070                           pnum$maintext_split_1 0027  
                         pnum$maintext_split_2 0028                           pnum$maintext_split_3 0029  
                    __end_of_EUSART_Initialize 0B99                           ??_EUSART_is_rx_ready 0070  
                                ??_LED_1_Blynk 0070                           ??_EUSART_is_tx_ready 0070  
                                    _TXSTAbits 019E                                  ??_LED_2_Blynk 0070  
                                ??_LED_3_Blynk 0070                                  ??_LED_4_Blynk 0070  
                                ??_LED_5_Blynk 0070                                  ??_LED_6_Blynk 0070  
                                ??_LED_7_Blynk 0070                                  ??_LED_8_Blynk 0070  
                   _EUSART_DefaultErrorHandler 0000                                    vfpfcnvrt@ap 007B  
                                  vfpfcnvrt@fp 007C                                   _EUSART_Write 0A12  
                       ?_OSCILLATOR_Initialize 0070                                 __end_of_printf 0A65  
                          start_initialization 07E7                                  ??_EUSART_Read 0070  
                       _EUSART_is_tx_ready$301 0070                 ?_EUSART_SetOverrunErrorHandler 0070  
                                  vfprintf@fmt 005A                     _EUSART_FramingErrorHandler 006E  
                       _EUSART_SetErrorHandler 09FA                            __end_of_LED_1_Blynk 0AB3  
                          __end_of_LED_2_Blynk 0ACF                            __end_of_LED_3_Blynk 0AEB  
                          __end_of_LED_4_Blynk 0B07                            __end_of_LED_5_Blynk 0B23  
                          __end_of_LED_6_Blynk 0B3F                            __end_of_LED_7_Blynk 0B5B  
                          __end_of_LED_8_Blynk 0B77                                       ??_printf 007D  
                                  __pbssBIGRAM 218C                                      ___latbits 0002  
                                __pcstackBANK0 0055                            __end_of_EUSART_Read 0A44  
                                    __pnvBANK0 006A                         _PIN_MANAGER_Initialize 0A7E  
       EUSART_SetErrorHandler@interruptHandler 0070                                       _LATCbits 010E  
                                    clear_ram0 0A1C                                    _LED_1_Blynk 0A97  
                                  _LED_2_Blynk 0AB3                              _eusartRxLastError 004C  
                                  _LED_3_Blynk 0ACF                                    _LED_4_Blynk 0AEB  
                                  _LED_5_Blynk 0B07                                    _LED_6_Blynk 0B23  
                                  _LED_7_Blynk 0B3F                                    _LED_8_Blynk 0B5B  
                                     _PIR1bits 0011                ??_EUSART_SetFramingErrorHandler 0072  
            _EUSART_DefaultOverrunErrorHandler 0000                                      _vfpfcnvrt 0053  
                                  _EUSART_Read 0A35                                     vfprintf@ap 005C  
                                   vfprintf@fp 005F                        ??_OSCILLATOR_Initialize 0070  
                          _EUSART_ErrorHandler 006A                                   pnum$maintext 000A  
                                   ?_vfpfcnvrt 007A                                       __ptext10 0A7E  
                                     __ptext11 0A0C                                       __ptext20 0B3F  
                                     __ptext12 0B77                                       __ptext21 0B23  
                                     __ptext13 0A06                                       __ptext22 0B07  
                                     __ptext14 0A00                                       __ptext23 0AEB  
                                     __ptext15 09FA                                       __ptext24 0ACF  
                                     __ptext16 09F5                                       __ptext25 0AB3  
                                     __ptext17 0A35                                       __ptext26 0A97  
                                     __ptext18 0A65                                       __ptext19 0B5B  
                      ?_EUSART_SetErrorHandler 0070  EUSART_SetOverrunErrorHandler@interruptHandler 0070  
                                ??_Check_Blynk 0071                                       _vfprintf 0B99  
                                    printf@fmt 0062          __end_of_EUSART_SetFramingErrorHandler 0A06  
                _EUSART_SetFramingErrorHandler 0A00                                      putch@data 0071  
                      ?_PIN_MANAGER_Initialize 0070                 __end_of_EUSART_SetErrorHandler 0A00  
                                     printf@ap 0064  EUSART_SetFramingErrorHandler@interruptHandler 0070  
                                  ??_vfpfcnvrt 0055                                  __pstringtext1 1000  
                                __pstringtext2 0000                            __end_of_Check_Blynk 0A7E  
                           EUSART_Write@txData 0070                 __end_of_PIN_MANAGER_Initialize 0A97  
                                 ?_LED_1_Blynk 0070                                   ?_LED_2_Blynk 0070  
                                 ?_LED_3_Blynk 0070                                   ?_LED_4_Blynk 0070  
                                 ?_LED_5_Blynk 0070                                   ?_LED_6_Blynk 0070  
                                 ?_LED_7_Blynk 0070                                   ?_LED_8_Blynk 0070  
